
POT_LCD.elf:     file format elf32-littlearm

Sections:
Idx Name          Size      VMA       LMA       File off  Algn
  0 .isr_vector   0000010c  08000000  08000000  00010000  2**0
                  CONTENTS, ALLOC, LOAD, READONLY, DATA
  1 .text         00007914  08000110  08000110  00010110  2**3
                  CONTENTS, ALLOC, LOAD, READONLY, CODE
  2 .rodata       000004d4  08007a28  08007a28  00017a28  2**3
                  CONTENTS, ALLOC, LOAD, READONLY, DATA
  3 .ARM.extab    00000000  08007efc  08007efc  000201f0  2**0
                  CONTENTS
  4 .ARM          00000000  08007efc  08007efc  000201f0  2**0
                  CONTENTS
  5 .preinit_array 00000000  08007efc  08007efc  000201f0  2**0
                  CONTENTS, ALLOC, LOAD, DATA
  6 .init_array   00000004  08007efc  08007efc  00017efc  2**2
                  CONTENTS, ALLOC, LOAD, DATA
  7 .fini_array   00000004  08007f00  08007f00  00017f00  2**2
                  CONTENTS, ALLOC, LOAD, DATA
  8 .data         000001f0  20000000  08007f04  00020000  2**2
                  CONTENTS, ALLOC, LOAD, DATA
  9 .bss          000000bc  200001f0  080080f4  000201f0  2**2
                  ALLOC
 10 ._user_heap_stack 00000604  200002ac  080080f4  000202ac  2**0
                  ALLOC
 11 .ARM.attributes 00000029  00000000  00000000  000201f0  2**0
                  CONTENTS, READONLY
 12 .debug_info   00008498  00000000  00000000  00020219  2**0
                  CONTENTS, READONLY, DEBUGGING, OCTETS
 13 .debug_abbrev 000019ae  00000000  00000000  000286b1  2**0
                  CONTENTS, READONLY, DEBUGGING, OCTETS
 14 .debug_aranges 000008d0  00000000  00000000  0002a060  2**3
                  CONTENTS, READONLY, DEBUGGING, OCTETS
 15 .debug_ranges 00000810  00000000  00000000  0002a930  2**3
                  CONTENTS, READONLY, DEBUGGING, OCTETS
 16 .debug_macro  00018115  00000000  00000000  0002b140  2**0
                  CONTENTS, READONLY, DEBUGGING, OCTETS
 17 .debug_line   0000af1d  00000000  00000000  00043255  2**0
                  CONTENTS, READONLY, DEBUGGING, OCTETS
 18 .debug_str    00088756  00000000  00000000  0004e172  2**0
                  CONTENTS, READONLY, DEBUGGING, OCTETS
 19 .comment      00000050  00000000  00000000  000d68c8  2**0
                  CONTENTS, READONLY
 20 .debug_frame  00003824  00000000  00000000  000d6918  2**2
                  CONTENTS, READONLY, DEBUGGING, OCTETS

Disassembly of section .text:

08000110 <__do_global_dtors_aux>:
 8000110:	b510      	push	{r4, lr}
 8000112:	4c05      	ldr	r4, [pc, #20]	; (8000128 <__do_global_dtors_aux+0x18>)
 8000114:	7823      	ldrb	r3, [r4, #0]
 8000116:	b933      	cbnz	r3, 8000126 <__do_global_dtors_aux+0x16>
 8000118:	4b04      	ldr	r3, [pc, #16]	; (800012c <__do_global_dtors_aux+0x1c>)
 800011a:	b113      	cbz	r3, 8000122 <__do_global_dtors_aux+0x12>
 800011c:	4804      	ldr	r0, [pc, #16]	; (8000130 <__do_global_dtors_aux+0x20>)
 800011e:	f3af 8000 	nop.w
 8000122:	2301      	movs	r3, #1
 8000124:	7023      	strb	r3, [r4, #0]
 8000126:	bd10      	pop	{r4, pc}
 8000128:	200001f0 	.word	0x200001f0
 800012c:	00000000 	.word	0x00000000
 8000130:	08007a0c 	.word	0x08007a0c

08000134 <frame_dummy>:
 8000134:	b508      	push	{r3, lr}
 8000136:	4b03      	ldr	r3, [pc, #12]	; (8000144 <frame_dummy+0x10>)
 8000138:	b11b      	cbz	r3, 8000142 <frame_dummy+0xe>
 800013a:	4903      	ldr	r1, [pc, #12]	; (8000148 <frame_dummy+0x14>)
 800013c:	4803      	ldr	r0, [pc, #12]	; (800014c <frame_dummy+0x18>)
 800013e:	f3af 8000 	nop.w
 8000142:	bd08      	pop	{r3, pc}
 8000144:	00000000 	.word	0x00000000
 8000148:	200001f4 	.word	0x200001f4
 800014c:	08007a0c 	.word	0x08007a0c

08000150 <strlen>:
 8000150:	4603      	mov	r3, r0
 8000152:	f813 2b01 	ldrb.w	r2, [r3], #1
 8000156:	2a00      	cmp	r2, #0
 8000158:	d1fb      	bne.n	8000152 <strlen+0x2>
 800015a:	1a18      	subs	r0, r3, r0
 800015c:	3801      	subs	r0, #1
 800015e:	4770      	bx	lr

08000160 <__aeabi_drsub>:
 8000160:	f081 4100 	eor.w	r1, r1, #2147483648	; 0x80000000
 8000164:	e002      	b.n	800016c <__adddf3>
 8000166:	bf00      	nop

08000168 <__aeabi_dsub>:
 8000168:	f083 4300 	eor.w	r3, r3, #2147483648	; 0x80000000

0800016c <__adddf3>:
 800016c:	b530      	push	{r4, r5, lr}
 800016e:	ea4f 0441 	mov.w	r4, r1, lsl #1
 8000172:	ea4f 0543 	mov.w	r5, r3, lsl #1
 8000176:	ea94 0f05 	teq	r4, r5
 800017a:	bf08      	it	eq
 800017c:	ea90 0f02 	teqeq	r0, r2
 8000180:	bf1f      	itttt	ne
 8000182:	ea54 0c00 	orrsne.w	ip, r4, r0
 8000186:	ea55 0c02 	orrsne.w	ip, r5, r2
 800018a:	ea7f 5c64 	mvnsne.w	ip, r4, asr #21
 800018e:	ea7f 5c65 	mvnsne.w	ip, r5, asr #21
 8000192:	f000 80e2 	beq.w	800035a <__adddf3+0x1ee>
 8000196:	ea4f 5454 	mov.w	r4, r4, lsr #21
 800019a:	ebd4 5555 	rsbs	r5, r4, r5, lsr #21
 800019e:	bfb8      	it	lt
 80001a0:	426d      	neglt	r5, r5
 80001a2:	dd0c      	ble.n	80001be <__adddf3+0x52>
 80001a4:	442c      	add	r4, r5
 80001a6:	ea80 0202 	eor.w	r2, r0, r2
 80001aa:	ea81 0303 	eor.w	r3, r1, r3
 80001ae:	ea82 0000 	eor.w	r0, r2, r0
 80001b2:	ea83 0101 	eor.w	r1, r3, r1
 80001b6:	ea80 0202 	eor.w	r2, r0, r2
 80001ba:	ea81 0303 	eor.w	r3, r1, r3
 80001be:	2d36      	cmp	r5, #54	; 0x36
 80001c0:	bf88      	it	hi
 80001c2:	bd30      	pophi	{r4, r5, pc}
 80001c4:	f011 4f00 	tst.w	r1, #2147483648	; 0x80000000
 80001c8:	ea4f 3101 	mov.w	r1, r1, lsl #12
 80001cc:	f44f 1c80 	mov.w	ip, #1048576	; 0x100000
 80001d0:	ea4c 3111 	orr.w	r1, ip, r1, lsr #12
 80001d4:	d002      	beq.n	80001dc <__adddf3+0x70>
 80001d6:	4240      	negs	r0, r0
 80001d8:	eb61 0141 	sbc.w	r1, r1, r1, lsl #1
 80001dc:	f013 4f00 	tst.w	r3, #2147483648	; 0x80000000
 80001e0:	ea4f 3303 	mov.w	r3, r3, lsl #12
 80001e4:	ea4c 3313 	orr.w	r3, ip, r3, lsr #12
 80001e8:	d002      	beq.n	80001f0 <__adddf3+0x84>
 80001ea:	4252      	negs	r2, r2
 80001ec:	eb63 0343 	sbc.w	r3, r3, r3, lsl #1
 80001f0:	ea94 0f05 	teq	r4, r5
 80001f4:	f000 80a7 	beq.w	8000346 <__adddf3+0x1da>
 80001f8:	f1a4 0401 	sub.w	r4, r4, #1
 80001fc:	f1d5 0e20 	rsbs	lr, r5, #32
 8000200:	db0d      	blt.n	800021e <__adddf3+0xb2>
 8000202:	fa02 fc0e 	lsl.w	ip, r2, lr
 8000206:	fa22 f205 	lsr.w	r2, r2, r5
 800020a:	1880      	adds	r0, r0, r2
 800020c:	f141 0100 	adc.w	r1, r1, #0
 8000210:	fa03 f20e 	lsl.w	r2, r3, lr
 8000214:	1880      	adds	r0, r0, r2
 8000216:	fa43 f305 	asr.w	r3, r3, r5
 800021a:	4159      	adcs	r1, r3
 800021c:	e00e      	b.n	800023c <__adddf3+0xd0>
 800021e:	f1a5 0520 	sub.w	r5, r5, #32
 8000222:	f10e 0e20 	add.w	lr, lr, #32
 8000226:	2a01      	cmp	r2, #1
 8000228:	fa03 fc0e 	lsl.w	ip, r3, lr
 800022c:	bf28      	it	cs
 800022e:	f04c 0c02 	orrcs.w	ip, ip, #2
 8000232:	fa43 f305 	asr.w	r3, r3, r5
 8000236:	18c0      	adds	r0, r0, r3
 8000238:	eb51 71e3 	adcs.w	r1, r1, r3, asr #31
 800023c:	f001 4500 	and.w	r5, r1, #2147483648	; 0x80000000
 8000240:	d507      	bpl.n	8000252 <__adddf3+0xe6>
 8000242:	f04f 0e00 	mov.w	lr, #0
 8000246:	f1dc 0c00 	rsbs	ip, ip, #0
 800024a:	eb7e 0000 	sbcs.w	r0, lr, r0
 800024e:	eb6e 0101 	sbc.w	r1, lr, r1
 8000252:	f5b1 1f80 	cmp.w	r1, #1048576	; 0x100000
 8000256:	d31b      	bcc.n	8000290 <__adddf3+0x124>
 8000258:	f5b1 1f00 	cmp.w	r1, #2097152	; 0x200000
 800025c:	d30c      	bcc.n	8000278 <__adddf3+0x10c>
 800025e:	0849      	lsrs	r1, r1, #1
 8000260:	ea5f 0030 	movs.w	r0, r0, rrx
 8000264:	ea4f 0c3c 	mov.w	ip, ip, rrx
 8000268:	f104 0401 	add.w	r4, r4, #1
 800026c:	ea4f 5244 	mov.w	r2, r4, lsl #21
 8000270:	f512 0f80 	cmn.w	r2, #4194304	; 0x400000
 8000274:	f080 809a 	bcs.w	80003ac <__adddf3+0x240>
 8000278:	f1bc 4f00 	cmp.w	ip, #2147483648	; 0x80000000
 800027c:	bf08      	it	eq
 800027e:	ea5f 0c50 	movseq.w	ip, r0, lsr #1
 8000282:	f150 0000 	adcs.w	r0, r0, #0
 8000286:	eb41 5104 	adc.w	r1, r1, r4, lsl #20
 800028a:	ea41 0105 	orr.w	r1, r1, r5
 800028e:	bd30      	pop	{r4, r5, pc}
 8000290:	ea5f 0c4c 	movs.w	ip, ip, lsl #1
 8000294:	4140      	adcs	r0, r0
 8000296:	eb41 0101 	adc.w	r1, r1, r1
 800029a:	3c01      	subs	r4, #1
 800029c:	bf28      	it	cs
 800029e:	f5b1 1f80 	cmpcs.w	r1, #1048576	; 0x100000
 80002a2:	d2e9      	bcs.n	8000278 <__adddf3+0x10c>
 80002a4:	f091 0f00 	teq	r1, #0
 80002a8:	bf04      	itt	eq
 80002aa:	4601      	moveq	r1, r0
 80002ac:	2000      	moveq	r0, #0
 80002ae:	fab1 f381 	clz	r3, r1
 80002b2:	bf08      	it	eq
 80002b4:	3320      	addeq	r3, #32
 80002b6:	f1a3 030b 	sub.w	r3, r3, #11
 80002ba:	f1b3 0220 	subs.w	r2, r3, #32
 80002be:	da0c      	bge.n	80002da <__adddf3+0x16e>
 80002c0:	320c      	adds	r2, #12
 80002c2:	dd08      	ble.n	80002d6 <__adddf3+0x16a>
 80002c4:	f102 0c14 	add.w	ip, r2, #20
 80002c8:	f1c2 020c 	rsb	r2, r2, #12
 80002cc:	fa01 f00c 	lsl.w	r0, r1, ip
 80002d0:	fa21 f102 	lsr.w	r1, r1, r2
 80002d4:	e00c      	b.n	80002f0 <__adddf3+0x184>
 80002d6:	f102 0214 	add.w	r2, r2, #20
 80002da:	bfd8      	it	le
 80002dc:	f1c2 0c20 	rsble	ip, r2, #32
 80002e0:	fa01 f102 	lsl.w	r1, r1, r2
 80002e4:	fa20 fc0c 	lsr.w	ip, r0, ip
 80002e8:	bfdc      	itt	le
 80002ea:	ea41 010c 	orrle.w	r1, r1, ip
 80002ee:	4090      	lslle	r0, r2
 80002f0:	1ae4      	subs	r4, r4, r3
 80002f2:	bfa2      	ittt	ge
 80002f4:	eb01 5104 	addge.w	r1, r1, r4, lsl #20
 80002f8:	4329      	orrge	r1, r5
 80002fa:	bd30      	popge	{r4, r5, pc}
 80002fc:	ea6f 0404 	mvn.w	r4, r4
 8000300:	3c1f      	subs	r4, #31
 8000302:	da1c      	bge.n	800033e <__adddf3+0x1d2>
 8000304:	340c      	adds	r4, #12
 8000306:	dc0e      	bgt.n	8000326 <__adddf3+0x1ba>
 8000308:	f104 0414 	add.w	r4, r4, #20
 800030c:	f1c4 0220 	rsb	r2, r4, #32
 8000310:	fa20 f004 	lsr.w	r0, r0, r4
 8000314:	fa01 f302 	lsl.w	r3, r1, r2
 8000318:	ea40 0003 	orr.w	r0, r0, r3
 800031c:	fa21 f304 	lsr.w	r3, r1, r4
 8000320:	ea45 0103 	orr.w	r1, r5, r3
 8000324:	bd30      	pop	{r4, r5, pc}
 8000326:	f1c4 040c 	rsb	r4, r4, #12
 800032a:	f1c4 0220 	rsb	r2, r4, #32
 800032e:	fa20 f002 	lsr.w	r0, r0, r2
 8000332:	fa01 f304 	lsl.w	r3, r1, r4
 8000336:	ea40 0003 	orr.w	r0, r0, r3
 800033a:	4629      	mov	r1, r5
 800033c:	bd30      	pop	{r4, r5, pc}
 800033e:	fa21 f004 	lsr.w	r0, r1, r4
 8000342:	4629      	mov	r1, r5
 8000344:	bd30      	pop	{r4, r5, pc}
 8000346:	f094 0f00 	teq	r4, #0
 800034a:	f483 1380 	eor.w	r3, r3, #1048576	; 0x100000
 800034e:	bf06      	itte	eq
 8000350:	f481 1180 	eoreq.w	r1, r1, #1048576	; 0x100000
 8000354:	3401      	addeq	r4, #1
 8000356:	3d01      	subne	r5, #1
 8000358:	e74e      	b.n	80001f8 <__adddf3+0x8c>
 800035a:	ea7f 5c64 	mvns.w	ip, r4, asr #21
 800035e:	bf18      	it	ne
 8000360:	ea7f 5c65 	mvnsne.w	ip, r5, asr #21
 8000364:	d029      	beq.n	80003ba <__adddf3+0x24e>
 8000366:	ea94 0f05 	teq	r4, r5
 800036a:	bf08      	it	eq
 800036c:	ea90 0f02 	teqeq	r0, r2
 8000370:	d005      	beq.n	800037e <__adddf3+0x212>
 8000372:	ea54 0c00 	orrs.w	ip, r4, r0
 8000376:	bf04      	itt	eq
 8000378:	4619      	moveq	r1, r3
 800037a:	4610      	moveq	r0, r2
 800037c:	bd30      	pop	{r4, r5, pc}
 800037e:	ea91 0f03 	teq	r1, r3
 8000382:	bf1e      	ittt	ne
 8000384:	2100      	movne	r1, #0
 8000386:	2000      	movne	r0, #0
 8000388:	bd30      	popne	{r4, r5, pc}
 800038a:	ea5f 5c54 	movs.w	ip, r4, lsr #21
 800038e:	d105      	bne.n	800039c <__adddf3+0x230>
 8000390:	0040      	lsls	r0, r0, #1
 8000392:	4149      	adcs	r1, r1
 8000394:	bf28      	it	cs
 8000396:	f041 4100 	orrcs.w	r1, r1, #2147483648	; 0x80000000
 800039a:	bd30      	pop	{r4, r5, pc}
 800039c:	f514 0480 	adds.w	r4, r4, #4194304	; 0x400000
 80003a0:	bf3c      	itt	cc
 80003a2:	f501 1180 	addcc.w	r1, r1, #1048576	; 0x100000
 80003a6:	bd30      	popcc	{r4, r5, pc}
 80003a8:	f001 4500 	and.w	r5, r1, #2147483648	; 0x80000000
 80003ac:	f045 41fe 	orr.w	r1, r5, #2130706432	; 0x7f000000
 80003b0:	f441 0170 	orr.w	r1, r1, #15728640	; 0xf00000
 80003b4:	f04f 0000 	mov.w	r0, #0
 80003b8:	bd30      	pop	{r4, r5, pc}
 80003ba:	ea7f 5c64 	mvns.w	ip, r4, asr #21
 80003be:	bf1a      	itte	ne
 80003c0:	4619      	movne	r1, r3
 80003c2:	4610      	movne	r0, r2
 80003c4:	ea7f 5c65 	mvnseq.w	ip, r5, asr #21
 80003c8:	bf1c      	itt	ne
 80003ca:	460b      	movne	r3, r1
 80003cc:	4602      	movne	r2, r0
 80003ce:	ea50 3401 	orrs.w	r4, r0, r1, lsl #12
 80003d2:	bf06      	itte	eq
 80003d4:	ea52 3503 	orrseq.w	r5, r2, r3, lsl #12
 80003d8:	ea91 0f03 	teqeq	r1, r3
 80003dc:	f441 2100 	orrne.w	r1, r1, #524288	; 0x80000
 80003e0:	bd30      	pop	{r4, r5, pc}
 80003e2:	bf00      	nop

080003e4 <__aeabi_ui2d>:
 80003e4:	f090 0f00 	teq	r0, #0
 80003e8:	bf04      	itt	eq
 80003ea:	2100      	moveq	r1, #0
 80003ec:	4770      	bxeq	lr
 80003ee:	b530      	push	{r4, r5, lr}
 80003f0:	f44f 6480 	mov.w	r4, #1024	; 0x400
 80003f4:	f104 0432 	add.w	r4, r4, #50	; 0x32
 80003f8:	f04f 0500 	mov.w	r5, #0
 80003fc:	f04f 0100 	mov.w	r1, #0
 8000400:	e750      	b.n	80002a4 <__adddf3+0x138>
 8000402:	bf00      	nop

08000404 <__aeabi_i2d>:
 8000404:	f090 0f00 	teq	r0, #0
 8000408:	bf04      	itt	eq
 800040a:	2100      	moveq	r1, #0
 800040c:	4770      	bxeq	lr
 800040e:	b530      	push	{r4, r5, lr}
 8000410:	f44f 6480 	mov.w	r4, #1024	; 0x400
 8000414:	f104 0432 	add.w	r4, r4, #50	; 0x32
 8000418:	f010 4500 	ands.w	r5, r0, #2147483648	; 0x80000000
 800041c:	bf48      	it	mi
 800041e:	4240      	negmi	r0, r0
 8000420:	f04f 0100 	mov.w	r1, #0
 8000424:	e73e      	b.n	80002a4 <__adddf3+0x138>
 8000426:	bf00      	nop

08000428 <__aeabi_f2d>:
 8000428:	0042      	lsls	r2, r0, #1
 800042a:	ea4f 01e2 	mov.w	r1, r2, asr #3
 800042e:	ea4f 0131 	mov.w	r1, r1, rrx
 8000432:	ea4f 7002 	mov.w	r0, r2, lsl #28
 8000436:	bf1f      	itttt	ne
 8000438:	f012 437f 	andsne.w	r3, r2, #4278190080	; 0xff000000
 800043c:	f093 4f7f 	teqne	r3, #4278190080	; 0xff000000
 8000440:	f081 5160 	eorne.w	r1, r1, #939524096	; 0x38000000
 8000444:	4770      	bxne	lr
 8000446:	f032 427f 	bics.w	r2, r2, #4278190080	; 0xff000000
 800044a:	bf08      	it	eq
 800044c:	4770      	bxeq	lr
 800044e:	f093 4f7f 	teq	r3, #4278190080	; 0xff000000
 8000452:	bf04      	itt	eq
 8000454:	f441 2100 	orreq.w	r1, r1, #524288	; 0x80000
 8000458:	4770      	bxeq	lr
 800045a:	b530      	push	{r4, r5, lr}
 800045c:	f44f 7460 	mov.w	r4, #896	; 0x380
 8000460:	f001 4500 	and.w	r5, r1, #2147483648	; 0x80000000
 8000464:	f021 4100 	bic.w	r1, r1, #2147483648	; 0x80000000
 8000468:	e71c      	b.n	80002a4 <__adddf3+0x138>
 800046a:	bf00      	nop

0800046c <__aeabi_ul2d>:
 800046c:	ea50 0201 	orrs.w	r2, r0, r1
 8000470:	bf08      	it	eq
 8000472:	4770      	bxeq	lr
 8000474:	b530      	push	{r4, r5, lr}
 8000476:	f04f 0500 	mov.w	r5, #0
 800047a:	e00a      	b.n	8000492 <__aeabi_l2d+0x16>

0800047c <__aeabi_l2d>:
 800047c:	ea50 0201 	orrs.w	r2, r0, r1
 8000480:	bf08      	it	eq
 8000482:	4770      	bxeq	lr
 8000484:	b530      	push	{r4, r5, lr}
 8000486:	f011 4500 	ands.w	r5, r1, #2147483648	; 0x80000000
 800048a:	d502      	bpl.n	8000492 <__aeabi_l2d+0x16>
 800048c:	4240      	negs	r0, r0
 800048e:	eb61 0141 	sbc.w	r1, r1, r1, lsl #1
 8000492:	f44f 6480 	mov.w	r4, #1024	; 0x400
 8000496:	f104 0432 	add.w	r4, r4, #50	; 0x32
 800049a:	ea5f 5c91 	movs.w	ip, r1, lsr #22
 800049e:	f43f aed8 	beq.w	8000252 <__adddf3+0xe6>
 80004a2:	f04f 0203 	mov.w	r2, #3
 80004a6:	ea5f 0cdc 	movs.w	ip, ip, lsr #3
 80004aa:	bf18      	it	ne
 80004ac:	3203      	addne	r2, #3
 80004ae:	ea5f 0cdc 	movs.w	ip, ip, lsr #3
 80004b2:	bf18      	it	ne
 80004b4:	3203      	addne	r2, #3
 80004b6:	eb02 02dc 	add.w	r2, r2, ip, lsr #3
 80004ba:	f1c2 0320 	rsb	r3, r2, #32
 80004be:	fa00 fc03 	lsl.w	ip, r0, r3
 80004c2:	fa20 f002 	lsr.w	r0, r0, r2
 80004c6:	fa01 fe03 	lsl.w	lr, r1, r3
 80004ca:	ea40 000e 	orr.w	r0, r0, lr
 80004ce:	fa21 f102 	lsr.w	r1, r1, r2
 80004d2:	4414      	add	r4, r2
 80004d4:	e6bd      	b.n	8000252 <__adddf3+0xe6>
 80004d6:	bf00      	nop

080004d8 <__aeabi_dmul>:
 80004d8:	b570      	push	{r4, r5, r6, lr}
 80004da:	f04f 0cff 	mov.w	ip, #255	; 0xff
 80004de:	f44c 6ce0 	orr.w	ip, ip, #1792	; 0x700
 80004e2:	ea1c 5411 	ands.w	r4, ip, r1, lsr #20
 80004e6:	bf1d      	ittte	ne
 80004e8:	ea1c 5513 	andsne.w	r5, ip, r3, lsr #20
 80004ec:	ea94 0f0c 	teqne	r4, ip
 80004f0:	ea95 0f0c 	teqne	r5, ip
 80004f4:	f000 f8de 	bleq	80006b4 <__aeabi_dmul+0x1dc>
 80004f8:	442c      	add	r4, r5
 80004fa:	ea81 0603 	eor.w	r6, r1, r3
 80004fe:	ea21 514c 	bic.w	r1, r1, ip, lsl #21
 8000502:	ea23 534c 	bic.w	r3, r3, ip, lsl #21
 8000506:	ea50 3501 	orrs.w	r5, r0, r1, lsl #12
 800050a:	bf18      	it	ne
 800050c:	ea52 3503 	orrsne.w	r5, r2, r3, lsl #12
 8000510:	f441 1180 	orr.w	r1, r1, #1048576	; 0x100000
 8000514:	f443 1380 	orr.w	r3, r3, #1048576	; 0x100000
 8000518:	d038      	beq.n	800058c <__aeabi_dmul+0xb4>
 800051a:	fba0 ce02 	umull	ip, lr, r0, r2
 800051e:	f04f 0500 	mov.w	r5, #0
 8000522:	fbe1 e502 	umlal	lr, r5, r1, r2
 8000526:	f006 4200 	and.w	r2, r6, #2147483648	; 0x80000000
 800052a:	fbe0 e503 	umlal	lr, r5, r0, r3
 800052e:	f04f 0600 	mov.w	r6, #0
 8000532:	fbe1 5603 	umlal	r5, r6, r1, r3
 8000536:	f09c 0f00 	teq	ip, #0
 800053a:	bf18      	it	ne
 800053c:	f04e 0e01 	orrne.w	lr, lr, #1
 8000540:	f1a4 04ff 	sub.w	r4, r4, #255	; 0xff
 8000544:	f5b6 7f00 	cmp.w	r6, #512	; 0x200
 8000548:	f564 7440 	sbc.w	r4, r4, #768	; 0x300
 800054c:	d204      	bcs.n	8000558 <__aeabi_dmul+0x80>
 800054e:	ea5f 0e4e 	movs.w	lr, lr, lsl #1
 8000552:	416d      	adcs	r5, r5
 8000554:	eb46 0606 	adc.w	r6, r6, r6
 8000558:	ea42 21c6 	orr.w	r1, r2, r6, lsl #11
 800055c:	ea41 5155 	orr.w	r1, r1, r5, lsr #21
 8000560:	ea4f 20c5 	mov.w	r0, r5, lsl #11
 8000564:	ea40 505e 	orr.w	r0, r0, lr, lsr #21
 8000568:	ea4f 2ece 	mov.w	lr, lr, lsl #11
 800056c:	f1b4 0cfd 	subs.w	ip, r4, #253	; 0xfd
 8000570:	bf88      	it	hi
 8000572:	f5bc 6fe0 	cmphi.w	ip, #1792	; 0x700
 8000576:	d81e      	bhi.n	80005b6 <__aeabi_dmul+0xde>
 8000578:	f1be 4f00 	cmp.w	lr, #2147483648	; 0x80000000
 800057c:	bf08      	it	eq
 800057e:	ea5f 0e50 	movseq.w	lr, r0, lsr #1
 8000582:	f150 0000 	adcs.w	r0, r0, #0
 8000586:	eb41 5104 	adc.w	r1, r1, r4, lsl #20
 800058a:	bd70      	pop	{r4, r5, r6, pc}
 800058c:	f006 4600 	and.w	r6, r6, #2147483648	; 0x80000000
 8000590:	ea46 0101 	orr.w	r1, r6, r1
 8000594:	ea40 0002 	orr.w	r0, r0, r2
 8000598:	ea81 0103 	eor.w	r1, r1, r3
 800059c:	ebb4 045c 	subs.w	r4, r4, ip, lsr #1
 80005a0:	bfc2      	ittt	gt
 80005a2:	ebd4 050c 	rsbsgt	r5, r4, ip
 80005a6:	ea41 5104 	orrgt.w	r1, r1, r4, lsl #20
 80005aa:	bd70      	popgt	{r4, r5, r6, pc}
 80005ac:	f441 1180 	orr.w	r1, r1, #1048576	; 0x100000
 80005b0:	f04f 0e00 	mov.w	lr, #0
 80005b4:	3c01      	subs	r4, #1
 80005b6:	f300 80ab 	bgt.w	8000710 <__aeabi_dmul+0x238>
 80005ba:	f114 0f36 	cmn.w	r4, #54	; 0x36
 80005be:	bfde      	ittt	le
 80005c0:	2000      	movle	r0, #0
 80005c2:	f001 4100 	andle.w	r1, r1, #2147483648	; 0x80000000
 80005c6:	bd70      	pople	{r4, r5, r6, pc}
 80005c8:	f1c4 0400 	rsb	r4, r4, #0
 80005cc:	3c20      	subs	r4, #32
 80005ce:	da35      	bge.n	800063c <__aeabi_dmul+0x164>
 80005d0:	340c      	adds	r4, #12
 80005d2:	dc1b      	bgt.n	800060c <__aeabi_dmul+0x134>
 80005d4:	f104 0414 	add.w	r4, r4, #20
 80005d8:	f1c4 0520 	rsb	r5, r4, #32
 80005dc:	fa00 f305 	lsl.w	r3, r0, r5
 80005e0:	fa20 f004 	lsr.w	r0, r0, r4
 80005e4:	fa01 f205 	lsl.w	r2, r1, r5
 80005e8:	ea40 0002 	orr.w	r0, r0, r2
 80005ec:	f001 4200 	and.w	r2, r1, #2147483648	; 0x80000000
 80005f0:	f021 4100 	bic.w	r1, r1, #2147483648	; 0x80000000
 80005f4:	eb10 70d3 	adds.w	r0, r0, r3, lsr #31
 80005f8:	fa21 f604 	lsr.w	r6, r1, r4
 80005fc:	eb42 0106 	adc.w	r1, r2, r6
 8000600:	ea5e 0e43 	orrs.w	lr, lr, r3, lsl #1
 8000604:	bf08      	it	eq
 8000606:	ea20 70d3 	biceq.w	r0, r0, r3, lsr #31
 800060a:	bd70      	pop	{r4, r5, r6, pc}
 800060c:	f1c4 040c 	rsb	r4, r4, #12
 8000610:	f1c4 0520 	rsb	r5, r4, #32
 8000614:	fa00 f304 	lsl.w	r3, r0, r4
 8000618:	fa20 f005 	lsr.w	r0, r0, r5
 800061c:	fa01 f204 	lsl.w	r2, r1, r4
 8000620:	ea40 0002 	orr.w	r0, r0, r2
 8000624:	f001 4100 	and.w	r1, r1, #2147483648	; 0x80000000
 8000628:	eb10 70d3 	adds.w	r0, r0, r3, lsr #31
 800062c:	f141 0100 	adc.w	r1, r1, #0
 8000630:	ea5e 0e43 	orrs.w	lr, lr, r3, lsl #1
 8000634:	bf08      	it	eq
 8000636:	ea20 70d3 	biceq.w	r0, r0, r3, lsr #31
 800063a:	bd70      	pop	{r4, r5, r6, pc}
 800063c:	f1c4 0520 	rsb	r5, r4, #32
 8000640:	fa00 f205 	lsl.w	r2, r0, r5
 8000644:	ea4e 0e02 	orr.w	lr, lr, r2
 8000648:	fa20 f304 	lsr.w	r3, r0, r4
 800064c:	fa01 f205 	lsl.w	r2, r1, r5
 8000650:	ea43 0302 	orr.w	r3, r3, r2
 8000654:	fa21 f004 	lsr.w	r0, r1, r4
 8000658:	f001 4100 	and.w	r1, r1, #2147483648	; 0x80000000
 800065c:	fa21 f204 	lsr.w	r2, r1, r4
 8000660:	ea20 0002 	bic.w	r0, r0, r2
 8000664:	eb00 70d3 	add.w	r0, r0, r3, lsr #31
 8000668:	ea5e 0e43 	orrs.w	lr, lr, r3, lsl #1
 800066c:	bf08      	it	eq
 800066e:	ea20 70d3 	biceq.w	r0, r0, r3, lsr #31
 8000672:	bd70      	pop	{r4, r5, r6, pc}
 8000674:	f094 0f00 	teq	r4, #0
 8000678:	d10f      	bne.n	800069a <__aeabi_dmul+0x1c2>
 800067a:	f001 4600 	and.w	r6, r1, #2147483648	; 0x80000000
 800067e:	0040      	lsls	r0, r0, #1
 8000680:	eb41 0101 	adc.w	r1, r1, r1
 8000684:	f411 1f80 	tst.w	r1, #1048576	; 0x100000
 8000688:	bf08      	it	eq
 800068a:	3c01      	subeq	r4, #1
 800068c:	d0f7      	beq.n	800067e <__aeabi_dmul+0x1a6>
 800068e:	ea41 0106 	orr.w	r1, r1, r6
 8000692:	f095 0f00 	teq	r5, #0
 8000696:	bf18      	it	ne
 8000698:	4770      	bxne	lr
 800069a:	f003 4600 	and.w	r6, r3, #2147483648	; 0x80000000
 800069e:	0052      	lsls	r2, r2, #1
 80006a0:	eb43 0303 	adc.w	r3, r3, r3
 80006a4:	f413 1f80 	tst.w	r3, #1048576	; 0x100000
 80006a8:	bf08      	it	eq
 80006aa:	3d01      	subeq	r5, #1
 80006ac:	d0f7      	beq.n	800069e <__aeabi_dmul+0x1c6>
 80006ae:	ea43 0306 	orr.w	r3, r3, r6
 80006b2:	4770      	bx	lr
 80006b4:	ea94 0f0c 	teq	r4, ip
 80006b8:	ea0c 5513 	and.w	r5, ip, r3, lsr #20
 80006bc:	bf18      	it	ne
 80006be:	ea95 0f0c 	teqne	r5, ip
 80006c2:	d00c      	beq.n	80006de <__aeabi_dmul+0x206>
 80006c4:	ea50 0641 	orrs.w	r6, r0, r1, lsl #1
 80006c8:	bf18      	it	ne
 80006ca:	ea52 0643 	orrsne.w	r6, r2, r3, lsl #1
 80006ce:	d1d1      	bne.n	8000674 <__aeabi_dmul+0x19c>
 80006d0:	ea81 0103 	eor.w	r1, r1, r3
 80006d4:	f001 4100 	and.w	r1, r1, #2147483648	; 0x80000000
 80006d8:	f04f 0000 	mov.w	r0, #0
 80006dc:	bd70      	pop	{r4, r5, r6, pc}
 80006de:	ea50 0641 	orrs.w	r6, r0, r1, lsl #1
 80006e2:	bf06      	itte	eq
 80006e4:	4610      	moveq	r0, r2
 80006e6:	4619      	moveq	r1, r3
 80006e8:	ea52 0643 	orrsne.w	r6, r2, r3, lsl #1
 80006ec:	d019      	beq.n	8000722 <__aeabi_dmul+0x24a>
 80006ee:	ea94 0f0c 	teq	r4, ip
 80006f2:	d102      	bne.n	80006fa <__aeabi_dmul+0x222>
 80006f4:	ea50 3601 	orrs.w	r6, r0, r1, lsl #12
 80006f8:	d113      	bne.n	8000722 <__aeabi_dmul+0x24a>
 80006fa:	ea95 0f0c 	teq	r5, ip
 80006fe:	d105      	bne.n	800070c <__aeabi_dmul+0x234>
 8000700:	ea52 3603 	orrs.w	r6, r2, r3, lsl #12
 8000704:	bf1c      	itt	ne
 8000706:	4610      	movne	r0, r2
 8000708:	4619      	movne	r1, r3
 800070a:	d10a      	bne.n	8000722 <__aeabi_dmul+0x24a>
 800070c:	ea81 0103 	eor.w	r1, r1, r3
 8000710:	f001 4100 	and.w	r1, r1, #2147483648	; 0x80000000
 8000714:	f041 41fe 	orr.w	r1, r1, #2130706432	; 0x7f000000
 8000718:	f441 0170 	orr.w	r1, r1, #15728640	; 0xf00000
 800071c:	f04f 0000 	mov.w	r0, #0
 8000720:	bd70      	pop	{r4, r5, r6, pc}
 8000722:	f041 41fe 	orr.w	r1, r1, #2130706432	; 0x7f000000
 8000726:	f441 0178 	orr.w	r1, r1, #16252928	; 0xf80000
 800072a:	bd70      	pop	{r4, r5, r6, pc}

0800072c <__aeabi_ddiv>:
 800072c:	b570      	push	{r4, r5, r6, lr}
 800072e:	f04f 0cff 	mov.w	ip, #255	; 0xff
 8000732:	f44c 6ce0 	orr.w	ip, ip, #1792	; 0x700
 8000736:	ea1c 5411 	ands.w	r4, ip, r1, lsr #20
 800073a:	bf1d      	ittte	ne
 800073c:	ea1c 5513 	andsne.w	r5, ip, r3, lsr #20
 8000740:	ea94 0f0c 	teqne	r4, ip
 8000744:	ea95 0f0c 	teqne	r5, ip
 8000748:	f000 f8a7 	bleq	800089a <__aeabi_ddiv+0x16e>
 800074c:	eba4 0405 	sub.w	r4, r4, r5
 8000750:	ea81 0e03 	eor.w	lr, r1, r3
 8000754:	ea52 3503 	orrs.w	r5, r2, r3, lsl #12
 8000758:	ea4f 3101 	mov.w	r1, r1, lsl #12
 800075c:	f000 8088 	beq.w	8000870 <__aeabi_ddiv+0x144>
 8000760:	ea4f 3303 	mov.w	r3, r3, lsl #12
 8000764:	f04f 5580 	mov.w	r5, #268435456	; 0x10000000
 8000768:	ea45 1313 	orr.w	r3, r5, r3, lsr #4
 800076c:	ea43 6312 	orr.w	r3, r3, r2, lsr #24
 8000770:	ea4f 2202 	mov.w	r2, r2, lsl #8
 8000774:	ea45 1511 	orr.w	r5, r5, r1, lsr #4
 8000778:	ea45 6510 	orr.w	r5, r5, r0, lsr #24
 800077c:	ea4f 2600 	mov.w	r6, r0, lsl #8
 8000780:	f00e 4100 	and.w	r1, lr, #2147483648	; 0x80000000
 8000784:	429d      	cmp	r5, r3
 8000786:	bf08      	it	eq
 8000788:	4296      	cmpeq	r6, r2
 800078a:	f144 04fd 	adc.w	r4, r4, #253	; 0xfd
 800078e:	f504 7440 	add.w	r4, r4, #768	; 0x300
 8000792:	d202      	bcs.n	800079a <__aeabi_ddiv+0x6e>
 8000794:	085b      	lsrs	r3, r3, #1
 8000796:	ea4f 0232 	mov.w	r2, r2, rrx
 800079a:	1ab6      	subs	r6, r6, r2
 800079c:	eb65 0503 	sbc.w	r5, r5, r3
 80007a0:	085b      	lsrs	r3, r3, #1
 80007a2:	ea4f 0232 	mov.w	r2, r2, rrx
 80007a6:	f44f 1080 	mov.w	r0, #1048576	; 0x100000
 80007aa:	f44f 2c00 	mov.w	ip, #524288	; 0x80000
 80007ae:	ebb6 0e02 	subs.w	lr, r6, r2
 80007b2:	eb75 0e03 	sbcs.w	lr, r5, r3
 80007b6:	bf22      	ittt	cs
 80007b8:	1ab6      	subcs	r6, r6, r2
 80007ba:	4675      	movcs	r5, lr
 80007bc:	ea40 000c 	orrcs.w	r0, r0, ip
 80007c0:	085b      	lsrs	r3, r3, #1
 80007c2:	ea4f 0232 	mov.w	r2, r2, rrx
 80007c6:	ebb6 0e02 	subs.w	lr, r6, r2
 80007ca:	eb75 0e03 	sbcs.w	lr, r5, r3
 80007ce:	bf22      	ittt	cs
 80007d0:	1ab6      	subcs	r6, r6, r2
 80007d2:	4675      	movcs	r5, lr
 80007d4:	ea40 005c 	orrcs.w	r0, r0, ip, lsr #1
 80007d8:	085b      	lsrs	r3, r3, #1
 80007da:	ea4f 0232 	mov.w	r2, r2, rrx
 80007de:	ebb6 0e02 	subs.w	lr, r6, r2
 80007e2:	eb75 0e03 	sbcs.w	lr, r5, r3
 80007e6:	bf22      	ittt	cs
 80007e8:	1ab6      	subcs	r6, r6, r2
 80007ea:	4675      	movcs	r5, lr
 80007ec:	ea40 009c 	orrcs.w	r0, r0, ip, lsr #2
 80007f0:	085b      	lsrs	r3, r3, #1
 80007f2:	ea4f 0232 	mov.w	r2, r2, rrx
 80007f6:	ebb6 0e02 	subs.w	lr, r6, r2
 80007fa:	eb75 0e03 	sbcs.w	lr, r5, r3
 80007fe:	bf22      	ittt	cs
 8000800:	1ab6      	subcs	r6, r6, r2
 8000802:	4675      	movcs	r5, lr
 8000804:	ea40 00dc 	orrcs.w	r0, r0, ip, lsr #3
 8000808:	ea55 0e06 	orrs.w	lr, r5, r6
 800080c:	d018      	beq.n	8000840 <__aeabi_ddiv+0x114>
 800080e:	ea4f 1505 	mov.w	r5, r5, lsl #4
 8000812:	ea45 7516 	orr.w	r5, r5, r6, lsr #28
 8000816:	ea4f 1606 	mov.w	r6, r6, lsl #4
 800081a:	ea4f 03c3 	mov.w	r3, r3, lsl #3
 800081e:	ea43 7352 	orr.w	r3, r3, r2, lsr #29
 8000822:	ea4f 02c2 	mov.w	r2, r2, lsl #3
 8000826:	ea5f 1c1c 	movs.w	ip, ip, lsr #4
 800082a:	d1c0      	bne.n	80007ae <__aeabi_ddiv+0x82>
 800082c:	f411 1f80 	tst.w	r1, #1048576	; 0x100000
 8000830:	d10b      	bne.n	800084a <__aeabi_ddiv+0x11e>
 8000832:	ea41 0100 	orr.w	r1, r1, r0
 8000836:	f04f 0000 	mov.w	r0, #0
 800083a:	f04f 4c00 	mov.w	ip, #2147483648	; 0x80000000
 800083e:	e7b6      	b.n	80007ae <__aeabi_ddiv+0x82>
 8000840:	f411 1f80 	tst.w	r1, #1048576	; 0x100000
 8000844:	bf04      	itt	eq
 8000846:	4301      	orreq	r1, r0
 8000848:	2000      	moveq	r0, #0
 800084a:	f1b4 0cfd 	subs.w	ip, r4, #253	; 0xfd
 800084e:	bf88      	it	hi
 8000850:	f5bc 6fe0 	cmphi.w	ip, #1792	; 0x700
 8000854:	f63f aeaf 	bhi.w	80005b6 <__aeabi_dmul+0xde>
 8000858:	ebb5 0c03 	subs.w	ip, r5, r3
 800085c:	bf04      	itt	eq
 800085e:	ebb6 0c02 	subseq.w	ip, r6, r2
 8000862:	ea5f 0c50 	movseq.w	ip, r0, lsr #1
 8000866:	f150 0000 	adcs.w	r0, r0, #0
 800086a:	eb41 5104 	adc.w	r1, r1, r4, lsl #20
 800086e:	bd70      	pop	{r4, r5, r6, pc}
 8000870:	f00e 4e00 	and.w	lr, lr, #2147483648	; 0x80000000
 8000874:	ea4e 3111 	orr.w	r1, lr, r1, lsr #12
 8000878:	eb14 045c 	adds.w	r4, r4, ip, lsr #1
 800087c:	bfc2      	ittt	gt
 800087e:	ebd4 050c 	rsbsgt	r5, r4, ip
 8000882:	ea41 5104 	orrgt.w	r1, r1, r4, lsl #20
 8000886:	bd70      	popgt	{r4, r5, r6, pc}
 8000888:	f441 1180 	orr.w	r1, r1, #1048576	; 0x100000
 800088c:	f04f 0e00 	mov.w	lr, #0
 8000890:	3c01      	subs	r4, #1
 8000892:	e690      	b.n	80005b6 <__aeabi_dmul+0xde>
 8000894:	ea45 0e06 	orr.w	lr, r5, r6
 8000898:	e68d      	b.n	80005b6 <__aeabi_dmul+0xde>
 800089a:	ea0c 5513 	and.w	r5, ip, r3, lsr #20
 800089e:	ea94 0f0c 	teq	r4, ip
 80008a2:	bf08      	it	eq
 80008a4:	ea95 0f0c 	teqeq	r5, ip
 80008a8:	f43f af3b 	beq.w	8000722 <__aeabi_dmul+0x24a>
 80008ac:	ea94 0f0c 	teq	r4, ip
 80008b0:	d10a      	bne.n	80008c8 <__aeabi_ddiv+0x19c>
 80008b2:	ea50 3401 	orrs.w	r4, r0, r1, lsl #12
 80008b6:	f47f af34 	bne.w	8000722 <__aeabi_dmul+0x24a>
 80008ba:	ea95 0f0c 	teq	r5, ip
 80008be:	f47f af25 	bne.w	800070c <__aeabi_dmul+0x234>
 80008c2:	4610      	mov	r0, r2
 80008c4:	4619      	mov	r1, r3
 80008c6:	e72c      	b.n	8000722 <__aeabi_dmul+0x24a>
 80008c8:	ea95 0f0c 	teq	r5, ip
 80008cc:	d106      	bne.n	80008dc <__aeabi_ddiv+0x1b0>
 80008ce:	ea52 3503 	orrs.w	r5, r2, r3, lsl #12
 80008d2:	f43f aefd 	beq.w	80006d0 <__aeabi_dmul+0x1f8>
 80008d6:	4610      	mov	r0, r2
 80008d8:	4619      	mov	r1, r3
 80008da:	e722      	b.n	8000722 <__aeabi_dmul+0x24a>
 80008dc:	ea50 0641 	orrs.w	r6, r0, r1, lsl #1
 80008e0:	bf18      	it	ne
 80008e2:	ea52 0643 	orrsne.w	r6, r2, r3, lsl #1
 80008e6:	f47f aec5 	bne.w	8000674 <__aeabi_dmul+0x19c>
 80008ea:	ea50 0441 	orrs.w	r4, r0, r1, lsl #1
 80008ee:	f47f af0d 	bne.w	800070c <__aeabi_dmul+0x234>
 80008f2:	ea52 0543 	orrs.w	r5, r2, r3, lsl #1
 80008f6:	f47f aeeb 	bne.w	80006d0 <__aeabi_dmul+0x1f8>
 80008fa:	e712      	b.n	8000722 <__aeabi_dmul+0x24a>

080008fc <__gedf2>:
 80008fc:	f04f 3cff 	mov.w	ip, #4294967295
 8000900:	e006      	b.n	8000910 <__cmpdf2+0x4>
 8000902:	bf00      	nop

08000904 <__ledf2>:
 8000904:	f04f 0c01 	mov.w	ip, #1
 8000908:	e002      	b.n	8000910 <__cmpdf2+0x4>
 800090a:	bf00      	nop

0800090c <__cmpdf2>:
 800090c:	f04f 0c01 	mov.w	ip, #1
 8000910:	f84d cd04 	str.w	ip, [sp, #-4]!
 8000914:	ea4f 0c41 	mov.w	ip, r1, lsl #1
 8000918:	ea7f 5c6c 	mvns.w	ip, ip, asr #21
 800091c:	ea4f 0c43 	mov.w	ip, r3, lsl #1
 8000920:	bf18      	it	ne
 8000922:	ea7f 5c6c 	mvnsne.w	ip, ip, asr #21
 8000926:	d01b      	beq.n	8000960 <__cmpdf2+0x54>
 8000928:	b001      	add	sp, #4
 800092a:	ea50 0c41 	orrs.w	ip, r0, r1, lsl #1
 800092e:	bf0c      	ite	eq
 8000930:	ea52 0c43 	orrseq.w	ip, r2, r3, lsl #1
 8000934:	ea91 0f03 	teqne	r1, r3
 8000938:	bf02      	ittt	eq
 800093a:	ea90 0f02 	teqeq	r0, r2
 800093e:	2000      	moveq	r0, #0
 8000940:	4770      	bxeq	lr
 8000942:	f110 0f00 	cmn.w	r0, #0
 8000946:	ea91 0f03 	teq	r1, r3
 800094a:	bf58      	it	pl
 800094c:	4299      	cmppl	r1, r3
 800094e:	bf08      	it	eq
 8000950:	4290      	cmpeq	r0, r2
 8000952:	bf2c      	ite	cs
 8000954:	17d8      	asrcs	r0, r3, #31
 8000956:	ea6f 70e3 	mvncc.w	r0, r3, asr #31
 800095a:	f040 0001 	orr.w	r0, r0, #1
 800095e:	4770      	bx	lr
 8000960:	ea4f 0c41 	mov.w	ip, r1, lsl #1
 8000964:	ea7f 5c6c 	mvns.w	ip, ip, asr #21
 8000968:	d102      	bne.n	8000970 <__cmpdf2+0x64>
 800096a:	ea50 3c01 	orrs.w	ip, r0, r1, lsl #12
 800096e:	d107      	bne.n	8000980 <__cmpdf2+0x74>
 8000970:	ea4f 0c43 	mov.w	ip, r3, lsl #1
 8000974:	ea7f 5c6c 	mvns.w	ip, ip, asr #21
 8000978:	d1d6      	bne.n	8000928 <__cmpdf2+0x1c>
 800097a:	ea52 3c03 	orrs.w	ip, r2, r3, lsl #12
 800097e:	d0d3      	beq.n	8000928 <__cmpdf2+0x1c>
 8000980:	f85d 0b04 	ldr.w	r0, [sp], #4
 8000984:	4770      	bx	lr
 8000986:	bf00      	nop

08000988 <__aeabi_cdrcmple>:
 8000988:	4684      	mov	ip, r0
 800098a:	4610      	mov	r0, r2
 800098c:	4662      	mov	r2, ip
 800098e:	468c      	mov	ip, r1
 8000990:	4619      	mov	r1, r3
 8000992:	4663      	mov	r3, ip
 8000994:	e000      	b.n	8000998 <__aeabi_cdcmpeq>
 8000996:	bf00      	nop

08000998 <__aeabi_cdcmpeq>:
 8000998:	b501      	push	{r0, lr}
 800099a:	f7ff ffb7 	bl	800090c <__cmpdf2>
 800099e:	2800      	cmp	r0, #0
 80009a0:	bf48      	it	mi
 80009a2:	f110 0f00 	cmnmi.w	r0, #0
 80009a6:	bd01      	pop	{r0, pc}

080009a8 <__aeabi_dcmpeq>:
 80009a8:	f84d ed08 	str.w	lr, [sp, #-8]!
 80009ac:	f7ff fff4 	bl	8000998 <__aeabi_cdcmpeq>
 80009b0:	bf0c      	ite	eq
 80009b2:	2001      	moveq	r0, #1
 80009b4:	2000      	movne	r0, #0
 80009b6:	f85d fb08 	ldr.w	pc, [sp], #8
 80009ba:	bf00      	nop

080009bc <__aeabi_dcmplt>:
 80009bc:	f84d ed08 	str.w	lr, [sp, #-8]!
 80009c0:	f7ff ffea 	bl	8000998 <__aeabi_cdcmpeq>
 80009c4:	bf34      	ite	cc
 80009c6:	2001      	movcc	r0, #1
 80009c8:	2000      	movcs	r0, #0
 80009ca:	f85d fb08 	ldr.w	pc, [sp], #8
 80009ce:	bf00      	nop

080009d0 <__aeabi_dcmple>:
 80009d0:	f84d ed08 	str.w	lr, [sp, #-8]!
 80009d4:	f7ff ffe0 	bl	8000998 <__aeabi_cdcmpeq>
 80009d8:	bf94      	ite	ls
 80009da:	2001      	movls	r0, #1
 80009dc:	2000      	movhi	r0, #0
 80009de:	f85d fb08 	ldr.w	pc, [sp], #8
 80009e2:	bf00      	nop

080009e4 <__aeabi_dcmpge>:
 80009e4:	f84d ed08 	str.w	lr, [sp, #-8]!
 80009e8:	f7ff ffce 	bl	8000988 <__aeabi_cdrcmple>
 80009ec:	bf94      	ite	ls
 80009ee:	2001      	movls	r0, #1
 80009f0:	2000      	movhi	r0, #0
 80009f2:	f85d fb08 	ldr.w	pc, [sp], #8
 80009f6:	bf00      	nop

080009f8 <__aeabi_dcmpgt>:
 80009f8:	f84d ed08 	str.w	lr, [sp, #-8]!
 80009fc:	f7ff ffc4 	bl	8000988 <__aeabi_cdrcmple>
 8000a00:	bf34      	ite	cc
 8000a02:	2001      	movcc	r0, #1
 8000a04:	2000      	movcs	r0, #0
 8000a06:	f85d fb08 	ldr.w	pc, [sp], #8
 8000a0a:	bf00      	nop

08000a0c <__aeabi_dcmpun>:
 8000a0c:	ea4f 0c41 	mov.w	ip, r1, lsl #1
 8000a10:	ea7f 5c6c 	mvns.w	ip, ip, asr #21
 8000a14:	d102      	bne.n	8000a1c <__aeabi_dcmpun+0x10>
 8000a16:	ea50 3c01 	orrs.w	ip, r0, r1, lsl #12
 8000a1a:	d10a      	bne.n	8000a32 <__aeabi_dcmpun+0x26>
 8000a1c:	ea4f 0c43 	mov.w	ip, r3, lsl #1
 8000a20:	ea7f 5c6c 	mvns.w	ip, ip, asr #21
 8000a24:	d102      	bne.n	8000a2c <__aeabi_dcmpun+0x20>
 8000a26:	ea52 3c03 	orrs.w	ip, r2, r3, lsl #12
 8000a2a:	d102      	bne.n	8000a32 <__aeabi_dcmpun+0x26>
 8000a2c:	f04f 0000 	mov.w	r0, #0
 8000a30:	4770      	bx	lr
 8000a32:	f04f 0001 	mov.w	r0, #1
 8000a36:	4770      	bx	lr

08000a38 <__aeabi_d2iz>:
 8000a38:	ea4f 0241 	mov.w	r2, r1, lsl #1
 8000a3c:	f512 1200 	adds.w	r2, r2, #2097152	; 0x200000
 8000a40:	d215      	bcs.n	8000a6e <__aeabi_d2iz+0x36>
 8000a42:	d511      	bpl.n	8000a68 <__aeabi_d2iz+0x30>
 8000a44:	f46f 7378 	mvn.w	r3, #992	; 0x3e0
 8000a48:	ebb3 5262 	subs.w	r2, r3, r2, asr #21
 8000a4c:	d912      	bls.n	8000a74 <__aeabi_d2iz+0x3c>
 8000a4e:	ea4f 23c1 	mov.w	r3, r1, lsl #11
 8000a52:	f043 4300 	orr.w	r3, r3, #2147483648	; 0x80000000
 8000a56:	ea43 5350 	orr.w	r3, r3, r0, lsr #21
 8000a5a:	f011 4f00 	tst.w	r1, #2147483648	; 0x80000000
 8000a5e:	fa23 f002 	lsr.w	r0, r3, r2
 8000a62:	bf18      	it	ne
 8000a64:	4240      	negne	r0, r0
 8000a66:	4770      	bx	lr
 8000a68:	f04f 0000 	mov.w	r0, #0
 8000a6c:	4770      	bx	lr
 8000a6e:	ea50 3001 	orrs.w	r0, r0, r1, lsl #12
 8000a72:	d105      	bne.n	8000a80 <__aeabi_d2iz+0x48>
 8000a74:	f011 4000 	ands.w	r0, r1, #2147483648	; 0x80000000
 8000a78:	bf08      	it	eq
 8000a7a:	f06f 4000 	mvneq.w	r0, #2147483648	; 0x80000000
 8000a7e:	4770      	bx	lr
 8000a80:	f04f 0000 	mov.w	r0, #0
 8000a84:	4770      	bx	lr
 8000a86:	bf00      	nop

08000a88 <__aeabi_d2uiz>:
 8000a88:	004a      	lsls	r2, r1, #1
 8000a8a:	d211      	bcs.n	8000ab0 <__aeabi_d2uiz+0x28>
 8000a8c:	f512 1200 	adds.w	r2, r2, #2097152	; 0x200000
 8000a90:	d211      	bcs.n	8000ab6 <__aeabi_d2uiz+0x2e>
 8000a92:	d50d      	bpl.n	8000ab0 <__aeabi_d2uiz+0x28>
 8000a94:	f46f 7378 	mvn.w	r3, #992	; 0x3e0
 8000a98:	ebb3 5262 	subs.w	r2, r3, r2, asr #21
 8000a9c:	d40e      	bmi.n	8000abc <__aeabi_d2uiz+0x34>
 8000a9e:	ea4f 23c1 	mov.w	r3, r1, lsl #11
 8000aa2:	f043 4300 	orr.w	r3, r3, #2147483648	; 0x80000000
 8000aa6:	ea43 5350 	orr.w	r3, r3, r0, lsr #21
 8000aaa:	fa23 f002 	lsr.w	r0, r3, r2
 8000aae:	4770      	bx	lr
 8000ab0:	f04f 0000 	mov.w	r0, #0
 8000ab4:	4770      	bx	lr
 8000ab6:	ea50 3001 	orrs.w	r0, r0, r1, lsl #12
 8000aba:	d102      	bne.n	8000ac2 <__aeabi_d2uiz+0x3a>
 8000abc:	f04f 30ff 	mov.w	r0, #4294967295
 8000ac0:	4770      	bx	lr
 8000ac2:	f04f 0000 	mov.w	r0, #0
 8000ac6:	4770      	bx	lr

08000ac8 <__aeabi_d2f>:
 8000ac8:	ea4f 0241 	mov.w	r2, r1, lsl #1
 8000acc:	f1b2 43e0 	subs.w	r3, r2, #1879048192	; 0x70000000
 8000ad0:	bf24      	itt	cs
 8000ad2:	f5b3 1c00 	subscs.w	ip, r3, #2097152	; 0x200000
 8000ad6:	f1dc 5cfe 	rsbscs	ip, ip, #532676608	; 0x1fc00000
 8000ada:	d90d      	bls.n	8000af8 <__aeabi_d2f+0x30>
 8000adc:	f001 4c00 	and.w	ip, r1, #2147483648	; 0x80000000
 8000ae0:	ea4f 02c0 	mov.w	r2, r0, lsl #3
 8000ae4:	ea4c 7050 	orr.w	r0, ip, r0, lsr #29
 8000ae8:	f1b2 4f00 	cmp.w	r2, #2147483648	; 0x80000000
 8000aec:	eb40 0083 	adc.w	r0, r0, r3, lsl #2
 8000af0:	bf08      	it	eq
 8000af2:	f020 0001 	biceq.w	r0, r0, #1
 8000af6:	4770      	bx	lr
 8000af8:	f011 4f80 	tst.w	r1, #1073741824	; 0x40000000
 8000afc:	d121      	bne.n	8000b42 <__aeabi_d2f+0x7a>
 8000afe:	f113 7238 	adds.w	r2, r3, #48234496	; 0x2e00000
 8000b02:	bfbc      	itt	lt
 8000b04:	f001 4000 	andlt.w	r0, r1, #2147483648	; 0x80000000
 8000b08:	4770      	bxlt	lr
 8000b0a:	f441 1180 	orr.w	r1, r1, #1048576	; 0x100000
 8000b0e:	ea4f 5252 	mov.w	r2, r2, lsr #21
 8000b12:	f1c2 0218 	rsb	r2, r2, #24
 8000b16:	f1c2 0c20 	rsb	ip, r2, #32
 8000b1a:	fa10 f30c 	lsls.w	r3, r0, ip
 8000b1e:	fa20 f002 	lsr.w	r0, r0, r2
 8000b22:	bf18      	it	ne
 8000b24:	f040 0001 	orrne.w	r0, r0, #1
 8000b28:	ea4f 23c1 	mov.w	r3, r1, lsl #11
 8000b2c:	ea4f 23d3 	mov.w	r3, r3, lsr #11
 8000b30:	fa03 fc0c 	lsl.w	ip, r3, ip
 8000b34:	ea40 000c 	orr.w	r0, r0, ip
 8000b38:	fa23 f302 	lsr.w	r3, r3, r2
 8000b3c:	ea4f 0343 	mov.w	r3, r3, lsl #1
 8000b40:	e7cc      	b.n	8000adc <__aeabi_d2f+0x14>
 8000b42:	ea7f 5362 	mvns.w	r3, r2, asr #21
 8000b46:	d107      	bne.n	8000b58 <__aeabi_d2f+0x90>
 8000b48:	ea50 3301 	orrs.w	r3, r0, r1, lsl #12
 8000b4c:	bf1e      	ittt	ne
 8000b4e:	f04f 40fe 	movne.w	r0, #2130706432	; 0x7f000000
 8000b52:	f440 0040 	orrne.w	r0, r0, #12582912	; 0xc00000
 8000b56:	4770      	bxne	lr
 8000b58:	f001 4000 	and.w	r0, r1, #2147483648	; 0x80000000
 8000b5c:	f040 40fe 	orr.w	r0, r0, #2130706432	; 0x7f000000
 8000b60:	f440 0000 	orr.w	r0, r0, #8388608	; 0x800000
 8000b64:	4770      	bx	lr
 8000b66:	bf00      	nop

08000b68 <__aeabi_d2lz>:
 8000b68:	b538      	push	{r3, r4, r5, lr}
 8000b6a:	4605      	mov	r5, r0
 8000b6c:	460c      	mov	r4, r1
 8000b6e:	2200      	movs	r2, #0
 8000b70:	2300      	movs	r3, #0
 8000b72:	4628      	mov	r0, r5
 8000b74:	4621      	mov	r1, r4
 8000b76:	f7ff ff21 	bl	80009bc <__aeabi_dcmplt>
 8000b7a:	b928      	cbnz	r0, 8000b88 <__aeabi_d2lz+0x20>
 8000b7c:	4628      	mov	r0, r5
 8000b7e:	4621      	mov	r1, r4
 8000b80:	e8bd 4038 	ldmia.w	sp!, {r3, r4, r5, lr}
 8000b84:	f000 b80a 	b.w	8000b9c <__aeabi_d2ulz>
 8000b88:	4628      	mov	r0, r5
 8000b8a:	f104 4100 	add.w	r1, r4, #2147483648	; 0x80000000
 8000b8e:	f000 f805 	bl	8000b9c <__aeabi_d2ulz>
 8000b92:	4240      	negs	r0, r0
 8000b94:	eb61 0141 	sbc.w	r1, r1, r1, lsl #1
 8000b98:	bd38      	pop	{r3, r4, r5, pc}
 8000b9a:	bf00      	nop

08000b9c <__aeabi_d2ulz>:
 8000b9c:	b5d0      	push	{r4, r6, r7, lr}
 8000b9e:	2200      	movs	r2, #0
 8000ba0:	4b0b      	ldr	r3, [pc, #44]	; (8000bd0 <__aeabi_d2ulz+0x34>)
 8000ba2:	4606      	mov	r6, r0
 8000ba4:	460f      	mov	r7, r1
 8000ba6:	f7ff fc97 	bl	80004d8 <__aeabi_dmul>
 8000baa:	f7ff ff6d 	bl	8000a88 <__aeabi_d2uiz>
 8000bae:	4604      	mov	r4, r0
 8000bb0:	f7ff fc18 	bl	80003e4 <__aeabi_ui2d>
 8000bb4:	2200      	movs	r2, #0
 8000bb6:	4b07      	ldr	r3, [pc, #28]	; (8000bd4 <__aeabi_d2ulz+0x38>)
 8000bb8:	f7ff fc8e 	bl	80004d8 <__aeabi_dmul>
 8000bbc:	4602      	mov	r2, r0
 8000bbe:	460b      	mov	r3, r1
 8000bc0:	4630      	mov	r0, r6
 8000bc2:	4639      	mov	r1, r7
 8000bc4:	f7ff fad0 	bl	8000168 <__aeabi_dsub>
 8000bc8:	f7ff ff5e 	bl	8000a88 <__aeabi_d2uiz>
 8000bcc:	4621      	mov	r1, r4
 8000bce:	bdd0      	pop	{r4, r6, r7, pc}
 8000bd0:	3df00000 	.word	0x3df00000
 8000bd4:	41f00000 	.word	0x41f00000

08000bd8 <lcd_send_cmd>:
extern I2C_HandleTypeDef hi2c1;  // change your handler here accordingly

#define SLAVE_ADDRESS_LCD 0x4E // change this according to ur setup

void lcd_send_cmd (char cmd)
{
 8000bd8:	b580      	push	{r7, lr}
 8000bda:	b086      	sub	sp, #24
 8000bdc:	af02      	add	r7, sp, #8
 8000bde:	4603      	mov	r3, r0
 8000be0:	71fb      	strb	r3, [r7, #7]
  char data_u, data_l;
	uint8_t data_t[4];
	data_u = (cmd&0xf0);
 8000be2:	79fb      	ldrb	r3, [r7, #7]
 8000be4:	f023 030f 	bic.w	r3, r3, #15
 8000be8:	73fb      	strb	r3, [r7, #15]
	data_l = ((cmd<<4)&0xf0);
 8000bea:	79fb      	ldrb	r3, [r7, #7]
 8000bec:	011b      	lsls	r3, r3, #4
 8000bee:	73bb      	strb	r3, [r7, #14]
	data_t[0] = data_u|0x0C;  //en=1, rs=0
 8000bf0:	7bfb      	ldrb	r3, [r7, #15]
 8000bf2:	f043 030c 	orr.w	r3, r3, #12
 8000bf6:	b2db      	uxtb	r3, r3
 8000bf8:	723b      	strb	r3, [r7, #8]
	data_t[1] = data_u|0x08;  //en=0, rs=0
 8000bfa:	7bfb      	ldrb	r3, [r7, #15]
 8000bfc:	f043 0308 	orr.w	r3, r3, #8
 8000c00:	b2db      	uxtb	r3, r3
 8000c02:	727b      	strb	r3, [r7, #9]
	data_t[2] = data_l|0x0C;  //en=1, rs=0
 8000c04:	7bbb      	ldrb	r3, [r7, #14]
 8000c06:	f043 030c 	orr.w	r3, r3, #12
 8000c0a:	b2db      	uxtb	r3, r3
 8000c0c:	72bb      	strb	r3, [r7, #10]
	data_t[3] = data_l|0x08;  //en=0, rs=0
 8000c0e:	7bbb      	ldrb	r3, [r7, #14]
 8000c10:	f043 0308 	orr.w	r3, r3, #8
 8000c14:	b2db      	uxtb	r3, r3
 8000c16:	72fb      	strb	r3, [r7, #11]
	HAL_I2C_Master_Transmit (&hi2c1, SLAVE_ADDRESS_LCD,(uint8_t *) data_t, 4, 100);
 8000c18:	f107 0208 	add.w	r2, r7, #8
 8000c1c:	2364      	movs	r3, #100	; 0x64
 8000c1e:	9300      	str	r3, [sp, #0]
 8000c20:	2304      	movs	r3, #4
 8000c22:	214e      	movs	r1, #78	; 0x4e
 8000c24:	4803      	ldr	r0, [pc, #12]	; (8000c34 <lcd_send_cmd+0x5c>)
 8000c26:	f001 facd 	bl	80021c4 <HAL_I2C_Master_Transmit>
}
 8000c2a:	bf00      	nop
 8000c2c:	3710      	adds	r7, #16
 8000c2e:	46bd      	mov	sp, r7
 8000c30:	bd80      	pop	{r7, pc}
 8000c32:	bf00      	nop
 8000c34:	20000240 	.word	0x20000240

08000c38 <lcd_send_data>:

void lcd_send_data (char data)
{
 8000c38:	b580      	push	{r7, lr}
 8000c3a:	b086      	sub	sp, #24
 8000c3c:	af02      	add	r7, sp, #8
 8000c3e:	4603      	mov	r3, r0
 8000c40:	71fb      	strb	r3, [r7, #7]
	char data_u, data_l;
	uint8_t data_t[4];
	data_u = (data&0xf0);
 8000c42:	79fb      	ldrb	r3, [r7, #7]
 8000c44:	f023 030f 	bic.w	r3, r3, #15
 8000c48:	73fb      	strb	r3, [r7, #15]
	data_l = ((data<<4)&0xf0);
 8000c4a:	79fb      	ldrb	r3, [r7, #7]
 8000c4c:	011b      	lsls	r3, r3, #4
 8000c4e:	73bb      	strb	r3, [r7, #14]
	data_t[0] = data_u|0x0D;  //en=1, rs=0
 8000c50:	7bfb      	ldrb	r3, [r7, #15]
 8000c52:	f043 030d 	orr.w	r3, r3, #13
 8000c56:	b2db      	uxtb	r3, r3
 8000c58:	723b      	strb	r3, [r7, #8]
	data_t[1] = data_u|0x09;  //en=0, rs=0
 8000c5a:	7bfb      	ldrb	r3, [r7, #15]
 8000c5c:	f043 0309 	orr.w	r3, r3, #9
 8000c60:	b2db      	uxtb	r3, r3
 8000c62:	727b      	strb	r3, [r7, #9]
	data_t[2] = data_l|0x0D;  //en=1, rs=0
 8000c64:	7bbb      	ldrb	r3, [r7, #14]
 8000c66:	f043 030d 	orr.w	r3, r3, #13
 8000c6a:	b2db      	uxtb	r3, r3
 8000c6c:	72bb      	strb	r3, [r7, #10]
	data_t[3] = data_l|0x09;  //en=0, rs=0
 8000c6e:	7bbb      	ldrb	r3, [r7, #14]
 8000c70:	f043 0309 	orr.w	r3, r3, #9
 8000c74:	b2db      	uxtb	r3, r3
 8000c76:	72fb      	strb	r3, [r7, #11]
	HAL_I2C_Master_Transmit (&hi2c1, SLAVE_ADDRESS_LCD,(uint8_t *) data_t, 4, 100);
 8000c78:	f107 0208 	add.w	r2, r7, #8
 8000c7c:	2364      	movs	r3, #100	; 0x64
 8000c7e:	9300      	str	r3, [sp, #0]
 8000c80:	2304      	movs	r3, #4
 8000c82:	214e      	movs	r1, #78	; 0x4e
 8000c84:	4803      	ldr	r0, [pc, #12]	; (8000c94 <lcd_send_data+0x5c>)
 8000c86:	f001 fa9d 	bl	80021c4 <HAL_I2C_Master_Transmit>
}
 8000c8a:	bf00      	nop
 8000c8c:	3710      	adds	r7, #16
 8000c8e:	46bd      	mov	sp, r7
 8000c90:	bd80      	pop	{r7, pc}
 8000c92:	bf00      	nop
 8000c94:	20000240 	.word	0x20000240

08000c98 <lcd_init>:
    lcd_send_cmd (col);
}


void lcd_init (void)
{
 8000c98:	b580      	push	{r7, lr}
 8000c9a:	af00      	add	r7, sp, #0
	// 4 bit initialisation
	HAL_Delay(50);  // wait for >40ms
 8000c9c:	2032      	movs	r0, #50	; 0x32
 8000c9e:	f000 fb9b 	bl	80013d8 <HAL_Delay>
	lcd_send_cmd (0x30);
 8000ca2:	2030      	movs	r0, #48	; 0x30
 8000ca4:	f7ff ff98 	bl	8000bd8 <lcd_send_cmd>
	HAL_Delay(5);  // wait for >4.1ms
 8000ca8:	2005      	movs	r0, #5
 8000caa:	f000 fb95 	bl	80013d8 <HAL_Delay>
	lcd_send_cmd (0x30);
 8000cae:	2030      	movs	r0, #48	; 0x30
 8000cb0:	f7ff ff92 	bl	8000bd8 <lcd_send_cmd>
	HAL_Delay(1);  // wait for >100us
 8000cb4:	2001      	movs	r0, #1
 8000cb6:	f000 fb8f 	bl	80013d8 <HAL_Delay>
	lcd_send_cmd (0x30);
 8000cba:	2030      	movs	r0, #48	; 0x30
 8000cbc:	f7ff ff8c 	bl	8000bd8 <lcd_send_cmd>
	HAL_Delay(10);
 8000cc0:	200a      	movs	r0, #10
 8000cc2:	f000 fb89 	bl	80013d8 <HAL_Delay>
	lcd_send_cmd (0x20);  // 4bit mode
 8000cc6:	2020      	movs	r0, #32
 8000cc8:	f7ff ff86 	bl	8000bd8 <lcd_send_cmd>
	HAL_Delay(10);
 8000ccc:	200a      	movs	r0, #10
 8000cce:	f000 fb83 	bl	80013d8 <HAL_Delay>

  // dislay initialisation
	lcd_send_cmd (0x28); // Function set --> DL=0 (4 bit mode), N = 1 (2 line display) F = 0 (5x8 characters)
 8000cd2:	2028      	movs	r0, #40	; 0x28
 8000cd4:	f7ff ff80 	bl	8000bd8 <lcd_send_cmd>
	HAL_Delay(1);
 8000cd8:	2001      	movs	r0, #1
 8000cda:	f000 fb7d 	bl	80013d8 <HAL_Delay>
	lcd_send_cmd (0x08); //Display on/off control --> D=0,C=0, B=0  ---> display off
 8000cde:	2008      	movs	r0, #8
 8000ce0:	f7ff ff7a 	bl	8000bd8 <lcd_send_cmd>
	HAL_Delay(1);
 8000ce4:	2001      	movs	r0, #1
 8000ce6:	f000 fb77 	bl	80013d8 <HAL_Delay>
	lcd_send_cmd (0x01);  // clear display
 8000cea:	2001      	movs	r0, #1
 8000cec:	f7ff ff74 	bl	8000bd8 <lcd_send_cmd>
	HAL_Delay(1);
 8000cf0:	2001      	movs	r0, #1
 8000cf2:	f000 fb71 	bl	80013d8 <HAL_Delay>
	HAL_Delay(1);
 8000cf6:	2001      	movs	r0, #1
 8000cf8:	f000 fb6e 	bl	80013d8 <HAL_Delay>
	lcd_send_cmd (0x06); //Entry mode set --> I/D = 1 (increment cursor) & S = 0 (no shift)
 8000cfc:	2006      	movs	r0, #6
 8000cfe:	f7ff ff6b 	bl	8000bd8 <lcd_send_cmd>
	HAL_Delay(1);
 8000d02:	2001      	movs	r0, #1
 8000d04:	f000 fb68 	bl	80013d8 <HAL_Delay>
	lcd_send_cmd (0x0C); //Display on/off control --> D = 1, C and B = 0. (Cursor and blink, last two bits)
 8000d08:	200c      	movs	r0, #12
 8000d0a:	f7ff ff65 	bl	8000bd8 <lcd_send_cmd>
}
 8000d0e:	bf00      	nop
 8000d10:	bd80      	pop	{r7, pc}

08000d12 <lcd_send_string>:

void lcd_send_string (char *str)
{
 8000d12:	b580      	push	{r7, lr}
 8000d14:	b082      	sub	sp, #8
 8000d16:	af00      	add	r7, sp, #0
 8000d18:	6078      	str	r0, [r7, #4]
	while (*str) lcd_send_data (*str++);
 8000d1a:	e006      	b.n	8000d2a <lcd_send_string+0x18>
 8000d1c:	687b      	ldr	r3, [r7, #4]
 8000d1e:	1c5a      	adds	r2, r3, #1
 8000d20:	607a      	str	r2, [r7, #4]
 8000d22:	781b      	ldrb	r3, [r3, #0]
 8000d24:	4618      	mov	r0, r3
 8000d26:	f7ff ff87 	bl	8000c38 <lcd_send_data>
 8000d2a:	687b      	ldr	r3, [r7, #4]
 8000d2c:	781b      	ldrb	r3, [r3, #0]
 8000d2e:	2b00      	cmp	r3, #0
 8000d30:	d1f4      	bne.n	8000d1c <lcd_send_string+0xa>
}
 8000d32:	bf00      	nop
 8000d34:	bf00      	nop
 8000d36:	3708      	adds	r7, #8
 8000d38:	46bd      	mov	sp, r7
 8000d3a:	bd80      	pop	{r7, pc}

08000d3c <main>:
/**
  * @brief  The application entry point.
  * @retval int
  */
int main(void)
{
 8000d3c:	b580      	push	{r7, lr}
 8000d3e:	af00      	add	r7, sp, #0
  /* USER CODE END 1 */

  /* MCU Configuration--------------------------------------------------------*/

  /* Reset of all peripherals, Initializes the Flash interface and the Systick. */
  HAL_Init();
 8000d40:	f000 fae8 	bl	8001314 <HAL_Init>
  /* USER CODE BEGIN Init */

  /* USER CODE END Init */

  /* Configure the system clock */
  SystemClock_Config();
 8000d44:	f000 f82a 	bl	8000d9c <SystemClock_Config>
  /* USER CODE BEGIN SysInit */

  /* USER CODE END SysInit */

  /* Initialize all configured peripherals */
  MX_GPIO_Init();
 8000d48:	f000 f8f0 	bl	8000f2c <MX_GPIO_Init>
  MX_ADC1_Init();
 8000d4c:	f000 f882 	bl	8000e54 <MX_ADC1_Init>
  MX_I2C1_Init();
 8000d50:	f000 f8be 	bl	8000ed0 <MX_I2C1_Init>
  /* USER CODE BEGIN 2 */

  HAL_ADC_Start(&hadc1);
 8000d54:	480d      	ldr	r0, [pc, #52]	; (8000d8c <main+0x50>)
 8000d56:	f000 fc3b 	bl	80015d0 <HAL_ADC_Start>
  lcd_init();
 8000d5a:	f7ff ff9d 	bl	8000c98 <lcd_init>
  HAL_Delay(200);
 8000d5e:	20c8      	movs	r0, #200	; 0xc8
 8000d60:	f000 fb3a 	bl	80013d8 <HAL_Delay>
  while (1)
  {
    /* USER CODE END WHILE */

    /* USER  CODE BEGIN 3 */
	data = HAL_ADC_GetValue(&hadc1);
 8000d64:	4809      	ldr	r0, [pc, #36]	; (8000d8c <main+0x50>)
 8000d66:	f000 fce1 	bl	800172c <HAL_ADC_GetValue>
 8000d6a:	4603      	mov	r3, r0
 8000d6c:	4a08      	ldr	r2, [pc, #32]	; (8000d90 <main+0x54>)
 8000d6e:	6013      	str	r3, [r2, #0]
	sprintf(yazi,"%d",data);
 8000d70:	4b07      	ldr	r3, [pc, #28]	; (8000d90 <main+0x54>)
 8000d72:	681b      	ldr	r3, [r3, #0]
 8000d74:	461a      	mov	r2, r3
 8000d76:	4907      	ldr	r1, [pc, #28]	; (8000d94 <main+0x58>)
 8000d78:	4807      	ldr	r0, [pc, #28]	; (8000d98 <main+0x5c>)
 8000d7a:	f003 f889 	bl	8003e90 <siprintf>
	lcd_send_string(yazi);
 8000d7e:	4806      	ldr	r0, [pc, #24]	; (8000d98 <main+0x5c>)
 8000d80:	f7ff ffc7 	bl	8000d12 <lcd_send_string>
	HAL_Delay(200);
 8000d84:	20c8      	movs	r0, #200	; 0xc8
 8000d86:	f000 fb27 	bl	80013d8 <HAL_Delay>
  {
 8000d8a:	e7eb      	b.n	8000d64 <main+0x28>
 8000d8c:	20000210 	.word	0x20000210
 8000d90:	2000020c 	.word	0x2000020c
 8000d94:	08007a28 	.word	0x08007a28
 8000d98:	20000000 	.word	0x20000000

08000d9c <SystemClock_Config>:
/**
  * @brief System Clock Configuration
  * @retval None
  */
void SystemClock_Config(void)
{
 8000d9c:	b580      	push	{r7, lr}
 8000d9e:	b094      	sub	sp, #80	; 0x50
 8000da0:	af00      	add	r7, sp, #0
  RCC_OscInitTypeDef RCC_OscInitStruct = {0};
 8000da2:	f107 0328 	add.w	r3, r7, #40	; 0x28
 8000da6:	2228      	movs	r2, #40	; 0x28
 8000da8:	2100      	movs	r1, #0
 8000daa:	4618      	mov	r0, r3
 8000dac:	f002 f9f6 	bl	800319c <memset>
  RCC_ClkInitTypeDef RCC_ClkInitStruct = {0};
 8000db0:	f107 0314 	add.w	r3, r7, #20
 8000db4:	2200      	movs	r2, #0
 8000db6:	601a      	str	r2, [r3, #0]
 8000db8:	605a      	str	r2, [r3, #4]
 8000dba:	609a      	str	r2, [r3, #8]
 8000dbc:	60da      	str	r2, [r3, #12]
 8000dbe:	611a      	str	r2, [r3, #16]
  RCC_PeriphCLKInitTypeDef PeriphClkInit = {0};
 8000dc0:	1d3b      	adds	r3, r7, #4
 8000dc2:	2200      	movs	r2, #0
 8000dc4:	601a      	str	r2, [r3, #0]
 8000dc6:	605a      	str	r2, [r3, #4]
 8000dc8:	609a      	str	r2, [r3, #8]
 8000dca:	60da      	str	r2, [r3, #12]

  /** Initializes the RCC Oscillators according to the specified parameters
  * in the RCC_OscInitTypeDef structure.
  */
  RCC_OscInitStruct.OscillatorType = RCC_OSCILLATORTYPE_HSE;
 8000dcc:	2301      	movs	r3, #1
 8000dce:	62bb      	str	r3, [r7, #40]	; 0x28
  RCC_OscInitStruct.HSEState = RCC_HSE_ON;
 8000dd0:	f44f 3380 	mov.w	r3, #65536	; 0x10000
 8000dd4:	62fb      	str	r3, [r7, #44]	; 0x2c
  RCC_OscInitStruct.HSEPredivValue = RCC_HSE_PREDIV_DIV1;
 8000dd6:	2300      	movs	r3, #0
 8000dd8:	633b      	str	r3, [r7, #48]	; 0x30
  RCC_OscInitStruct.HSIState = RCC_HSI_ON;
 8000dda:	2301      	movs	r3, #1
 8000ddc:	63bb      	str	r3, [r7, #56]	; 0x38
  RCC_OscInitStruct.PLL.PLLState = RCC_PLL_ON;
 8000dde:	2302      	movs	r3, #2
 8000de0:	647b      	str	r3, [r7, #68]	; 0x44
  RCC_OscInitStruct.PLL.PLLSource = RCC_PLLSOURCE_HSE;
 8000de2:	f44f 3380 	mov.w	r3, #65536	; 0x10000
 8000de6:	64bb      	str	r3, [r7, #72]	; 0x48
  RCC_OscInitStruct.PLL.PLLMUL = RCC_PLL_MUL9;
 8000de8:	f44f 13e0 	mov.w	r3, #1835008	; 0x1c0000
 8000dec:	64fb      	str	r3, [r7, #76]	; 0x4c
  if (HAL_RCC_OscConfig(&RCC_OscInitStruct) != HAL_OK)
 8000dee:	f107 0328 	add.w	r3, r7, #40	; 0x28
 8000df2:	4618      	mov	r0, r3
 8000df4:	f001 fcec 	bl	80027d0 <HAL_RCC_OscConfig>
 8000df8:	4603      	mov	r3, r0
 8000dfa:	2b00      	cmp	r3, #0
 8000dfc:	d001      	beq.n	8000e02 <SystemClock_Config+0x66>
  {
    Error_Handler();
 8000dfe:	f000 f8c3 	bl	8000f88 <Error_Handler>
  }

  /** Initializes the CPU, AHB and APB buses clocks
  */
  RCC_ClkInitStruct.ClockType = RCC_CLOCKTYPE_HCLK|RCC_CLOCKTYPE_SYSCLK
 8000e02:	230f      	movs	r3, #15
 8000e04:	617b      	str	r3, [r7, #20]
                              |RCC_CLOCKTYPE_PCLK1|RCC_CLOCKTYPE_PCLK2;
  RCC_ClkInitStruct.SYSCLKSource = RCC_SYSCLKSOURCE_PLLCLK;
 8000e06:	2302      	movs	r3, #2
 8000e08:	61bb      	str	r3, [r7, #24]
  RCC_ClkInitStruct.AHBCLKDivider = RCC_SYSCLK_DIV1;
 8000e0a:	2300      	movs	r3, #0
 8000e0c:	61fb      	str	r3, [r7, #28]
  RCC_ClkInitStruct.APB1CLKDivider = RCC_HCLK_DIV2;
 8000e0e:	f44f 6380 	mov.w	r3, #1024	; 0x400
 8000e12:	623b      	str	r3, [r7, #32]
  RCC_ClkInitStruct.APB2CLKDivider = RCC_HCLK_DIV1;
 8000e14:	2300      	movs	r3, #0
 8000e16:	627b      	str	r3, [r7, #36]	; 0x24

  if (HAL_RCC_ClockConfig(&RCC_ClkInitStruct, FLASH_LATENCY_2) != HAL_OK)
 8000e18:	f107 0314 	add.w	r3, r7, #20
 8000e1c:	2102      	movs	r1, #2
 8000e1e:	4618      	mov	r0, r3
 8000e20:	f001 ff58 	bl	8002cd4 <HAL_RCC_ClockConfig>
 8000e24:	4603      	mov	r3, r0
 8000e26:	2b00      	cmp	r3, #0
 8000e28:	d001      	beq.n	8000e2e <SystemClock_Config+0x92>
  {
    Error_Handler();
 8000e2a:	f000 f8ad 	bl	8000f88 <Error_Handler>
  }
  PeriphClkInit.PeriphClockSelection = RCC_PERIPHCLK_ADC;
 8000e2e:	2302      	movs	r3, #2
 8000e30:	607b      	str	r3, [r7, #4]
  PeriphClkInit.AdcClockSelection = RCC_ADCPCLK2_DIV6;
 8000e32:	f44f 4300 	mov.w	r3, #32768	; 0x8000
 8000e36:	60fb      	str	r3, [r7, #12]
  if (HAL_RCCEx_PeriphCLKConfig(&PeriphClkInit) != HAL_OK)
 8000e38:	1d3b      	adds	r3, r7, #4
 8000e3a:	4618      	mov	r0, r3
 8000e3c:	f002 f8ce 	bl	8002fdc <HAL_RCCEx_PeriphCLKConfig>
 8000e40:	4603      	mov	r3, r0
 8000e42:	2b00      	cmp	r3, #0
 8000e44:	d001      	beq.n	8000e4a <SystemClock_Config+0xae>
  {
    Error_Handler();
 8000e46:	f000 f89f 	bl	8000f88 <Error_Handler>
  }
}
 8000e4a:	bf00      	nop
 8000e4c:	3750      	adds	r7, #80	; 0x50
 8000e4e:	46bd      	mov	sp, r7
 8000e50:	bd80      	pop	{r7, pc}
	...

08000e54 <MX_ADC1_Init>:
  * @brief ADC1 Initialization Function
  * @param None
  * @retval None
  */
static void MX_ADC1_Init(void)
{
 8000e54:	b580      	push	{r7, lr}
 8000e56:	b084      	sub	sp, #16
 8000e58:	af00      	add	r7, sp, #0

  /* USER CODE BEGIN ADC1_Init 0 */

  /* USER CODE END ADC1_Init 0 */

  ADC_ChannelConfTypeDef sConfig = {0};
 8000e5a:	1d3b      	adds	r3, r7, #4
 8000e5c:	2200      	movs	r2, #0
 8000e5e:	601a      	str	r2, [r3, #0]
 8000e60:	605a      	str	r2, [r3, #4]
 8000e62:	609a      	str	r2, [r3, #8]

  /* USER CODE END ADC1_Init 1 */

  /** Common config
  */
  hadc1.Instance = ADC1;
 8000e64:	4b18      	ldr	r3, [pc, #96]	; (8000ec8 <MX_ADC1_Init+0x74>)
 8000e66:	4a19      	ldr	r2, [pc, #100]	; (8000ecc <MX_ADC1_Init+0x78>)
 8000e68:	601a      	str	r2, [r3, #0]
  hadc1.Init.ScanConvMode = ADC_SCAN_DISABLE;
 8000e6a:	4b17      	ldr	r3, [pc, #92]	; (8000ec8 <MX_ADC1_Init+0x74>)
 8000e6c:	2200      	movs	r2, #0
 8000e6e:	609a      	str	r2, [r3, #8]
  hadc1.Init.ContinuousConvMode = ENABLE;
 8000e70:	4b15      	ldr	r3, [pc, #84]	; (8000ec8 <MX_ADC1_Init+0x74>)
 8000e72:	2201      	movs	r2, #1
 8000e74:	731a      	strb	r2, [r3, #12]
  hadc1.Init.DiscontinuousConvMode = DISABLE;
 8000e76:	4b14      	ldr	r3, [pc, #80]	; (8000ec8 <MX_ADC1_Init+0x74>)
 8000e78:	2200      	movs	r2, #0
 8000e7a:	751a      	strb	r2, [r3, #20]
  hadc1.Init.ExternalTrigConv = ADC_SOFTWARE_START;
 8000e7c:	4b12      	ldr	r3, [pc, #72]	; (8000ec8 <MX_ADC1_Init+0x74>)
 8000e7e:	f44f 2260 	mov.w	r2, #917504	; 0xe0000
 8000e82:	61da      	str	r2, [r3, #28]
  hadc1.Init.DataAlign = ADC_DATAALIGN_RIGHT;
 8000e84:	4b10      	ldr	r3, [pc, #64]	; (8000ec8 <MX_ADC1_Init+0x74>)
 8000e86:	2200      	movs	r2, #0
 8000e88:	605a      	str	r2, [r3, #4]
  hadc1.Init.NbrOfConversion = 1;
 8000e8a:	4b0f      	ldr	r3, [pc, #60]	; (8000ec8 <MX_ADC1_Init+0x74>)
 8000e8c:	2201      	movs	r2, #1
 8000e8e:	611a      	str	r2, [r3, #16]
  if (HAL_ADC_Init(&hadc1) != HAL_OK)
 8000e90:	480d      	ldr	r0, [pc, #52]	; (8000ec8 <MX_ADC1_Init+0x74>)
 8000e92:	f000 fac5 	bl	8001420 <HAL_ADC_Init>
 8000e96:	4603      	mov	r3, r0
 8000e98:	2b00      	cmp	r3, #0
 8000e9a:	d001      	beq.n	8000ea0 <MX_ADC1_Init+0x4c>
  {
    Error_Handler();
 8000e9c:	f000 f874 	bl	8000f88 <Error_Handler>
  }

  /** Configure Regular Channel
  */
  sConfig.Channel = ADC_CHANNEL_1;
 8000ea0:	2301      	movs	r3, #1
 8000ea2:	607b      	str	r3, [r7, #4]
  sConfig.Rank = ADC_REGULAR_RANK_1;
 8000ea4:	2301      	movs	r3, #1
 8000ea6:	60bb      	str	r3, [r7, #8]
  sConfig.SamplingTime = ADC_SAMPLETIME_1CYCLE_5;
 8000ea8:	2300      	movs	r3, #0
 8000eaa:	60fb      	str	r3, [r7, #12]
  if (HAL_ADC_ConfigChannel(&hadc1, &sConfig) != HAL_OK)
 8000eac:	1d3b      	adds	r3, r7, #4
 8000eae:	4619      	mov	r1, r3
 8000eb0:	4805      	ldr	r0, [pc, #20]	; (8000ec8 <MX_ADC1_Init+0x74>)
 8000eb2:	f000 fc47 	bl	8001744 <HAL_ADC_ConfigChannel>
 8000eb6:	4603      	mov	r3, r0
 8000eb8:	2b00      	cmp	r3, #0
 8000eba:	d001      	beq.n	8000ec0 <MX_ADC1_Init+0x6c>
  {
    Error_Handler();
 8000ebc:	f000 f864 	bl	8000f88 <Error_Handler>
  }
  /* USER CODE BEGIN ADC1_Init 2 */

  /* USER CODE END ADC1_Init 2 */

}
 8000ec0:	bf00      	nop
 8000ec2:	3710      	adds	r7, #16
 8000ec4:	46bd      	mov	sp, r7
 8000ec6:	bd80      	pop	{r7, pc}
 8000ec8:	20000210 	.word	0x20000210
 8000ecc:	40012400 	.word	0x40012400

08000ed0 <MX_I2C1_Init>:
  * @brief I2C1 Initialization Function
  * @param None
  * @retval None
  */
static void MX_I2C1_Init(void)
{
 8000ed0:	b580      	push	{r7, lr}
 8000ed2:	af00      	add	r7, sp, #0
  /* USER CODE END I2C1_Init 0 */

  /* USER CODE BEGIN I2C1_Init 1 */

  /* USER CODE END I2C1_Init 1 */
  hi2c1.Instance = I2C1;
 8000ed4:	4b12      	ldr	r3, [pc, #72]	; (8000f20 <MX_I2C1_Init+0x50>)
 8000ed6:	4a13      	ldr	r2, [pc, #76]	; (8000f24 <MX_I2C1_Init+0x54>)
 8000ed8:	601a      	str	r2, [r3, #0]
  hi2c1.Init.ClockSpeed = 100000;
 8000eda:	4b11      	ldr	r3, [pc, #68]	; (8000f20 <MX_I2C1_Init+0x50>)
 8000edc:	4a12      	ldr	r2, [pc, #72]	; (8000f28 <MX_I2C1_Init+0x58>)
 8000ede:	605a      	str	r2, [r3, #4]
  hi2c1.Init.DutyCycle = I2C_DUTYCYCLE_2;
 8000ee0:	4b0f      	ldr	r3, [pc, #60]	; (8000f20 <MX_I2C1_Init+0x50>)
 8000ee2:	2200      	movs	r2, #0
 8000ee4:	609a      	str	r2, [r3, #8]
  hi2c1.Init.OwnAddress1 = 0;
 8000ee6:	4b0e      	ldr	r3, [pc, #56]	; (8000f20 <MX_I2C1_Init+0x50>)
 8000ee8:	2200      	movs	r2, #0
 8000eea:	60da      	str	r2, [r3, #12]
  hi2c1.Init.AddressingMode = I2C_ADDRESSINGMODE_7BIT;
 8000eec:	4b0c      	ldr	r3, [pc, #48]	; (8000f20 <MX_I2C1_Init+0x50>)
 8000eee:	f44f 4280 	mov.w	r2, #16384	; 0x4000
 8000ef2:	611a      	str	r2, [r3, #16]
  hi2c1.Init.DualAddressMode = I2C_DUALADDRESS_DISABLE;
 8000ef4:	4b0a      	ldr	r3, [pc, #40]	; (8000f20 <MX_I2C1_Init+0x50>)
 8000ef6:	2200      	movs	r2, #0
 8000ef8:	615a      	str	r2, [r3, #20]
  hi2c1.Init.OwnAddress2 = 0;
 8000efa:	4b09      	ldr	r3, [pc, #36]	; (8000f20 <MX_I2C1_Init+0x50>)
 8000efc:	2200      	movs	r2, #0
 8000efe:	619a      	str	r2, [r3, #24]
  hi2c1.Init.GeneralCallMode = I2C_GENERALCALL_DISABLE;
 8000f00:	4b07      	ldr	r3, [pc, #28]	; (8000f20 <MX_I2C1_Init+0x50>)
 8000f02:	2200      	movs	r2, #0
 8000f04:	61da      	str	r2, [r3, #28]
  hi2c1.Init.NoStretchMode = I2C_NOSTRETCH_DISABLE;
 8000f06:	4b06      	ldr	r3, [pc, #24]	; (8000f20 <MX_I2C1_Init+0x50>)
 8000f08:	2200      	movs	r2, #0
 8000f0a:	621a      	str	r2, [r3, #32]
  if (HAL_I2C_Init(&hi2c1) != HAL_OK)
 8000f0c:	4804      	ldr	r0, [pc, #16]	; (8000f20 <MX_I2C1_Init+0x50>)
 8000f0e:	f001 f815 	bl	8001f3c <HAL_I2C_Init>
 8000f12:	4603      	mov	r3, r0
 8000f14:	2b00      	cmp	r3, #0
 8000f16:	d001      	beq.n	8000f1c <MX_I2C1_Init+0x4c>
  {
    Error_Handler();
 8000f18:	f000 f836 	bl	8000f88 <Error_Handler>
  }
  /* USER CODE BEGIN I2C1_Init 2 */

  /* USER CODE END I2C1_Init 2 */

}
 8000f1c:	bf00      	nop
 8000f1e:	bd80      	pop	{r7, pc}
 8000f20:	20000240 	.word	0x20000240
 8000f24:	40005400 	.word	0x40005400
 8000f28:	000186a0 	.word	0x000186a0

08000f2c <MX_GPIO_Init>:
  * @brief GPIO Initialization Function
  * @param None
  * @retval None
  */
static void MX_GPIO_Init(void)
{
 8000f2c:	b480      	push	{r7}
 8000f2e:	b085      	sub	sp, #20
 8000f30:	af00      	add	r7, sp, #0

  /* GPIO Ports Clock Enable */
  __HAL_RCC_GPIOD_CLK_ENABLE();
 8000f32:	4b14      	ldr	r3, [pc, #80]	; (8000f84 <MX_GPIO_Init+0x58>)
 8000f34:	699b      	ldr	r3, [r3, #24]
 8000f36:	4a13      	ldr	r2, [pc, #76]	; (8000f84 <MX_GPIO_Init+0x58>)
 8000f38:	f043 0320 	orr.w	r3, r3, #32
 8000f3c:	6193      	str	r3, [r2, #24]
 8000f3e:	4b11      	ldr	r3, [pc, #68]	; (8000f84 <MX_GPIO_Init+0x58>)
 8000f40:	699b      	ldr	r3, [r3, #24]
 8000f42:	f003 0320 	and.w	r3, r3, #32
 8000f46:	60fb      	str	r3, [r7, #12]
 8000f48:	68fb      	ldr	r3, [r7, #12]
  __HAL_RCC_GPIOA_CLK_ENABLE();
 8000f4a:	4b0e      	ldr	r3, [pc, #56]	; (8000f84 <MX_GPIO_Init+0x58>)
 8000f4c:	699b      	ldr	r3, [r3, #24]
 8000f4e:	4a0d      	ldr	r2, [pc, #52]	; (8000f84 <MX_GPIO_Init+0x58>)
 8000f50:	f043 0304 	orr.w	r3, r3, #4
 8000f54:	6193      	str	r3, [r2, #24]
 8000f56:	4b0b      	ldr	r3, [pc, #44]	; (8000f84 <MX_GPIO_Init+0x58>)
 8000f58:	699b      	ldr	r3, [r3, #24]
 8000f5a:	f003 0304 	and.w	r3, r3, #4
 8000f5e:	60bb      	str	r3, [r7, #8]
 8000f60:	68bb      	ldr	r3, [r7, #8]
  __HAL_RCC_GPIOB_CLK_ENABLE();
 8000f62:	4b08      	ldr	r3, [pc, #32]	; (8000f84 <MX_GPIO_Init+0x58>)
 8000f64:	699b      	ldr	r3, [r3, #24]
 8000f66:	4a07      	ldr	r2, [pc, #28]	; (8000f84 <MX_GPIO_Init+0x58>)
 8000f68:	f043 0308 	orr.w	r3, r3, #8
 8000f6c:	6193      	str	r3, [r2, #24]
 8000f6e:	4b05      	ldr	r3, [pc, #20]	; (8000f84 <MX_GPIO_Init+0x58>)
 8000f70:	699b      	ldr	r3, [r3, #24]
 8000f72:	f003 0308 	and.w	r3, r3, #8
 8000f76:	607b      	str	r3, [r7, #4]
 8000f78:	687b      	ldr	r3, [r7, #4]

}
 8000f7a:	bf00      	nop
 8000f7c:	3714      	adds	r7, #20
 8000f7e:	46bd      	mov	sp, r7
 8000f80:	bc80      	pop	{r7}
 8000f82:	4770      	bx	lr
 8000f84:	40021000 	.word	0x40021000

08000f88 <Error_Handler>:
/**
  * @brief  This function is executed in case of error occurrence.
  * @retval None
  */
void Error_Handler(void)
{
 8000f88:	b480      	push	{r7}
 8000f8a:	af00      	add	r7, sp, #0
  \details Disables IRQ interrupts by setting the I-bit in the CPSR.
           Can only be executed in Privileged modes.
 */
__STATIC_FORCEINLINE void __disable_irq(void)
{
  __ASM volatile ("cpsid i" : : : "memory");
 8000f8c:	b672      	cpsid	i
}
 8000f8e:	bf00      	nop
  /* USER CODE BEGIN Error_Handler_Debug */
  /* User can add his own implementation to report the HAL error return state */
  __disable_irq();
  while (1)
 8000f90:	e7fe      	b.n	8000f90 <Error_Handler+0x8>
	...

08000f94 <HAL_MspInit>:
/* USER CODE END 0 */
/**
  * Initializes the Global MSP.
  */
void HAL_MspInit(void)
{
 8000f94:	b480      	push	{r7}
 8000f96:	b085      	sub	sp, #20
 8000f98:	af00      	add	r7, sp, #0
  /* USER CODE BEGIN MspInit 0 */

  /* USER CODE END MspInit 0 */

  __HAL_RCC_AFIO_CLK_ENABLE();
 8000f9a:	4b15      	ldr	r3, [pc, #84]	; (8000ff0 <HAL_MspInit+0x5c>)
 8000f9c:	699b      	ldr	r3, [r3, #24]
 8000f9e:	4a14      	ldr	r2, [pc, #80]	; (8000ff0 <HAL_MspInit+0x5c>)
 8000fa0:	f043 0301 	orr.w	r3, r3, #1
 8000fa4:	6193      	str	r3, [r2, #24]
 8000fa6:	4b12      	ldr	r3, [pc, #72]	; (8000ff0 <HAL_MspInit+0x5c>)
 8000fa8:	699b      	ldr	r3, [r3, #24]
 8000faa:	f003 0301 	and.w	r3, r3, #1
 8000fae:	60bb      	str	r3, [r7, #8]
 8000fb0:	68bb      	ldr	r3, [r7, #8]
  __HAL_RCC_PWR_CLK_ENABLE();
 8000fb2:	4b0f      	ldr	r3, [pc, #60]	; (8000ff0 <HAL_MspInit+0x5c>)
 8000fb4:	69db      	ldr	r3, [r3, #28]
 8000fb6:	4a0e      	ldr	r2, [pc, #56]	; (8000ff0 <HAL_MspInit+0x5c>)
 8000fb8:	f043 5380 	orr.w	r3, r3, #268435456	; 0x10000000
 8000fbc:	61d3      	str	r3, [r2, #28]
 8000fbe:	4b0c      	ldr	r3, [pc, #48]	; (8000ff0 <HAL_MspInit+0x5c>)
 8000fc0:	69db      	ldr	r3, [r3, #28]
 8000fc2:	f003 5380 	and.w	r3, r3, #268435456	; 0x10000000
 8000fc6:	607b      	str	r3, [r7, #4]
 8000fc8:	687b      	ldr	r3, [r7, #4]

  /* System interrupt init*/

  /** NOJTAG: JTAG-DP Disabled and SW-DP Enabled
  */
  __HAL_AFIO_REMAP_SWJ_NOJTAG();
 8000fca:	4b0a      	ldr	r3, [pc, #40]	; (8000ff4 <HAL_MspInit+0x60>)
 8000fcc:	685b      	ldr	r3, [r3, #4]
 8000fce:	60fb      	str	r3, [r7, #12]
 8000fd0:	68fb      	ldr	r3, [r7, #12]
 8000fd2:	f023 63e0 	bic.w	r3, r3, #117440512	; 0x7000000
 8000fd6:	60fb      	str	r3, [r7, #12]
 8000fd8:	68fb      	ldr	r3, [r7, #12]
 8000fda:	f043 7300 	orr.w	r3, r3, #33554432	; 0x2000000
 8000fde:	60fb      	str	r3, [r7, #12]
 8000fe0:	4a04      	ldr	r2, [pc, #16]	; (8000ff4 <HAL_MspInit+0x60>)
 8000fe2:	68fb      	ldr	r3, [r7, #12]
 8000fe4:	6053      	str	r3, [r2, #4]

  /* USER CODE BEGIN MspInit 1 */

  /* USER CODE END MspInit 1 */
}
 8000fe6:	bf00      	nop
 8000fe8:	3714      	adds	r7, #20
 8000fea:	46bd      	mov	sp, r7
 8000fec:	bc80      	pop	{r7}
 8000fee:	4770      	bx	lr
 8000ff0:	40021000 	.word	0x40021000
 8000ff4:	40010000 	.word	0x40010000

08000ff8 <HAL_ADC_MspInit>:
* This function configures the hardware resources used in this example
* @param hadc: ADC handle pointer
* @retval None
*/
void HAL_ADC_MspInit(ADC_HandleTypeDef* hadc)
{
 8000ff8:	b580      	push	{r7, lr}
 8000ffa:	b088      	sub	sp, #32
 8000ffc:	af00      	add	r7, sp, #0
 8000ffe:	6078      	str	r0, [r7, #4]
  GPIO_InitTypeDef GPIO_InitStruct = {0};
 8001000:	f107 0310 	add.w	r3, r7, #16
 8001004:	2200      	movs	r2, #0
 8001006:	601a      	str	r2, [r3, #0]
 8001008:	605a      	str	r2, [r3, #4]
 800100a:	609a      	str	r2, [r3, #8]
 800100c:	60da      	str	r2, [r3, #12]
  if(hadc->Instance==ADC1)
 800100e:	687b      	ldr	r3, [r7, #4]
 8001010:	681b      	ldr	r3, [r3, #0]
 8001012:	4a14      	ldr	r2, [pc, #80]	; (8001064 <HAL_ADC_MspInit+0x6c>)
 8001014:	4293      	cmp	r3, r2
 8001016:	d121      	bne.n	800105c <HAL_ADC_MspInit+0x64>
  {
  /* USER CODE BEGIN ADC1_MspInit 0 */

  /* USER CODE END ADC1_MspInit 0 */
    /* Peripheral clock enable */
    __HAL_RCC_ADC1_CLK_ENABLE();
 8001018:	4b13      	ldr	r3, [pc, #76]	; (8001068 <HAL_ADC_MspInit+0x70>)
 800101a:	699b      	ldr	r3, [r3, #24]
 800101c:	4a12      	ldr	r2, [pc, #72]	; (8001068 <HAL_ADC_MspInit+0x70>)
 800101e:	f443 7300 	orr.w	r3, r3, #512	; 0x200
 8001022:	6193      	str	r3, [r2, #24]
 8001024:	4b10      	ldr	r3, [pc, #64]	; (8001068 <HAL_ADC_MspInit+0x70>)
 8001026:	699b      	ldr	r3, [r3, #24]
 8001028:	f403 7300 	and.w	r3, r3, #512	; 0x200
 800102c:	60fb      	str	r3, [r7, #12]
 800102e:	68fb      	ldr	r3, [r7, #12]

    __HAL_RCC_GPIOA_CLK_ENABLE();
 8001030:	4b0d      	ldr	r3, [pc, #52]	; (8001068 <HAL_ADC_MspInit+0x70>)
 8001032:	699b      	ldr	r3, [r3, #24]
 8001034:	4a0c      	ldr	r2, [pc, #48]	; (8001068 <HAL_ADC_MspInit+0x70>)
 8001036:	f043 0304 	orr.w	r3, r3, #4
 800103a:	6193      	str	r3, [r2, #24]
 800103c:	4b0a      	ldr	r3, [pc, #40]	; (8001068 <HAL_ADC_MspInit+0x70>)
 800103e:	699b      	ldr	r3, [r3, #24]
 8001040:	f003 0304 	and.w	r3, r3, #4
 8001044:	60bb      	str	r3, [r7, #8]
 8001046:	68bb      	ldr	r3, [r7, #8]
    /**ADC1 GPIO Configuration
    PA1     ------> ADC1_IN1
    */
    GPIO_InitStruct.Pin = GPIO_PIN_1;
 8001048:	2302      	movs	r3, #2
 800104a:	613b      	str	r3, [r7, #16]
    GPIO_InitStruct.Mode = GPIO_MODE_ANALOG;
 800104c:	2303      	movs	r3, #3
 800104e:	617b      	str	r3, [r7, #20]
    HAL_GPIO_Init(GPIOA, &GPIO_InitStruct);
 8001050:	f107 0310 	add.w	r3, r7, #16
 8001054:	4619      	mov	r1, r3
 8001056:	4805      	ldr	r0, [pc, #20]	; (800106c <HAL_ADC_MspInit+0x74>)
 8001058:	f000 fdec 	bl	8001c34 <HAL_GPIO_Init>
  /* USER CODE BEGIN ADC1_MspInit 1 */

  /* USER CODE END ADC1_MspInit 1 */
  }

}
 800105c:	bf00      	nop
 800105e:	3720      	adds	r7, #32
 8001060:	46bd      	mov	sp, r7
 8001062:	bd80      	pop	{r7, pc}
 8001064:	40012400 	.word	0x40012400
 8001068:	40021000 	.word	0x40021000
 800106c:	40010800 	.word	0x40010800

08001070 <HAL_I2C_MspInit>:
* This function configures the hardware resources used in this example
* @param hi2c: I2C handle pointer
* @retval None
*/
void HAL_I2C_MspInit(I2C_HandleTypeDef* hi2c)
{
 8001070:	b580      	push	{r7, lr}
 8001072:	b088      	sub	sp, #32
 8001074:	af00      	add	r7, sp, #0
 8001076:	6078      	str	r0, [r7, #4]
  GPIO_InitTypeDef GPIO_InitStruct = {0};
 8001078:	f107 0310 	add.w	r3, r7, #16
 800107c:	2200      	movs	r2, #0
 800107e:	601a      	str	r2, [r3, #0]
 8001080:	605a      	str	r2, [r3, #4]
 8001082:	609a      	str	r2, [r3, #8]
 8001084:	60da      	str	r2, [r3, #12]
  if(hi2c->Instance==I2C1)
 8001086:	687b      	ldr	r3, [r7, #4]
 8001088:	681b      	ldr	r3, [r3, #0]
 800108a:	4a15      	ldr	r2, [pc, #84]	; (80010e0 <HAL_I2C_MspInit+0x70>)
 800108c:	4293      	cmp	r3, r2
 800108e:	d123      	bne.n	80010d8 <HAL_I2C_MspInit+0x68>
  {
  /* USER CODE BEGIN I2C1_MspInit 0 */

  /* USER CODE END I2C1_MspInit 0 */

    __HAL_RCC_GPIOB_CLK_ENABLE();
 8001090:	4b14      	ldr	r3, [pc, #80]	; (80010e4 <HAL_I2C_MspInit+0x74>)
 8001092:	699b      	ldr	r3, [r3, #24]
 8001094:	4a13      	ldr	r2, [pc, #76]	; (80010e4 <HAL_I2C_MspInit+0x74>)
 8001096:	f043 0308 	orr.w	r3, r3, #8
 800109a:	6193      	str	r3, [r2, #24]
 800109c:	4b11      	ldr	r3, [pc, #68]	; (80010e4 <HAL_I2C_MspInit+0x74>)
 800109e:	699b      	ldr	r3, [r3, #24]
 80010a0:	f003 0308 	and.w	r3, r3, #8
 80010a4:	60fb      	str	r3, [r7, #12]
 80010a6:	68fb      	ldr	r3, [r7, #12]
    /**I2C1 GPIO Configuration
    PB6     ------> I2C1_SCL
    PB7     ------> I2C1_SDA
    */
    GPIO_InitStruct.Pin = GPIO_PIN_6|GPIO_PIN_7;
 80010a8:	23c0      	movs	r3, #192	; 0xc0
 80010aa:	613b      	str	r3, [r7, #16]
    GPIO_InitStruct.Mode = GPIO_MODE_AF_OD;
 80010ac:	2312      	movs	r3, #18
 80010ae:	617b      	str	r3, [r7, #20]
    GPIO_InitStruct.Speed = GPIO_SPEED_FREQ_HIGH;
 80010b0:	2303      	movs	r3, #3
 80010b2:	61fb      	str	r3, [r7, #28]
    HAL_GPIO_Init(GPIOB, &GPIO_InitStruct);
 80010b4:	f107 0310 	add.w	r3, r7, #16
 80010b8:	4619      	mov	r1, r3
 80010ba:	480b      	ldr	r0, [pc, #44]	; (80010e8 <HAL_I2C_MspInit+0x78>)
 80010bc:	f000 fdba 	bl	8001c34 <HAL_GPIO_Init>

    /* Peripheral clock enable */
    __HAL_RCC_I2C1_CLK_ENABLE();
 80010c0:	4b08      	ldr	r3, [pc, #32]	; (80010e4 <HAL_I2C_MspInit+0x74>)
 80010c2:	69db      	ldr	r3, [r3, #28]
 80010c4:	4a07      	ldr	r2, [pc, #28]	; (80010e4 <HAL_I2C_MspInit+0x74>)
 80010c6:	f443 1300 	orr.w	r3, r3, #2097152	; 0x200000
 80010ca:	61d3      	str	r3, [r2, #28]
 80010cc:	4b05      	ldr	r3, [pc, #20]	; (80010e4 <HAL_I2C_MspInit+0x74>)
 80010ce:	69db      	ldr	r3, [r3, #28]
 80010d0:	f403 1300 	and.w	r3, r3, #2097152	; 0x200000
 80010d4:	60bb      	str	r3, [r7, #8]
 80010d6:	68bb      	ldr	r3, [r7, #8]
  /* USER CODE BEGIN I2C1_MspInit 1 */

  /* USER CODE END I2C1_MspInit 1 */
  }

}
 80010d8:	bf00      	nop
 80010da:	3720      	adds	r7, #32
 80010dc:	46bd      	mov	sp, r7
 80010de:	bd80      	pop	{r7, pc}
 80010e0:	40005400 	.word	0x40005400
 80010e4:	40021000 	.word	0x40021000
 80010e8:	40010c00 	.word	0x40010c00

080010ec <NMI_Handler>:
/******************************************************************************/
/**
  * @brief This function handles Non maskable interrupt.
  */
void NMI_Handler(void)
{
 80010ec:	b480      	push	{r7}
 80010ee:	af00      	add	r7, sp, #0
  /* USER CODE BEGIN NonMaskableInt_IRQn 0 */

  /* USER CODE END NonMaskableInt_IRQn 0 */
  /* USER CODE BEGIN NonMaskableInt_IRQn 1 */
  while (1)
 80010f0:	e7fe      	b.n	80010f0 <NMI_Handler+0x4>

080010f2 <HardFault_Handler>:

/**
  * @brief This function handles Hard fault interrupt.
  */
void HardFault_Handler(void)
{
 80010f2:	b480      	push	{r7}
 80010f4:	af00      	add	r7, sp, #0
  /* USER CODE BEGIN HardFault_IRQn 0 */

  /* USER CODE END HardFault_IRQn 0 */
  while (1)
 80010f6:	e7fe      	b.n	80010f6 <HardFault_Handler+0x4>

080010f8 <MemManage_Handler>:

/**
  * @brief This function handles Memory management fault.
  */
void MemManage_Handler(void)
{
 80010f8:	b480      	push	{r7}
 80010fa:	af00      	add	r7, sp, #0
  /* USER CODE BEGIN MemoryManagement_IRQn 0 */

  /* USER CODE END MemoryManagement_IRQn 0 */
  while (1)
 80010fc:	e7fe      	b.n	80010fc <MemManage_Handler+0x4>

080010fe <BusFault_Handler>:

/**
  * @brief This function handles Prefetch fault, memory access fault.
  */
void BusFault_Handler(void)
{
 80010fe:	b480      	push	{r7}
 8001100:	af00      	add	r7, sp, #0
  /* USER CODE BEGIN BusFault_IRQn 0 */

  /* USER CODE END BusFault_IRQn 0 */
  while (1)
 8001102:	e7fe      	b.n	8001102 <BusFault_Handler+0x4>

08001104 <UsageFault_Handler>:

/**
  * @brief This function handles Undefined instruction or illegal state.
  */
void UsageFault_Handler(void)
{
 8001104:	b480      	push	{r7}
 8001106:	af00      	add	r7, sp, #0
  /* USER CODE BEGIN UsageFault_IRQn 0 */

  /* USER CODE END UsageFault_IRQn 0 */
  while (1)
 8001108:	e7fe      	b.n	8001108 <UsageFault_Handler+0x4>

0800110a <SVC_Handler>:

/**
  * @brief This function handles System service call via SWI instruction.
  */
void SVC_Handler(void)
{
 800110a:	b480      	push	{r7}
 800110c:	af00      	add	r7, sp, #0

  /* USER CODE END SVCall_IRQn 0 */
  /* USER CODE BEGIN SVCall_IRQn 1 */

  /* USER CODE END SVCall_IRQn 1 */
}
 800110e:	bf00      	nop
 8001110:	46bd      	mov	sp, r7
 8001112:	bc80      	pop	{r7}
 8001114:	4770      	bx	lr

08001116 <DebugMon_Handler>:

/**
  * @brief This function handles Debug monitor.
  */
void DebugMon_Handler(void)
{
 8001116:	b480      	push	{r7}
 8001118:	af00      	add	r7, sp, #0

  /* USER CODE END DebugMonitor_IRQn 0 */
  /* USER CODE BEGIN DebugMonitor_IRQn 1 */

  /* USER CODE END DebugMonitor_IRQn 1 */
}
 800111a:	bf00      	nop
 800111c:	46bd      	mov	sp, r7
 800111e:	bc80      	pop	{r7}
 8001120:	4770      	bx	lr

08001122 <PendSV_Handler>:

/**
  * @brief This function handles Pendable request for system service.
  */
void PendSV_Handler(void)
{
 8001122:	b480      	push	{r7}
 8001124:	af00      	add	r7, sp, #0

  /* USER CODE END PendSV_IRQn 0 */
  /* USER CODE BEGIN PendSV_IRQn 1 */

  /* USER CODE END PendSV_IRQn 1 */
}
 8001126:	bf00      	nop
 8001128:	46bd      	mov	sp, r7
 800112a:	bc80      	pop	{r7}
 800112c:	4770      	bx	lr

0800112e <SysTick_Handler>:

/**
  * @brief This function handles System tick timer.
  */
void SysTick_Handler(void)
{
 800112e:	b580      	push	{r7, lr}
 8001130:	af00      	add	r7, sp, #0
  /* USER CODE BEGIN SysTick_IRQn 0 */

  /* USER CODE END SysTick_IRQn 0 */
  HAL_IncTick();
 8001132:	f000 f935 	bl	80013a0 <HAL_IncTick>
  /* USER CODE BEGIN SysTick_IRQn 1 */

  /* USER CODE END SysTick_IRQn 1 */
}
 8001136:	bf00      	nop
 8001138:	bd80      	pop	{r7, pc}

0800113a <_getpid>:
void initialise_monitor_handles()
{
}

int _getpid(void)
{
 800113a:	b480      	push	{r7}
 800113c:	af00      	add	r7, sp, #0
  return 1;
 800113e:	2301      	movs	r3, #1
}
 8001140:	4618      	mov	r0, r3
 8001142:	46bd      	mov	sp, r7
 8001144:	bc80      	pop	{r7}
 8001146:	4770      	bx	lr

08001148 <_kill>:

int _kill(int pid, int sig)
{
 8001148:	b580      	push	{r7, lr}
 800114a:	b082      	sub	sp, #8
 800114c:	af00      	add	r7, sp, #0
 800114e:	6078      	str	r0, [r7, #4]
 8001150:	6039      	str	r1, [r7, #0]
  (void)pid;
  (void)sig;
  errno = EINVAL;
 8001152:	f001 fff9 	bl	8003148 <__errno>
 8001156:	4603      	mov	r3, r0
 8001158:	2216      	movs	r2, #22
 800115a:	601a      	str	r2, [r3, #0]
  return -1;
 800115c:	f04f 33ff 	mov.w	r3, #4294967295
}
 8001160:	4618      	mov	r0, r3
 8001162:	3708      	adds	r7, #8
 8001164:	46bd      	mov	sp, r7
 8001166:	bd80      	pop	{r7, pc}

08001168 <_exit>:

void _exit (int status)
{
 8001168:	b580      	push	{r7, lr}
 800116a:	b082      	sub	sp, #8
 800116c:	af00      	add	r7, sp, #0
 800116e:	6078      	str	r0, [r7, #4]
  _kill(status, -1);
 8001170:	f04f 31ff 	mov.w	r1, #4294967295
 8001174:	6878      	ldr	r0, [r7, #4]
 8001176:	f7ff ffe7 	bl	8001148 <_kill>
  while (1) {}    /* Make sure we hang here */
 800117a:	e7fe      	b.n	800117a <_exit+0x12>

0800117c <_read>:
}

__attribute__((weak)) int _read(int file, char *ptr, int len)
{
 800117c:	b580      	push	{r7, lr}
 800117e:	b086      	sub	sp, #24
 8001180:	af00      	add	r7, sp, #0
 8001182:	60f8      	str	r0, [r7, #12]
 8001184:	60b9      	str	r1, [r7, #8]
 8001186:	607a      	str	r2, [r7, #4]
  (void)file;
  int DataIdx;

  for (DataIdx = 0; DataIdx < len; DataIdx++)
 8001188:	2300      	movs	r3, #0
 800118a:	617b      	str	r3, [r7, #20]
 800118c:	e00a      	b.n	80011a4 <_read+0x28>
  {
    *ptr++ = __io_getchar();
 800118e:	f3af 8000 	nop.w
 8001192:	4601      	mov	r1, r0
 8001194:	68bb      	ldr	r3, [r7, #8]
 8001196:	1c5a      	adds	r2, r3, #1
 8001198:	60ba      	str	r2, [r7, #8]
 800119a:	b2ca      	uxtb	r2, r1
 800119c:	701a      	strb	r2, [r3, #0]
  for (DataIdx = 0; DataIdx < len; DataIdx++)
 800119e:	697b      	ldr	r3, [r7, #20]
 80011a0:	3301      	adds	r3, #1
 80011a2:	617b      	str	r3, [r7, #20]
 80011a4:	697a      	ldr	r2, [r7, #20]
 80011a6:	687b      	ldr	r3, [r7, #4]
 80011a8:	429a      	cmp	r2, r3
 80011aa:	dbf0      	blt.n	800118e <_read+0x12>
  }

  return len;
 80011ac:	687b      	ldr	r3, [r7, #4]
}
 80011ae:	4618      	mov	r0, r3
 80011b0:	3718      	adds	r7, #24
 80011b2:	46bd      	mov	sp, r7
 80011b4:	bd80      	pop	{r7, pc}

080011b6 <_write>:

__attribute__((weak)) int _write(int file, char *ptr, int len)
{
 80011b6:	b580      	push	{r7, lr}
 80011b8:	b086      	sub	sp, #24
 80011ba:	af00      	add	r7, sp, #0
 80011bc:	60f8      	str	r0, [r7, #12]
 80011be:	60b9      	str	r1, [r7, #8]
 80011c0:	607a      	str	r2, [r7, #4]
  (void)file;
  int DataIdx;

  for (DataIdx = 0; DataIdx < len; DataIdx++)
 80011c2:	2300      	movs	r3, #0
 80011c4:	617b      	str	r3, [r7, #20]
 80011c6:	e009      	b.n	80011dc <_write+0x26>
  {
    __io_putchar(*ptr++);
 80011c8:	68bb      	ldr	r3, [r7, #8]
 80011ca:	1c5a      	adds	r2, r3, #1
 80011cc:	60ba      	str	r2, [r7, #8]
 80011ce:	781b      	ldrb	r3, [r3, #0]
 80011d0:	4618      	mov	r0, r3
 80011d2:	f3af 8000 	nop.w
  for (DataIdx = 0; DataIdx < len; DataIdx++)
 80011d6:	697b      	ldr	r3, [r7, #20]
 80011d8:	3301      	adds	r3, #1
 80011da:	617b      	str	r3, [r7, #20]
 80011dc:	697a      	ldr	r2, [r7, #20]
 80011de:	687b      	ldr	r3, [r7, #4]
 80011e0:	429a      	cmp	r2, r3
 80011e2:	dbf1      	blt.n	80011c8 <_write+0x12>
  }
  return len;
 80011e4:	687b      	ldr	r3, [r7, #4]
}
 80011e6:	4618      	mov	r0, r3
 80011e8:	3718      	adds	r7, #24
 80011ea:	46bd      	mov	sp, r7
 80011ec:	bd80      	pop	{r7, pc}

080011ee <_close>:

int _close(int file)
{
 80011ee:	b480      	push	{r7}
 80011f0:	b083      	sub	sp, #12
 80011f2:	af00      	add	r7, sp, #0
 80011f4:	6078      	str	r0, [r7, #4]
  (void)file;
  return -1;
 80011f6:	f04f 33ff 	mov.w	r3, #4294967295
}
 80011fa:	4618      	mov	r0, r3
 80011fc:	370c      	adds	r7, #12
 80011fe:	46bd      	mov	sp, r7
 8001200:	bc80      	pop	{r7}
 8001202:	4770      	bx	lr

08001204 <_fstat>:


int _fstat(int file, struct stat *st)
{
 8001204:	b480      	push	{r7}
 8001206:	b083      	sub	sp, #12
 8001208:	af00      	add	r7, sp, #0
 800120a:	6078      	str	r0, [r7, #4]
 800120c:	6039      	str	r1, [r7, #0]
  (void)file;
  st->st_mode = S_IFCHR;
 800120e:	683b      	ldr	r3, [r7, #0]
 8001210:	f44f 5200 	mov.w	r2, #8192	; 0x2000
 8001214:	605a      	str	r2, [r3, #4]
  return 0;
 8001216:	2300      	movs	r3, #0
}
 8001218:	4618      	mov	r0, r3
 800121a:	370c      	adds	r7, #12
 800121c:	46bd      	mov	sp, r7
 800121e:	bc80      	pop	{r7}
 8001220:	4770      	bx	lr

08001222 <_isatty>:

int _isatty(int file)
{
 8001222:	b480      	push	{r7}
 8001224:	b083      	sub	sp, #12
 8001226:	af00      	add	r7, sp, #0
 8001228:	6078      	str	r0, [r7, #4]
  (void)file;
  return 1;
 800122a:	2301      	movs	r3, #1
}
 800122c:	4618      	mov	r0, r3
 800122e:	370c      	adds	r7, #12
 8001230:	46bd      	mov	sp, r7
 8001232:	bc80      	pop	{r7}
 8001234:	4770      	bx	lr

08001236 <_lseek>:

int _lseek(int file, int ptr, int dir)
{
 8001236:	b480      	push	{r7}
 8001238:	b085      	sub	sp, #20
 800123a:	af00      	add	r7, sp, #0
 800123c:	60f8      	str	r0, [r7, #12]
 800123e:	60b9      	str	r1, [r7, #8]
 8001240:	607a      	str	r2, [r7, #4]
  (void)file;
  (void)ptr;
  (void)dir;
  return 0;
 8001242:	2300      	movs	r3, #0
}
 8001244:	4618      	mov	r0, r3
 8001246:	3714      	adds	r7, #20
 8001248:	46bd      	mov	sp, r7
 800124a:	bc80      	pop	{r7}
 800124c:	4770      	bx	lr
	...

08001250 <_sbrk>:
 *
 * @param incr Memory size
 * @return Pointer to allocated memory
 */
void *_sbrk(ptrdiff_t incr)
{
 8001250:	b580      	push	{r7, lr}
 8001252:	b086      	sub	sp, #24
 8001254:	af00      	add	r7, sp, #0
 8001256:	6078      	str	r0, [r7, #4]
  extern uint8_t _end; /* Symbol defined in the linker script */
  extern uint8_t _estack; /* Symbol defined in the linker script */
  extern uint32_t _Min_Stack_Size; /* Symbol defined in the linker script */
  const uint32_t stack_limit = (uint32_t)&_estack - (uint32_t)&_Min_Stack_Size;
 8001258:	4a14      	ldr	r2, [pc, #80]	; (80012ac <_sbrk+0x5c>)
 800125a:	4b15      	ldr	r3, [pc, #84]	; (80012b0 <_sbrk+0x60>)
 800125c:	1ad3      	subs	r3, r2, r3
 800125e:	617b      	str	r3, [r7, #20]
  const uint8_t *max_heap = (uint8_t *)stack_limit;
 8001260:	697b      	ldr	r3, [r7, #20]
 8001262:	613b      	str	r3, [r7, #16]
  uint8_t *prev_heap_end;

  /* Initialize heap end at first call */
  if (NULL == __sbrk_heap_end)
 8001264:	4b13      	ldr	r3, [pc, #76]	; (80012b4 <_sbrk+0x64>)
 8001266:	681b      	ldr	r3, [r3, #0]
 8001268:	2b00      	cmp	r3, #0
 800126a:	d102      	bne.n	8001272 <_sbrk+0x22>
  {
    __sbrk_heap_end = &_end;
 800126c:	4b11      	ldr	r3, [pc, #68]	; (80012b4 <_sbrk+0x64>)
 800126e:	4a12      	ldr	r2, [pc, #72]	; (80012b8 <_sbrk+0x68>)
 8001270:	601a      	str	r2, [r3, #0]
  }

  /* Protect heap from growing into the reserved MSP stack */
  if (__sbrk_heap_end + incr > max_heap)
 8001272:	4b10      	ldr	r3, [pc, #64]	; (80012b4 <_sbrk+0x64>)
 8001274:	681a      	ldr	r2, [r3, #0]
 8001276:	687b      	ldr	r3, [r7, #4]
 8001278:	4413      	add	r3, r2
 800127a:	693a      	ldr	r2, [r7, #16]
 800127c:	429a      	cmp	r2, r3
 800127e:	d207      	bcs.n	8001290 <_sbrk+0x40>
  {
    errno = ENOMEM;
 8001280:	f001 ff62 	bl	8003148 <__errno>
 8001284:	4603      	mov	r3, r0
 8001286:	220c      	movs	r2, #12
 8001288:	601a      	str	r2, [r3, #0]
    return (void *)-1;
 800128a:	f04f 33ff 	mov.w	r3, #4294967295
 800128e:	e009      	b.n	80012a4 <_sbrk+0x54>
  }

  prev_heap_end = __sbrk_heap_end;
 8001290:	4b08      	ldr	r3, [pc, #32]	; (80012b4 <_sbrk+0x64>)
 8001292:	681b      	ldr	r3, [r3, #0]
 8001294:	60fb      	str	r3, [r7, #12]
  __sbrk_heap_end += incr;
 8001296:	4b07      	ldr	r3, [pc, #28]	; (80012b4 <_sbrk+0x64>)
 8001298:	681a      	ldr	r2, [r3, #0]
 800129a:	687b      	ldr	r3, [r7, #4]
 800129c:	4413      	add	r3, r2
 800129e:	4a05      	ldr	r2, [pc, #20]	; (80012b4 <_sbrk+0x64>)
 80012a0:	6013      	str	r3, [r2, #0]

  return (void *)prev_heap_end;
 80012a2:	68fb      	ldr	r3, [r7, #12]
}
 80012a4:	4618      	mov	r0, r3
 80012a6:	3718      	adds	r7, #24
 80012a8:	46bd      	mov	sp, r7
 80012aa:	bd80      	pop	{r7, pc}
 80012ac:	20005000 	.word	0x20005000
 80012b0:	00000400 	.word	0x00000400
 80012b4:	20000294 	.word	0x20000294
 80012b8:	200002b0 	.word	0x200002b0

080012bc <SystemInit>:
  * @note   This function should be used only after reset.
  * @param  None
  * @retval None
  */
void SystemInit (void)
{
 80012bc:	b480      	push	{r7}
 80012be:	af00      	add	r7, sp, #0

  /* Configure the Vector Table location -------------------------------------*/
#if defined(USER_VECT_TAB_ADDRESS)
  SCB->VTOR = VECT_TAB_BASE_ADDRESS | VECT_TAB_OFFSET; /* Vector Table Relocation in Internal SRAM. */
#endif /* USER_VECT_TAB_ADDRESS */
}
 80012c0:	bf00      	nop
 80012c2:	46bd      	mov	sp, r7
 80012c4:	bc80      	pop	{r7}
 80012c6:	4770      	bx	lr

080012c8 <Reset_Handler>:
  .weak Reset_Handler
  .type Reset_Handler, %function
Reset_Handler:

/* Copy the data segment initializers from flash to SRAM */
  ldr r0, =_sdata
 80012c8:	480c      	ldr	r0, [pc, #48]	; (80012fc <LoopFillZerobss+0x12>)
  ldr r1, =_edata
 80012ca:	490d      	ldr	r1, [pc, #52]	; (8001300 <LoopFillZerobss+0x16>)
  ldr r2, =_sidata
 80012cc:	4a0d      	ldr	r2, [pc, #52]	; (8001304 <LoopFillZerobss+0x1a>)
  movs r3, #0
 80012ce:	2300      	movs	r3, #0
  b LoopCopyDataInit
 80012d0:	e002      	b.n	80012d8 <LoopCopyDataInit>

080012d2 <CopyDataInit>:

CopyDataInit:
  ldr r4, [r2, r3]
 80012d2:	58d4      	ldr	r4, [r2, r3]
  str r4, [r0, r3]
 80012d4:	50c4      	str	r4, [r0, r3]
  adds r3, r3, #4
 80012d6:	3304      	adds	r3, #4

080012d8 <LoopCopyDataInit>:

LoopCopyDataInit:
  adds r4, r0, r3
 80012d8:	18c4      	adds	r4, r0, r3
  cmp r4, r1
 80012da:	428c      	cmp	r4, r1
  bcc CopyDataInit
 80012dc:	d3f9      	bcc.n	80012d2 <CopyDataInit>
  
/* Zero fill the bss segment. */
  ldr r2, =_sbss
 80012de:	4a0a      	ldr	r2, [pc, #40]	; (8001308 <LoopFillZerobss+0x1e>)
  ldr r4, =_ebss
 80012e0:	4c0a      	ldr	r4, [pc, #40]	; (800130c <LoopFillZerobss+0x22>)
  movs r3, #0
 80012e2:	2300      	movs	r3, #0
  b LoopFillZerobss
 80012e4:	e001      	b.n	80012ea <LoopFillZerobss>

080012e6 <FillZerobss>:

FillZerobss:
  str  r3, [r2]
 80012e6:	6013      	str	r3, [r2, #0]
  adds r2, r2, #4
 80012e8:	3204      	adds	r2, #4

080012ea <LoopFillZerobss>:

LoopFillZerobss:
  cmp r2, r4
 80012ea:	42a2      	cmp	r2, r4
  bcc FillZerobss
 80012ec:	d3fb      	bcc.n	80012e6 <FillZerobss>

/* Call the clock system intitialization function.*/
    bl  SystemInit
 80012ee:	f7ff ffe5 	bl	80012bc <SystemInit>
/* Call static constructors */
    bl __libc_init_array
 80012f2:	f001 ff2f 	bl	8003154 <__libc_init_array>
/* Call the application's entry point.*/
  bl main
 80012f6:	f7ff fd21 	bl	8000d3c <main>
  bx lr
 80012fa:	4770      	bx	lr
  ldr r0, =_sdata
 80012fc:	20000000 	.word	0x20000000
  ldr r1, =_edata
 8001300:	200001f0 	.word	0x200001f0
  ldr r2, =_sidata
 8001304:	08007f04 	.word	0x08007f04
  ldr r2, =_sbss
 8001308:	200001f0 	.word	0x200001f0
  ldr r4, =_ebss
 800130c:	200002ac 	.word	0x200002ac

08001310 <ADC1_2_IRQHandler>:
 * @retval : None
*/
    .section .text.Default_Handler,"ax",%progbits
Default_Handler:
Infinite_Loop:
  b Infinite_Loop
 8001310:	e7fe      	b.n	8001310 <ADC1_2_IRQHandler>
	...

08001314 <HAL_Init>:
  *         need to ensure that the SysTick time base is always set to 1 millisecond
  *         to have correct HAL operation.
  * @retval HAL status
  */
HAL_StatusTypeDef HAL_Init(void)
{
 8001314:	b580      	push	{r7, lr}
 8001316:	af00      	add	r7, sp, #0
    defined(STM32F102x6) || defined(STM32F102xB) || \
    defined(STM32F103x6) || defined(STM32F103xB) || defined(STM32F103xE) || defined(STM32F103xG) || \
    defined(STM32F105xC) || defined(STM32F107xC)

  /* Prefetch buffer is not available on value line devices */
  __HAL_FLASH_PREFETCH_BUFFER_ENABLE();
 8001318:	4b08      	ldr	r3, [pc, #32]	; (800133c <HAL_Init+0x28>)
 800131a:	681b      	ldr	r3, [r3, #0]
 800131c:	4a07      	ldr	r2, [pc, #28]	; (800133c <HAL_Init+0x28>)
 800131e:	f043 0310 	orr.w	r3, r3, #16
 8001322:	6013      	str	r3, [r2, #0]
#endif
#endif /* PREFETCH_ENABLE */

  /* Set Interrupt Group Priority */
  HAL_NVIC_SetPriorityGrouping(NVIC_PRIORITYGROUP_4);
 8001324:	2003      	movs	r0, #3
 8001326:	f000 fc51 	bl	8001bcc <HAL_NVIC_SetPriorityGrouping>

  /* Use systick as time base source and configure 1ms tick (default clock after Reset is HSI) */
  HAL_InitTick(TICK_INT_PRIORITY);
 800132a:	200f      	movs	r0, #15
 800132c:	f000 f808 	bl	8001340 <HAL_InitTick>

  /* Init the low level hardware */
  HAL_MspInit();
 8001330:	f7ff fe30 	bl	8000f94 <HAL_MspInit>

  /* Return function status */
  return HAL_OK;
 8001334:	2300      	movs	r3, #0
}
 8001336:	4618      	mov	r0, r3
 8001338:	bd80      	pop	{r7, pc}
 800133a:	bf00      	nop
 800133c:	40022000 	.word	0x40022000

08001340 <HAL_InitTick>:
  *       implementation  in user file.
  * @param TickPriority Tick interrupt priority.
  * @retval HAL status
  */
__weak HAL_StatusTypeDef HAL_InitTick(uint32_t TickPriority)
{
 8001340:	b580      	push	{r7, lr}
 8001342:	b082      	sub	sp, #8
 8001344:	af00      	add	r7, sp, #0
 8001346:	6078      	str	r0, [r7, #4]
  /* Configure the SysTick to have interrupt in 1ms time basis*/
  if (HAL_SYSTICK_Config(SystemCoreClock / (1000U / uwTickFreq)) > 0U)
 8001348:	4b12      	ldr	r3, [pc, #72]	; (8001394 <HAL_InitTick+0x54>)
 800134a:	681a      	ldr	r2, [r3, #0]
 800134c:	4b12      	ldr	r3, [pc, #72]	; (8001398 <HAL_InitTick+0x58>)
 800134e:	781b      	ldrb	r3, [r3, #0]
 8001350:	4619      	mov	r1, r3
 8001352:	f44f 737a 	mov.w	r3, #1000	; 0x3e8
 8001356:	fbb3 f3f1 	udiv	r3, r3, r1
 800135a:	fbb2 f3f3 	udiv	r3, r2, r3
 800135e:	4618      	mov	r0, r3
 8001360:	f000 fc5b 	bl	8001c1a <HAL_SYSTICK_Config>
 8001364:	4603      	mov	r3, r0
 8001366:	2b00      	cmp	r3, #0
 8001368:	d001      	beq.n	800136e <HAL_InitTick+0x2e>
  {
    return HAL_ERROR;
 800136a:	2301      	movs	r3, #1
 800136c:	e00e      	b.n	800138c <HAL_InitTick+0x4c>
  }

  /* Configure the SysTick IRQ priority */
  if (TickPriority < (1UL << __NVIC_PRIO_BITS))
 800136e:	687b      	ldr	r3, [r7, #4]
 8001370:	2b0f      	cmp	r3, #15
 8001372:	d80a      	bhi.n	800138a <HAL_InitTick+0x4a>
  {
    HAL_NVIC_SetPriority(SysTick_IRQn, TickPriority, 0U);
 8001374:	2200      	movs	r2, #0
 8001376:	6879      	ldr	r1, [r7, #4]
 8001378:	f04f 30ff 	mov.w	r0, #4294967295
 800137c:	f000 fc31 	bl	8001be2 <HAL_NVIC_SetPriority>
    uwTickPrio = TickPriority;
 8001380:	4a06      	ldr	r2, [pc, #24]	; (800139c <HAL_InitTick+0x5c>)
 8001382:	687b      	ldr	r3, [r7, #4]
 8001384:	6013      	str	r3, [r2, #0]
  {
    return HAL_ERROR;
  }

  /* Return function status */
  return HAL_OK;
 8001386:	2300      	movs	r3, #0
 8001388:	e000      	b.n	800138c <HAL_InitTick+0x4c>
    return HAL_ERROR;
 800138a:	2301      	movs	r3, #1
}
 800138c:	4618      	mov	r0, r3
 800138e:	3708      	adds	r7, #8
 8001390:	46bd      	mov	sp, r7
 8001392:	bd80      	pop	{r7, pc}
 8001394:	20000010 	.word	0x20000010
 8001398:	20000018 	.word	0x20000018
 800139c:	20000014 	.word	0x20000014

080013a0 <HAL_IncTick>:
  * @note This function is declared as __weak to be overwritten in case of other
  *      implementations in user file.
  * @retval None
  */
__weak void HAL_IncTick(void)
{
 80013a0:	b480      	push	{r7}
 80013a2:	af00      	add	r7, sp, #0
  uwTick += uwTickFreq;
 80013a4:	4b05      	ldr	r3, [pc, #20]	; (80013bc <HAL_IncTick+0x1c>)
 80013a6:	781b      	ldrb	r3, [r3, #0]
 80013a8:	461a      	mov	r2, r3
 80013aa:	4b05      	ldr	r3, [pc, #20]	; (80013c0 <HAL_IncTick+0x20>)
 80013ac:	681b      	ldr	r3, [r3, #0]
 80013ae:	4413      	add	r3, r2
 80013b0:	4a03      	ldr	r2, [pc, #12]	; (80013c0 <HAL_IncTick+0x20>)
 80013b2:	6013      	str	r3, [r2, #0]
}
 80013b4:	bf00      	nop
 80013b6:	46bd      	mov	sp, r7
 80013b8:	bc80      	pop	{r7}
 80013ba:	4770      	bx	lr
 80013bc:	20000018 	.word	0x20000018
 80013c0:	20000298 	.word	0x20000298

080013c4 <HAL_GetTick>:
  * @note  This function is declared as __weak to be overwritten in case of other
  *       implementations in user file.
  * @retval tick value
  */
__weak uint32_t HAL_GetTick(void)
{
 80013c4:	b480      	push	{r7}
 80013c6:	af00      	add	r7, sp, #0
  return uwTick;
 80013c8:	4b02      	ldr	r3, [pc, #8]	; (80013d4 <HAL_GetTick+0x10>)
 80013ca:	681b      	ldr	r3, [r3, #0]
}
 80013cc:	4618      	mov	r0, r3
 80013ce:	46bd      	mov	sp, r7
 80013d0:	bc80      	pop	{r7}
 80013d2:	4770      	bx	lr
 80013d4:	20000298 	.word	0x20000298

080013d8 <HAL_Delay>:
  *       implementations in user file.
  * @param Delay specifies the delay time length, in milliseconds.
  * @retval None
  */
__weak void HAL_Delay(uint32_t Delay)
{
 80013d8:	b580      	push	{r7, lr}
 80013da:	b084      	sub	sp, #16
 80013dc:	af00      	add	r7, sp, #0
 80013de:	6078      	str	r0, [r7, #4]
  uint32_t tickstart = HAL_GetTick();
 80013e0:	f7ff fff0 	bl	80013c4 <HAL_GetTick>
 80013e4:	60b8      	str	r0, [r7, #8]
  uint32_t wait = Delay;
 80013e6:	687b      	ldr	r3, [r7, #4]
 80013e8:	60fb      	str	r3, [r7, #12]

  /* Add a freq to guarantee minimum wait */
  if (wait < HAL_MAX_DELAY)
 80013ea:	68fb      	ldr	r3, [r7, #12]
 80013ec:	f1b3 3fff 	cmp.w	r3, #4294967295
 80013f0:	d005      	beq.n	80013fe <HAL_Delay+0x26>
  {
    wait += (uint32_t)(uwTickFreq);
 80013f2:	4b0a      	ldr	r3, [pc, #40]	; (800141c <HAL_Delay+0x44>)
 80013f4:	781b      	ldrb	r3, [r3, #0]
 80013f6:	461a      	mov	r2, r3
 80013f8:	68fb      	ldr	r3, [r7, #12]
 80013fa:	4413      	add	r3, r2
 80013fc:	60fb      	str	r3, [r7, #12]
  }

  while ((HAL_GetTick() - tickstart) < wait)
 80013fe:	bf00      	nop
 8001400:	f7ff ffe0 	bl	80013c4 <HAL_GetTick>
 8001404:	4602      	mov	r2, r0
 8001406:	68bb      	ldr	r3, [r7, #8]
 8001408:	1ad3      	subs	r3, r2, r3
 800140a:	68fa      	ldr	r2, [r7, #12]
 800140c:	429a      	cmp	r2, r3
 800140e:	d8f7      	bhi.n	8001400 <HAL_Delay+0x28>
  {
  }
}
 8001410:	bf00      	nop
 8001412:	bf00      	nop
 8001414:	3710      	adds	r7, #16
 8001416:	46bd      	mov	sp, r7
 8001418:	bd80      	pop	{r7, pc}
 800141a:	bf00      	nop
 800141c:	20000018 	.word	0x20000018

08001420 <HAL_ADC_Init>:
  *         of structure "ADC_InitTypeDef".
  * @param  hadc: ADC handle
  * @retval HAL status
  */
HAL_StatusTypeDef HAL_ADC_Init(ADC_HandleTypeDef* hadc)
{
 8001420:	b580      	push	{r7, lr}
 8001422:	b086      	sub	sp, #24
 8001424:	af00      	add	r7, sp, #0
 8001426:	6078      	str	r0, [r7, #4]
  HAL_StatusTypeDef tmp_hal_status = HAL_OK;
 8001428:	2300      	movs	r3, #0
 800142a:	75fb      	strb	r3, [r7, #23]
  uint32_t tmp_cr1 = 0U;
 800142c:	2300      	movs	r3, #0
 800142e:	613b      	str	r3, [r7, #16]
  uint32_t tmp_cr2 = 0U;
 8001430:	2300      	movs	r3, #0
 8001432:	60bb      	str	r3, [r7, #8]
  uint32_t tmp_sqr1 = 0U;
 8001434:	2300      	movs	r3, #0
 8001436:	60fb      	str	r3, [r7, #12]
  
  /* Check ADC handle */
  if(hadc == NULL)
 8001438:	687b      	ldr	r3, [r7, #4]
 800143a:	2b00      	cmp	r3, #0
 800143c:	d101      	bne.n	8001442 <HAL_ADC_Init+0x22>
  {
    return HAL_ERROR;
 800143e:	2301      	movs	r3, #1
 8001440:	e0be      	b.n	80015c0 <HAL_ADC_Init+0x1a0>
  assert_param(IS_ADC_DATA_ALIGN(hadc->Init.DataAlign));
  assert_param(IS_ADC_SCAN_MODE(hadc->Init.ScanConvMode));
  assert_param(IS_FUNCTIONAL_STATE(hadc->Init.ContinuousConvMode));
  assert_param(IS_ADC_EXTTRIG(hadc->Init.ExternalTrigConv));
  
  if(hadc->Init.ScanConvMode != ADC_SCAN_DISABLE)
 8001442:	687b      	ldr	r3, [r7, #4]
 8001444:	689b      	ldr	r3, [r3, #8]
 8001446:	2b00      	cmp	r3, #0
  /* Refer to header of this file for more details on clock enabling          */
  /* procedure.                                                               */

  /* Actions performed only if ADC is coming from state reset:                */
  /* - Initialization of ADC MSP                                              */
  if (hadc->State == HAL_ADC_STATE_RESET)
 8001448:	687b      	ldr	r3, [r7, #4]
 800144a:	6a9b      	ldr	r3, [r3, #40]	; 0x28
 800144c:	2b00      	cmp	r3, #0
 800144e:	d109      	bne.n	8001464 <HAL_ADC_Init+0x44>
  {
    /* Initialize ADC error code */
    ADC_CLEAR_ERRORCODE(hadc);
 8001450:	687b      	ldr	r3, [r7, #4]
 8001452:	2200      	movs	r2, #0
 8001454:	62da      	str	r2, [r3, #44]	; 0x2c
    
    /* Allocate lock resource and initialize it */
    hadc->Lock = HAL_UNLOCKED;
 8001456:	687b      	ldr	r3, [r7, #4]
 8001458:	2200      	movs	r2, #0
 800145a:	f883 2024 	strb.w	r2, [r3, #36]	; 0x24
    
    /* Init the low level hardware */
    hadc->MspInitCallback(hadc);
#else
    /* Init the low level hardware */
    HAL_ADC_MspInit(hadc);
 800145e:	6878      	ldr	r0, [r7, #4]
 8001460:	f7ff fdca 	bl	8000ff8 <HAL_ADC_MspInit>
  /* Stop potential conversion on going, on regular and injected groups */
  /* Disable ADC peripheral */
  /* Note: In case of ADC already enabled, precaution to not launch an        */
  /*       unwanted conversion while modifying register CR2 by writing 1 to   */
  /*       bit ADON.                                                          */
  tmp_hal_status = ADC_ConversionStop_Disable(hadc);
 8001464:	6878      	ldr	r0, [r7, #4]
 8001466:	f000 fabf 	bl	80019e8 <ADC_ConversionStop_Disable>
 800146a:	4603      	mov	r3, r0
 800146c:	75fb      	strb	r3, [r7, #23]
  
  
  /* Configuration of ADC parameters if previous preliminary actions are      */ 
  /* correctly completed.                                                     */
  if (HAL_IS_BIT_CLR(hadc->State, HAL_ADC_STATE_ERROR_INTERNAL) &&
 800146e:	687b      	ldr	r3, [r7, #4]
 8001470:	6a9b      	ldr	r3, [r3, #40]	; 0x28
 8001472:	f003 0310 	and.w	r3, r3, #16
 8001476:	2b00      	cmp	r3, #0
 8001478:	f040 8099 	bne.w	80015ae <HAL_ADC_Init+0x18e>
 800147c:	7dfb      	ldrb	r3, [r7, #23]
 800147e:	2b00      	cmp	r3, #0
 8001480:	f040 8095 	bne.w	80015ae <HAL_ADC_Init+0x18e>
      (tmp_hal_status == HAL_OK)                                  )
  {
    /* Set ADC state */
    ADC_STATE_CLR_SET(hadc->State,
 8001484:	687b      	ldr	r3, [r7, #4]
 8001486:	6a9b      	ldr	r3, [r3, #40]	; 0x28
 8001488:	f423 5388 	bic.w	r3, r3, #4352	; 0x1100
 800148c:	f023 0302 	bic.w	r3, r3, #2
 8001490:	f043 0202 	orr.w	r2, r3, #2
 8001494:	687b      	ldr	r3, [r7, #4]
 8001496:	629a      	str	r2, [r3, #40]	; 0x28
    /*  - continuous conversion mode                                          */
    /* Note: External trigger polarity (ADC_CR2_EXTTRIG) is set into          */
    /*       HAL_ADC_Start_xxx functions because if set in this function,     */
    /*       a conversion on injected group would start a conversion also on  */
    /*       regular group after ADC enabling.                                */
    tmp_cr2 |= (hadc->Init.DataAlign                                          |
 8001498:	687b      	ldr	r3, [r7, #4]
 800149a:	685a      	ldr	r2, [r3, #4]
                ADC_CFGR_EXTSEL(hadc, hadc->Init.ExternalTrigConv)            |
 800149c:	687b      	ldr	r3, [r7, #4]
 800149e:	69db      	ldr	r3, [r3, #28]
    tmp_cr2 |= (hadc->Init.DataAlign                                          |
 80014a0:	431a      	orrs	r2, r3
                ADC_CR2_CONTINUOUS((uint32_t)hadc->Init.ContinuousConvMode)   );
 80014a2:	687b      	ldr	r3, [r7, #4]
 80014a4:	7b1b      	ldrb	r3, [r3, #12]
 80014a6:	005b      	lsls	r3, r3, #1
                ADC_CFGR_EXTSEL(hadc, hadc->Init.ExternalTrigConv)            |
 80014a8:	4313      	orrs	r3, r2
    tmp_cr2 |= (hadc->Init.DataAlign                                          |
 80014aa:	68ba      	ldr	r2, [r7, #8]
 80014ac:	4313      	orrs	r3, r2
 80014ae:	60bb      	str	r3, [r7, #8]

    /* Configuration of ADC:                                                  */
    /*  - scan mode                                                           */
    /*  - discontinuous mode disable/enable                                   */
    /*  - discontinuous mode number of conversions                            */
    tmp_cr1 |= (ADC_CR1_SCAN_SET(hadc->Init.ScanConvMode));
 80014b0:	687b      	ldr	r3, [r7, #4]
 80014b2:	689b      	ldr	r3, [r3, #8]
 80014b4:	f5b3 7f80 	cmp.w	r3, #256	; 0x100
 80014b8:	d003      	beq.n	80014c2 <HAL_ADC_Init+0xa2>
 80014ba:	687b      	ldr	r3, [r7, #4]
 80014bc:	689b      	ldr	r3, [r3, #8]
 80014be:	2b01      	cmp	r3, #1
 80014c0:	d102      	bne.n	80014c8 <HAL_ADC_Init+0xa8>
 80014c2:	f44f 7380 	mov.w	r3, #256	; 0x100
 80014c6:	e000      	b.n	80014ca <HAL_ADC_Init+0xaa>
 80014c8:	2300      	movs	r3, #0
 80014ca:	693a      	ldr	r2, [r7, #16]
 80014cc:	4313      	orrs	r3, r2
 80014ce:	613b      	str	r3, [r7, #16]
    
    /* Enable discontinuous mode only if continuous mode is disabled */
    /* Note: If parameter "Init.ScanConvMode" is set to disable, parameter    */
    /*       discontinuous is set anyway, but will have no effect on ADC HW.  */
    if (hadc->Init.DiscontinuousConvMode == ENABLE)
 80014d0:	687b      	ldr	r3, [r7, #4]
 80014d2:	7d1b      	ldrb	r3, [r3, #20]
 80014d4:	2b01      	cmp	r3, #1
 80014d6:	d119      	bne.n	800150c <HAL_ADC_Init+0xec>
    {
      if (hadc->Init.ContinuousConvMode == DISABLE)
 80014d8:	687b      	ldr	r3, [r7, #4]
 80014da:	7b1b      	ldrb	r3, [r3, #12]
 80014dc:	2b00      	cmp	r3, #0
 80014de:	d109      	bne.n	80014f4 <HAL_ADC_Init+0xd4>
      {
        /* Enable the selected ADC regular discontinuous mode */
        /* Set the number of channels to be converted in discontinuous mode */
        SET_BIT(tmp_cr1, ADC_CR1_DISCEN                                            |
 80014e0:	687b      	ldr	r3, [r7, #4]
 80014e2:	699b      	ldr	r3, [r3, #24]
 80014e4:	3b01      	subs	r3, #1
 80014e6:	035a      	lsls	r2, r3, #13
 80014e8:	693b      	ldr	r3, [r7, #16]
 80014ea:	4313      	orrs	r3, r2
 80014ec:	f443 6300 	orr.w	r3, r3, #2048	; 0x800
 80014f0:	613b      	str	r3, [r7, #16]
 80014f2:	e00b      	b.n	800150c <HAL_ADC_Init+0xec>
      {
        /* ADC regular group settings continuous and sequencer discontinuous*/
        /* cannot be enabled simultaneously.                                */
        
        /* Update ADC state machine to error */
        SET_BIT(hadc->State, HAL_ADC_STATE_ERROR_CONFIG);
 80014f4:	687b      	ldr	r3, [r7, #4]
 80014f6:	6a9b      	ldr	r3, [r3, #40]	; 0x28
 80014f8:	f043 0220 	orr.w	r2, r3, #32
 80014fc:	687b      	ldr	r3, [r7, #4]
 80014fe:	629a      	str	r2, [r3, #40]	; 0x28
        
        /* Set ADC error code to ADC IP internal error */
        SET_BIT(hadc->ErrorCode, HAL_ADC_ERROR_INTERNAL);
 8001500:	687b      	ldr	r3, [r7, #4]
 8001502:	6adb      	ldr	r3, [r3, #44]	; 0x2c
 8001504:	f043 0201 	orr.w	r2, r3, #1
 8001508:	687b      	ldr	r3, [r7, #4]
 800150a:	62da      	str	r2, [r3, #44]	; 0x2c
      }
    }
    
    /* Update ADC configuration register CR1 with previous settings */
      MODIFY_REG(hadc->Instance->CR1,
 800150c:	687b      	ldr	r3, [r7, #4]
 800150e:	681b      	ldr	r3, [r3, #0]
 8001510:	685b      	ldr	r3, [r3, #4]
 8001512:	f423 4169 	bic.w	r1, r3, #59648	; 0xe900
 8001516:	687b      	ldr	r3, [r7, #4]
 8001518:	681b      	ldr	r3, [r3, #0]
 800151a:	693a      	ldr	r2, [r7, #16]
 800151c:	430a      	orrs	r2, r1
 800151e:	605a      	str	r2, [r3, #4]
                 ADC_CR1_DISCEN  |
                 ADC_CR1_DISCNUM    ,
                 tmp_cr1             );
    
    /* Update ADC configuration register CR2 with previous settings */
      MODIFY_REG(hadc->Instance->CR2,
 8001520:	687b      	ldr	r3, [r7, #4]
 8001522:	681b      	ldr	r3, [r3, #0]
 8001524:	689a      	ldr	r2, [r3, #8]
 8001526:	4b28      	ldr	r3, [pc, #160]	; (80015c8 <HAL_ADC_Init+0x1a8>)
 8001528:	4013      	ands	r3, r2
 800152a:	687a      	ldr	r2, [r7, #4]
 800152c:	6812      	ldr	r2, [r2, #0]
 800152e:	68b9      	ldr	r1, [r7, #8]
 8001530:	430b      	orrs	r3, r1
 8001532:	6093      	str	r3, [r2, #8]
    /*   Note: Scan mode is present by hardware on this device and, if        */
    /*   disabled, discards automatically nb of conversions. Anyway, nb of    */
    /*   conversions is forced to 0x00 for alignment over all STM32 devices.  */
    /* - if scan mode is enabled, regular channels sequence length is set to  */
    /*   parameter "NbrOfConversion"                                          */
    if (ADC_CR1_SCAN_SET(hadc->Init.ScanConvMode) == ADC_SCAN_ENABLE)
 8001534:	687b      	ldr	r3, [r7, #4]
 8001536:	689b      	ldr	r3, [r3, #8]
 8001538:	f5b3 7f80 	cmp.w	r3, #256	; 0x100
 800153c:	d003      	beq.n	8001546 <HAL_ADC_Init+0x126>
 800153e:	687b      	ldr	r3, [r7, #4]
 8001540:	689b      	ldr	r3, [r3, #8]
 8001542:	2b01      	cmp	r3, #1
 8001544:	d104      	bne.n	8001550 <HAL_ADC_Init+0x130>
    {
      tmp_sqr1 = ADC_SQR1_L_SHIFT(hadc->Init.NbrOfConversion);
 8001546:	687b      	ldr	r3, [r7, #4]
 8001548:	691b      	ldr	r3, [r3, #16]
 800154a:	3b01      	subs	r3, #1
 800154c:	051b      	lsls	r3, r3, #20
 800154e:	60fb      	str	r3, [r7, #12]
    }
      
    MODIFY_REG(hadc->Instance->SQR1,
 8001550:	687b      	ldr	r3, [r7, #4]
 8001552:	681b      	ldr	r3, [r3, #0]
 8001554:	6adb      	ldr	r3, [r3, #44]	; 0x2c
 8001556:	f423 0170 	bic.w	r1, r3, #15728640	; 0xf00000
 800155a:	687b      	ldr	r3, [r7, #4]
 800155c:	681b      	ldr	r3, [r3, #0]
 800155e:	68fa      	ldr	r2, [r7, #12]
 8001560:	430a      	orrs	r2, r1
 8001562:	62da      	str	r2, [r3, #44]	; 0x2c
    /* ensure of no potential problem of ADC core IP clocking.                */
    /* Check through register CR2 (excluding bits set in other functions:     */
    /* execution control bits (ADON, JSWSTART, SWSTART), regular group bits   */
    /* (DMA), injected group bits (JEXTTRIG and JEXTSEL), channel internal    */
    /* measurement path bit (TSVREFE).                                        */
    if (READ_BIT(hadc->Instance->CR2, ~(ADC_CR2_ADON | ADC_CR2_DMA |
 8001564:	687b      	ldr	r3, [r7, #4]
 8001566:	681b      	ldr	r3, [r3, #0]
 8001568:	689a      	ldr	r2, [r3, #8]
 800156a:	4b18      	ldr	r3, [pc, #96]	; (80015cc <HAL_ADC_Init+0x1ac>)
 800156c:	4013      	ands	r3, r2
 800156e:	68ba      	ldr	r2, [r7, #8]
 8001570:	429a      	cmp	r2, r3
 8001572:	d10b      	bne.n	800158c <HAL_ADC_Init+0x16c>
                                        ADC_CR2_JEXTTRIG | ADC_CR2_JEXTSEL |
                                        ADC_CR2_TSVREFE                     ))
         == tmp_cr2)
    {
      /* Set ADC error code to none */
      ADC_CLEAR_ERRORCODE(hadc);
 8001574:	687b      	ldr	r3, [r7, #4]
 8001576:	2200      	movs	r2, #0
 8001578:	62da      	str	r2, [r3, #44]	; 0x2c
      
      /* Set the ADC state */
      ADC_STATE_CLR_SET(hadc->State,
 800157a:	687b      	ldr	r3, [r7, #4]
 800157c:	6a9b      	ldr	r3, [r3, #40]	; 0x28
 800157e:	f023 0303 	bic.w	r3, r3, #3
 8001582:	f043 0201 	orr.w	r2, r3, #1
 8001586:	687b      	ldr	r3, [r7, #4]
 8001588:	629a      	str	r2, [r3, #40]	; 0x28
    if (READ_BIT(hadc->Instance->CR2, ~(ADC_CR2_ADON | ADC_CR2_DMA |
 800158a:	e018      	b.n	80015be <HAL_ADC_Init+0x19e>
                        HAL_ADC_STATE_READY);
    }
    else
    {
      /* Update ADC state machine to error */
      ADC_STATE_CLR_SET(hadc->State,
 800158c:	687b      	ldr	r3, [r7, #4]
 800158e:	6a9b      	ldr	r3, [r3, #40]	; 0x28
 8001590:	f023 0312 	bic.w	r3, r3, #18
 8001594:	f043 0210 	orr.w	r2, r3, #16
 8001598:	687b      	ldr	r3, [r7, #4]
 800159a:	629a      	str	r2, [r3, #40]	; 0x28
                        HAL_ADC_STATE_BUSY_INTERNAL,
                        HAL_ADC_STATE_ERROR_INTERNAL);
      
      /* Set ADC error code to ADC IP internal error */
      SET_BIT(hadc->ErrorCode, HAL_ADC_ERROR_INTERNAL);
 800159c:	687b      	ldr	r3, [r7, #4]
 800159e:	6adb      	ldr	r3, [r3, #44]	; 0x2c
 80015a0:	f043 0201 	orr.w	r2, r3, #1
 80015a4:	687b      	ldr	r3, [r7, #4]
 80015a6:	62da      	str	r2, [r3, #44]	; 0x2c
      
      tmp_hal_status = HAL_ERROR;
 80015a8:	2301      	movs	r3, #1
 80015aa:	75fb      	strb	r3, [r7, #23]
    if (READ_BIT(hadc->Instance->CR2, ~(ADC_CR2_ADON | ADC_CR2_DMA |
 80015ac:	e007      	b.n	80015be <HAL_ADC_Init+0x19e>
  
  }
  else
  {
    /* Update ADC state machine to error */
    SET_BIT(hadc->State, HAL_ADC_STATE_ERROR_INTERNAL);
 80015ae:	687b      	ldr	r3, [r7, #4]
 80015b0:	6a9b      	ldr	r3, [r3, #40]	; 0x28
 80015b2:	f043 0210 	orr.w	r2, r3, #16
 80015b6:	687b      	ldr	r3, [r7, #4]
 80015b8:	629a      	str	r2, [r3, #40]	; 0x28
        
    tmp_hal_status = HAL_ERROR;
 80015ba:	2301      	movs	r3, #1
 80015bc:	75fb      	strb	r3, [r7, #23]
  }
  
  /* Return function status */
  return tmp_hal_status;
 80015be:	7dfb      	ldrb	r3, [r7, #23]
}
 80015c0:	4618      	mov	r0, r3
 80015c2:	3718      	adds	r7, #24
 80015c4:	46bd      	mov	sp, r7
 80015c6:	bd80      	pop	{r7, pc}
 80015c8:	ffe1f7fd 	.word	0xffe1f7fd
 80015cc:	ff1f0efe 	.word	0xff1f0efe

080015d0 <HAL_ADC_Start>:
  *         Interruptions enabled in this function: None.
  * @param  hadc: ADC handle
  * @retval HAL status
  */
HAL_StatusTypeDef HAL_ADC_Start(ADC_HandleTypeDef* hadc)
{
 80015d0:	b580      	push	{r7, lr}
 80015d2:	b084      	sub	sp, #16
 80015d4:	af00      	add	r7, sp, #0
 80015d6:	6078      	str	r0, [r7, #4]
  HAL_StatusTypeDef tmp_hal_status = HAL_OK;
 80015d8:	2300      	movs	r3, #0
 80015da:	73fb      	strb	r3, [r7, #15]
  
  /* Check the parameters */
  assert_param(IS_ADC_ALL_INSTANCE(hadc->Instance));
  
  /* Process locked */
  __HAL_LOCK(hadc);
 80015dc:	687b      	ldr	r3, [r7, #4]
 80015de:	f893 3024 	ldrb.w	r3, [r3, #36]	; 0x24
 80015e2:	2b01      	cmp	r3, #1
 80015e4:	d101      	bne.n	80015ea <HAL_ADC_Start+0x1a>
 80015e6:	2302      	movs	r3, #2
 80015e8:	e098      	b.n	800171c <HAL_ADC_Start+0x14c>
 80015ea:	687b      	ldr	r3, [r7, #4]
 80015ec:	2201      	movs	r2, #1
 80015ee:	f883 2024 	strb.w	r2, [r3, #36]	; 0x24
   
  /* Enable the ADC peripheral */
  tmp_hal_status = ADC_Enable(hadc);
 80015f2:	6878      	ldr	r0, [r7, #4]
 80015f4:	f000 f99e 	bl	8001934 <ADC_Enable>
 80015f8:	4603      	mov	r3, r0
 80015fa:	73fb      	strb	r3, [r7, #15]
  
  /* Start conversion if ADC is effectively enabled */
  if (tmp_hal_status == HAL_OK)
 80015fc:	7bfb      	ldrb	r3, [r7, #15]
 80015fe:	2b00      	cmp	r3, #0
 8001600:	f040 8087 	bne.w	8001712 <HAL_ADC_Start+0x142>
  {
    /* Set ADC state                                                          */
    /* - Clear state bitfield related to regular group conversion results     */
    /* - Set state bitfield related to regular operation                      */
    ADC_STATE_CLR_SET(hadc->State,
 8001604:	687b      	ldr	r3, [r7, #4]
 8001606:	6a9b      	ldr	r3, [r3, #40]	; 0x28
 8001608:	f423 7340 	bic.w	r3, r3, #768	; 0x300
 800160c:	f023 0301 	bic.w	r3, r3, #1
 8001610:	f443 7280 	orr.w	r2, r3, #256	; 0x100
 8001614:	687b      	ldr	r3, [r7, #4]
 8001616:	629a      	str	r2, [r3, #40]	; 0x28
                      HAL_ADC_STATE_REG_BUSY);
    
    /* Set group injected state (from auto-injection) and multimode state     */
    /* for all cases of multimode: independent mode, multimode ADC master     */
    /* or multimode ADC slave (for devices with several ADCs):                */
    if (ADC_NONMULTIMODE_OR_MULTIMODEMASTER(hadc))
 8001618:	687b      	ldr	r3, [r7, #4]
 800161a:	681b      	ldr	r3, [r3, #0]
 800161c:	4a41      	ldr	r2, [pc, #260]	; (8001724 <HAL_ADC_Start+0x154>)
 800161e:	4293      	cmp	r3, r2
 8001620:	d105      	bne.n	800162e <HAL_ADC_Start+0x5e>
 8001622:	4b41      	ldr	r3, [pc, #260]	; (8001728 <HAL_ADC_Start+0x158>)
 8001624:	685b      	ldr	r3, [r3, #4]
 8001626:	f403 2370 	and.w	r3, r3, #983040	; 0xf0000
 800162a:	2b00      	cmp	r3, #0
 800162c:	d115      	bne.n	800165a <HAL_ADC_Start+0x8a>
    {
      /* Set ADC state (ADC independent or master) */
      CLEAR_BIT(hadc->State, HAL_ADC_STATE_MULTIMODE_SLAVE);
 800162e:	687b      	ldr	r3, [r7, #4]
 8001630:	6a9b      	ldr	r3, [r3, #40]	; 0x28
 8001632:	f423 1280 	bic.w	r2, r3, #1048576	; 0x100000
 8001636:	687b      	ldr	r3, [r7, #4]
 8001638:	629a      	str	r2, [r3, #40]	; 0x28
      
      /* If conversions on group regular are also triggering group injected,  */
      /* update ADC state.                                                    */
      if (READ_BIT(hadc->Instance->CR1, ADC_CR1_JAUTO) != RESET)
 800163a:	687b      	ldr	r3, [r7, #4]
 800163c:	681b      	ldr	r3, [r3, #0]
 800163e:	685b      	ldr	r3, [r3, #4]
 8001640:	f403 6380 	and.w	r3, r3, #1024	; 0x400
 8001644:	2b00      	cmp	r3, #0
 8001646:	d026      	beq.n	8001696 <HAL_ADC_Start+0xc6>
      {
        ADC_STATE_CLR_SET(hadc->State, HAL_ADC_STATE_INJ_EOC, HAL_ADC_STATE_INJ_BUSY);  
 8001648:	687b      	ldr	r3, [r7, #4]
 800164a:	6a9b      	ldr	r3, [r3, #40]	; 0x28
 800164c:	f423 5340 	bic.w	r3, r3, #12288	; 0x3000
 8001650:	f443 5280 	orr.w	r2, r3, #4096	; 0x1000
 8001654:	687b      	ldr	r3, [r7, #4]
 8001656:	629a      	str	r2, [r3, #40]	; 0x28
      if (READ_BIT(hadc->Instance->CR1, ADC_CR1_JAUTO) != RESET)
 8001658:	e01d      	b.n	8001696 <HAL_ADC_Start+0xc6>
      }
    }
    else
    {
      /* Set ADC state (ADC slave) */
      SET_BIT(hadc->State, HAL_ADC_STATE_MULTIMODE_SLAVE);
 800165a:	687b      	ldr	r3, [r7, #4]
 800165c:	6a9b      	ldr	r3, [r3, #40]	; 0x28
 800165e:	f443 1280 	orr.w	r2, r3, #1048576	; 0x100000
 8001662:	687b      	ldr	r3, [r7, #4]
 8001664:	629a      	str	r2, [r3, #40]	; 0x28
      
      /* If conversions on group regular are also triggering group injected,  */
      /* update ADC state.                                                    */
      if (ADC_MULTIMODE_AUTO_INJECTED(hadc))
 8001666:	687b      	ldr	r3, [r7, #4]
 8001668:	681b      	ldr	r3, [r3, #0]
 800166a:	4a2f      	ldr	r2, [pc, #188]	; (8001728 <HAL_ADC_Start+0x158>)
 800166c:	4293      	cmp	r3, r2
 800166e:	d004      	beq.n	800167a <HAL_ADC_Start+0xaa>
 8001670:	687b      	ldr	r3, [r7, #4]
 8001672:	681b      	ldr	r3, [r3, #0]
 8001674:	4a2b      	ldr	r2, [pc, #172]	; (8001724 <HAL_ADC_Start+0x154>)
 8001676:	4293      	cmp	r3, r2
 8001678:	d10d      	bne.n	8001696 <HAL_ADC_Start+0xc6>
 800167a:	4b2b      	ldr	r3, [pc, #172]	; (8001728 <HAL_ADC_Start+0x158>)
 800167c:	685b      	ldr	r3, [r3, #4]
 800167e:	f403 6380 	and.w	r3, r3, #1024	; 0x400
 8001682:	2b00      	cmp	r3, #0
 8001684:	d007      	beq.n	8001696 <HAL_ADC_Start+0xc6>
      {
        ADC_STATE_CLR_SET(hadc->State, HAL_ADC_STATE_INJ_EOC, HAL_ADC_STATE_INJ_BUSY);
 8001686:	687b      	ldr	r3, [r7, #4]
 8001688:	6a9b      	ldr	r3, [r3, #40]	; 0x28
 800168a:	f423 5340 	bic.w	r3, r3, #12288	; 0x3000
 800168e:	f443 5280 	orr.w	r2, r3, #4096	; 0x1000
 8001692:	687b      	ldr	r3, [r7, #4]
 8001694:	629a      	str	r2, [r3, #40]	; 0x28
      }
    }
    
    /* State machine update: Check if an injected conversion is ongoing */
    if (HAL_IS_BIT_SET(hadc->State, HAL_ADC_STATE_INJ_BUSY))
 8001696:	687b      	ldr	r3, [r7, #4]
 8001698:	6a9b      	ldr	r3, [r3, #40]	; 0x28
 800169a:	f403 5380 	and.w	r3, r3, #4096	; 0x1000
 800169e:	2b00      	cmp	r3, #0
 80016a0:	d006      	beq.n	80016b0 <HAL_ADC_Start+0xe0>
    {
      /* Reset ADC error code fields related to conversions on group regular */
      CLEAR_BIT(hadc->ErrorCode, (HAL_ADC_ERROR_OVR | HAL_ADC_ERROR_DMA));         
 80016a2:	687b      	ldr	r3, [r7, #4]
 80016a4:	6adb      	ldr	r3, [r3, #44]	; 0x2c
 80016a6:	f023 0206 	bic.w	r2, r3, #6
 80016aa:	687b      	ldr	r3, [r7, #4]
 80016ac:	62da      	str	r2, [r3, #44]	; 0x2c
 80016ae:	e002      	b.n	80016b6 <HAL_ADC_Start+0xe6>
    }
    else
    {
      /* Reset ADC all error code fields */
      ADC_CLEAR_ERRORCODE(hadc);
 80016b0:	687b      	ldr	r3, [r7, #4]
 80016b2:	2200      	movs	r2, #0
 80016b4:	62da      	str	r2, [r3, #44]	; 0x2c
    }
    
    /* Process unlocked */
    /* Unlock before starting ADC conversions: in case of potential           */
    /* interruption, to let the process to ADC IRQ Handler.                   */
    __HAL_UNLOCK(hadc);
 80016b6:	687b      	ldr	r3, [r7, #4]
 80016b8:	2200      	movs	r2, #0
 80016ba:	f883 2024 	strb.w	r2, [r3, #36]	; 0x24
  
    /* Clear regular group conversion flag */
    /* (To ensure of no unknown state from potential previous ADC operations) */
    __HAL_ADC_CLEAR_FLAG(hadc, ADC_FLAG_EOC);
 80016be:	687b      	ldr	r3, [r7, #4]
 80016c0:	681b      	ldr	r3, [r3, #0]
 80016c2:	f06f 0202 	mvn.w	r2, #2
 80016c6:	601a      	str	r2, [r3, #0]
    /*  - if ADC is slave, ADC is enabled only (conversion is not started).   */
    /*  - if ADC is master, ADC is enabled and conversion is started.         */
    /* If ADC is master, ADC is enabled and conversion is started.            */
    /* Note: Alternate trigger for single conversion could be to force an     */
    /*       additional set of bit ADON "hadc->Instance->CR2 |= ADC_CR2_ADON;"*/
    if (ADC_IS_SOFTWARE_START_REGULAR(hadc)      &&
 80016c8:	687b      	ldr	r3, [r7, #4]
 80016ca:	681b      	ldr	r3, [r3, #0]
 80016cc:	689b      	ldr	r3, [r3, #8]
 80016ce:	f403 2360 	and.w	r3, r3, #917504	; 0xe0000
 80016d2:	f5b3 2f60 	cmp.w	r3, #917504	; 0xe0000
 80016d6:	d113      	bne.n	8001700 <HAL_ADC_Start+0x130>
        ADC_NONMULTIMODE_OR_MULTIMODEMASTER(hadc)  )
 80016d8:	687b      	ldr	r3, [r7, #4]
 80016da:	681b      	ldr	r3, [r3, #0]
    if (ADC_IS_SOFTWARE_START_REGULAR(hadc)      &&
 80016dc:	4a11      	ldr	r2, [pc, #68]	; (8001724 <HAL_ADC_Start+0x154>)
 80016de:	4293      	cmp	r3, r2
 80016e0:	d105      	bne.n	80016ee <HAL_ADC_Start+0x11e>
        ADC_NONMULTIMODE_OR_MULTIMODEMASTER(hadc)  )
 80016e2:	4b11      	ldr	r3, [pc, #68]	; (8001728 <HAL_ADC_Start+0x158>)
 80016e4:	685b      	ldr	r3, [r3, #4]
 80016e6:	f403 2370 	and.w	r3, r3, #983040	; 0xf0000
    if (ADC_IS_SOFTWARE_START_REGULAR(hadc)      &&
 80016ea:	2b00      	cmp	r3, #0
 80016ec:	d108      	bne.n	8001700 <HAL_ADC_Start+0x130>
    {
      /* Start ADC conversion on regular group with SW start */
      SET_BIT(hadc->Instance->CR2, (ADC_CR2_SWSTART | ADC_CR2_EXTTRIG));
 80016ee:	687b      	ldr	r3, [r7, #4]
 80016f0:	681b      	ldr	r3, [r3, #0]
 80016f2:	689a      	ldr	r2, [r3, #8]
 80016f4:	687b      	ldr	r3, [r7, #4]
 80016f6:	681b      	ldr	r3, [r3, #0]
 80016f8:	f442 02a0 	orr.w	r2, r2, #5242880	; 0x500000
 80016fc:	609a      	str	r2, [r3, #8]
 80016fe:	e00c      	b.n	800171a <HAL_ADC_Start+0x14a>
    }
    else
    {
      /* Start ADC conversion on regular group with external trigger */
      SET_BIT(hadc->Instance->CR2, ADC_CR2_EXTTRIG);
 8001700:	687b      	ldr	r3, [r7, #4]
 8001702:	681b      	ldr	r3, [r3, #0]
 8001704:	689a      	ldr	r2, [r3, #8]
 8001706:	687b      	ldr	r3, [r7, #4]
 8001708:	681b      	ldr	r3, [r3, #0]
 800170a:	f442 1280 	orr.w	r2, r2, #1048576	; 0x100000
 800170e:	609a      	str	r2, [r3, #8]
 8001710:	e003      	b.n	800171a <HAL_ADC_Start+0x14a>
    }
  }
  else
  {
    /* Process unlocked */
    __HAL_UNLOCK(hadc);
 8001712:	687b      	ldr	r3, [r7, #4]
 8001714:	2200      	movs	r2, #0
 8001716:	f883 2024 	strb.w	r2, [r3, #36]	; 0x24
  }
    
  /* Return function status */
  return tmp_hal_status;
 800171a:	7bfb      	ldrb	r3, [r7, #15]
}
 800171c:	4618      	mov	r0, r3
 800171e:	3710      	adds	r7, #16
 8001720:	46bd      	mov	sp, r7
 8001722:	bd80      	pop	{r7, pc}
 8001724:	40012800 	.word	0x40012800
 8001728:	40012400 	.word	0x40012400

0800172c <HAL_ADC_GetValue>:
  *         or @ref __HAL_ADC_CLEAR_FLAG(&hadc, ADC_FLAG_EOS).
  * @param  hadc: ADC handle
  * @retval ADC group regular conversion data
  */
uint32_t HAL_ADC_GetValue(ADC_HandleTypeDef* hadc)
{
 800172c:	b480      	push	{r7}
 800172e:	b083      	sub	sp, #12
 8001730:	af00      	add	r7, sp, #0
 8001732:	6078      	str	r0, [r7, #4]

  /* Note: EOC flag is not cleared here by software because automatically     */
  /*       cleared by hardware when reading register DR.                      */
  
  /* Return ADC converted value */ 
  return hadc->Instance->DR;
 8001734:	687b      	ldr	r3, [r7, #4]
 8001736:	681b      	ldr	r3, [r3, #0]
 8001738:	6cdb      	ldr	r3, [r3, #76]	; 0x4c
}
 800173a:	4618      	mov	r0, r3
 800173c:	370c      	adds	r7, #12
 800173e:	46bd      	mov	sp, r7
 8001740:	bc80      	pop	{r7}
 8001742:	4770      	bx	lr

08001744 <HAL_ADC_ConfigChannel>:
  * @param  hadc: ADC handle
  * @param  sConfig: Structure of ADC channel for regular group.
  * @retval HAL status
  */
HAL_StatusTypeDef HAL_ADC_ConfigChannel(ADC_HandleTypeDef* hadc, ADC_ChannelConfTypeDef* sConfig)
{ 
 8001744:	b480      	push	{r7}
 8001746:	b085      	sub	sp, #20
 8001748:	af00      	add	r7, sp, #0
 800174a:	6078      	str	r0, [r7, #4]
 800174c:	6039      	str	r1, [r7, #0]
  HAL_StatusTypeDef tmp_hal_status = HAL_OK;
 800174e:	2300      	movs	r3, #0
 8001750:	73fb      	strb	r3, [r7, #15]
  __IO uint32_t wait_loop_index = 0U;
 8001752:	2300      	movs	r3, #0
 8001754:	60bb      	str	r3, [r7, #8]
  assert_param(IS_ADC_CHANNEL(sConfig->Channel));
  assert_param(IS_ADC_REGULAR_RANK(sConfig->Rank));
  assert_param(IS_ADC_SAMPLE_TIME(sConfig->SamplingTime));
  
  /* Process locked */
  __HAL_LOCK(hadc);
 8001756:	687b      	ldr	r3, [r7, #4]
 8001758:	f893 3024 	ldrb.w	r3, [r3, #36]	; 0x24
 800175c:	2b01      	cmp	r3, #1
 800175e:	d101      	bne.n	8001764 <HAL_ADC_ConfigChannel+0x20>
 8001760:	2302      	movs	r3, #2
 8001762:	e0dc      	b.n	800191e <HAL_ADC_ConfigChannel+0x1da>
 8001764:	687b      	ldr	r3, [r7, #4]
 8001766:	2201      	movs	r2, #1
 8001768:	f883 2024 	strb.w	r2, [r3, #36]	; 0x24
  
  
  /* Regular sequence configuration */
  /* For Rank 1 to 6 */
  if (sConfig->Rank < 7U)
 800176c:	683b      	ldr	r3, [r7, #0]
 800176e:	685b      	ldr	r3, [r3, #4]
 8001770:	2b06      	cmp	r3, #6
 8001772:	d81c      	bhi.n	80017ae <HAL_ADC_ConfigChannel+0x6a>
  {
    MODIFY_REG(hadc->Instance->SQR3                        ,
 8001774:	687b      	ldr	r3, [r7, #4]
 8001776:	681b      	ldr	r3, [r3, #0]
 8001778:	6b59      	ldr	r1, [r3, #52]	; 0x34
 800177a:	683b      	ldr	r3, [r7, #0]
 800177c:	685a      	ldr	r2, [r3, #4]
 800177e:	4613      	mov	r3, r2
 8001780:	009b      	lsls	r3, r3, #2
 8001782:	4413      	add	r3, r2
 8001784:	3b05      	subs	r3, #5
 8001786:	221f      	movs	r2, #31
 8001788:	fa02 f303 	lsl.w	r3, r2, r3
 800178c:	43db      	mvns	r3, r3
 800178e:	4019      	ands	r1, r3
 8001790:	683b      	ldr	r3, [r7, #0]
 8001792:	6818      	ldr	r0, [r3, #0]
 8001794:	683b      	ldr	r3, [r7, #0]
 8001796:	685a      	ldr	r2, [r3, #4]
 8001798:	4613      	mov	r3, r2
 800179a:	009b      	lsls	r3, r3, #2
 800179c:	4413      	add	r3, r2
 800179e:	3b05      	subs	r3, #5
 80017a0:	fa00 f203 	lsl.w	r2, r0, r3
 80017a4:	687b      	ldr	r3, [r7, #4]
 80017a6:	681b      	ldr	r3, [r3, #0]
 80017a8:	430a      	orrs	r2, r1
 80017aa:	635a      	str	r2, [r3, #52]	; 0x34
 80017ac:	e03c      	b.n	8001828 <HAL_ADC_ConfigChannel+0xe4>
               ADC_SQR3_RK(ADC_SQR3_SQ1, sConfig->Rank)    ,
               ADC_SQR3_RK(sConfig->Channel, sConfig->Rank) );
  }
  /* For Rank 7 to 12 */
  else if (sConfig->Rank < 13U)
 80017ae:	683b      	ldr	r3, [r7, #0]
 80017b0:	685b      	ldr	r3, [r3, #4]
 80017b2:	2b0c      	cmp	r3, #12
 80017b4:	d81c      	bhi.n	80017f0 <HAL_ADC_ConfigChannel+0xac>
  {
    MODIFY_REG(hadc->Instance->SQR2                        ,
 80017b6:	687b      	ldr	r3, [r7, #4]
 80017b8:	681b      	ldr	r3, [r3, #0]
 80017ba:	6b19      	ldr	r1, [r3, #48]	; 0x30
 80017bc:	683b      	ldr	r3, [r7, #0]
 80017be:	685a      	ldr	r2, [r3, #4]
 80017c0:	4613      	mov	r3, r2
 80017c2:	009b      	lsls	r3, r3, #2
 80017c4:	4413      	add	r3, r2
 80017c6:	3b23      	subs	r3, #35	; 0x23
 80017c8:	221f      	movs	r2, #31
 80017ca:	fa02 f303 	lsl.w	r3, r2, r3
 80017ce:	43db      	mvns	r3, r3
 80017d0:	4019      	ands	r1, r3
 80017d2:	683b      	ldr	r3, [r7, #0]
 80017d4:	6818      	ldr	r0, [r3, #0]
 80017d6:	683b      	ldr	r3, [r7, #0]
 80017d8:	685a      	ldr	r2, [r3, #4]
 80017da:	4613      	mov	r3, r2
 80017dc:	009b      	lsls	r3, r3, #2
 80017de:	4413      	add	r3, r2
 80017e0:	3b23      	subs	r3, #35	; 0x23
 80017e2:	fa00 f203 	lsl.w	r2, r0, r3
 80017e6:	687b      	ldr	r3, [r7, #4]
 80017e8:	681b      	ldr	r3, [r3, #0]
 80017ea:	430a      	orrs	r2, r1
 80017ec:	631a      	str	r2, [r3, #48]	; 0x30
 80017ee:	e01b      	b.n	8001828 <HAL_ADC_ConfigChannel+0xe4>
               ADC_SQR2_RK(sConfig->Channel, sConfig->Rank) );
  }
  /* For Rank 13 to 16 */
  else
  {
    MODIFY_REG(hadc->Instance->SQR1                        ,
 80017f0:	687b      	ldr	r3, [r7, #4]
 80017f2:	681b      	ldr	r3, [r3, #0]
 80017f4:	6ad9      	ldr	r1, [r3, #44]	; 0x2c
 80017f6:	683b      	ldr	r3, [r7, #0]
 80017f8:	685a      	ldr	r2, [r3, #4]
 80017fa:	4613      	mov	r3, r2
 80017fc:	009b      	lsls	r3, r3, #2
 80017fe:	4413      	add	r3, r2
 8001800:	3b41      	subs	r3, #65	; 0x41
 8001802:	221f      	movs	r2, #31
 8001804:	fa02 f303 	lsl.w	r3, r2, r3
 8001808:	43db      	mvns	r3, r3
 800180a:	4019      	ands	r1, r3
 800180c:	683b      	ldr	r3, [r7, #0]
 800180e:	6818      	ldr	r0, [r3, #0]
 8001810:	683b      	ldr	r3, [r7, #0]
 8001812:	685a      	ldr	r2, [r3, #4]
 8001814:	4613      	mov	r3, r2
 8001816:	009b      	lsls	r3, r3, #2
 8001818:	4413      	add	r3, r2
 800181a:	3b41      	subs	r3, #65	; 0x41
 800181c:	fa00 f203 	lsl.w	r2, r0, r3
 8001820:	687b      	ldr	r3, [r7, #4]
 8001822:	681b      	ldr	r3, [r3, #0]
 8001824:	430a      	orrs	r2, r1
 8001826:	62da      	str	r2, [r3, #44]	; 0x2c
  }
  
  
  /* Channel sampling time configuration */
  /* For channels 10 to 17 */
  if (sConfig->Channel >= ADC_CHANNEL_10)
 8001828:	683b      	ldr	r3, [r7, #0]
 800182a:	681b      	ldr	r3, [r3, #0]
 800182c:	2b09      	cmp	r3, #9
 800182e:	d91c      	bls.n	800186a <HAL_ADC_ConfigChannel+0x126>
  {
    MODIFY_REG(hadc->Instance->SMPR1                             ,
 8001830:	687b      	ldr	r3, [r7, #4]
 8001832:	681b      	ldr	r3, [r3, #0]
 8001834:	68d9      	ldr	r1, [r3, #12]
 8001836:	683b      	ldr	r3, [r7, #0]
 8001838:	681a      	ldr	r2, [r3, #0]
 800183a:	4613      	mov	r3, r2
 800183c:	005b      	lsls	r3, r3, #1
 800183e:	4413      	add	r3, r2
 8001840:	3b1e      	subs	r3, #30
 8001842:	2207      	movs	r2, #7
 8001844:	fa02 f303 	lsl.w	r3, r2, r3
 8001848:	43db      	mvns	r3, r3
 800184a:	4019      	ands	r1, r3
 800184c:	683b      	ldr	r3, [r7, #0]
 800184e:	6898      	ldr	r0, [r3, #8]
 8001850:	683b      	ldr	r3, [r7, #0]
 8001852:	681a      	ldr	r2, [r3, #0]
 8001854:	4613      	mov	r3, r2
 8001856:	005b      	lsls	r3, r3, #1
 8001858:	4413      	add	r3, r2
 800185a:	3b1e      	subs	r3, #30
 800185c:	fa00 f203 	lsl.w	r2, r0, r3
 8001860:	687b      	ldr	r3, [r7, #4]
 8001862:	681b      	ldr	r3, [r3, #0]
 8001864:	430a      	orrs	r2, r1
 8001866:	60da      	str	r2, [r3, #12]
 8001868:	e019      	b.n	800189e <HAL_ADC_ConfigChannel+0x15a>
               ADC_SMPR1(ADC_SMPR1_SMP10, sConfig->Channel)      ,
               ADC_SMPR1(sConfig->SamplingTime, sConfig->Channel) );
  }
  else /* For channels 0 to 9 */
  {
    MODIFY_REG(hadc->Instance->SMPR2                             ,
 800186a:	687b      	ldr	r3, [r7, #4]
 800186c:	681b      	ldr	r3, [r3, #0]
 800186e:	6919      	ldr	r1, [r3, #16]
 8001870:	683b      	ldr	r3, [r7, #0]
 8001872:	681a      	ldr	r2, [r3, #0]
 8001874:	4613      	mov	r3, r2
 8001876:	005b      	lsls	r3, r3, #1
 8001878:	4413      	add	r3, r2
 800187a:	2207      	movs	r2, #7
 800187c:	fa02 f303 	lsl.w	r3, r2, r3
 8001880:	43db      	mvns	r3, r3
 8001882:	4019      	ands	r1, r3
 8001884:	683b      	ldr	r3, [r7, #0]
 8001886:	6898      	ldr	r0, [r3, #8]
 8001888:	683b      	ldr	r3, [r7, #0]
 800188a:	681a      	ldr	r2, [r3, #0]
 800188c:	4613      	mov	r3, r2
 800188e:	005b      	lsls	r3, r3, #1
 8001890:	4413      	add	r3, r2
 8001892:	fa00 f203 	lsl.w	r2, r0, r3
 8001896:	687b      	ldr	r3, [r7, #4]
 8001898:	681b      	ldr	r3, [r3, #0]
 800189a:	430a      	orrs	r2, r1
 800189c:	611a      	str	r2, [r3, #16]
               ADC_SMPR2(sConfig->SamplingTime, sConfig->Channel) );
  }
  
  /* If ADC1 Channel_16 or Channel_17 is selected, enable Temperature sensor  */
  /* and VREFINT measurement path.                                            */
  if ((sConfig->Channel == ADC_CHANNEL_TEMPSENSOR) ||
 800189e:	683b      	ldr	r3, [r7, #0]
 80018a0:	681b      	ldr	r3, [r3, #0]
 80018a2:	2b10      	cmp	r3, #16
 80018a4:	d003      	beq.n	80018ae <HAL_ADC_ConfigChannel+0x16a>
      (sConfig->Channel == ADC_CHANNEL_VREFINT)      )
 80018a6:	683b      	ldr	r3, [r7, #0]
 80018a8:	681b      	ldr	r3, [r3, #0]
  if ((sConfig->Channel == ADC_CHANNEL_TEMPSENSOR) ||
 80018aa:	2b11      	cmp	r3, #17
 80018ac:	d132      	bne.n	8001914 <HAL_ADC_ConfigChannel+0x1d0>
  {
    /* For STM32F1 devices with several ADC: Only ADC1 can access internal    */
    /* measurement channels (VrefInt/TempSensor). If these channels are       */
    /* intended to be set on other ADC instances, an error is reported.       */
    if (hadc->Instance == ADC1)
 80018ae:	687b      	ldr	r3, [r7, #4]
 80018b0:	681b      	ldr	r3, [r3, #0]
 80018b2:	4a1d      	ldr	r2, [pc, #116]	; (8001928 <HAL_ADC_ConfigChannel+0x1e4>)
 80018b4:	4293      	cmp	r3, r2
 80018b6:	d125      	bne.n	8001904 <HAL_ADC_ConfigChannel+0x1c0>
    {
      if (READ_BIT(hadc->Instance->CR2, ADC_CR2_TSVREFE) == RESET)
 80018b8:	687b      	ldr	r3, [r7, #4]
 80018ba:	681b      	ldr	r3, [r3, #0]
 80018bc:	689b      	ldr	r3, [r3, #8]
 80018be:	f403 0300 	and.w	r3, r3, #8388608	; 0x800000
 80018c2:	2b00      	cmp	r3, #0
 80018c4:	d126      	bne.n	8001914 <HAL_ADC_ConfigChannel+0x1d0>
      {
        SET_BIT(hadc->Instance->CR2, ADC_CR2_TSVREFE);
 80018c6:	687b      	ldr	r3, [r7, #4]
 80018c8:	681b      	ldr	r3, [r3, #0]
 80018ca:	689a      	ldr	r2, [r3, #8]
 80018cc:	687b      	ldr	r3, [r7, #4]
 80018ce:	681b      	ldr	r3, [r3, #0]
 80018d0:	f442 0200 	orr.w	r2, r2, #8388608	; 0x800000
 80018d4:	609a      	str	r2, [r3, #8]
        
        if (sConfig->Channel == ADC_CHANNEL_TEMPSENSOR)
 80018d6:	683b      	ldr	r3, [r7, #0]
 80018d8:	681b      	ldr	r3, [r3, #0]
 80018da:	2b10      	cmp	r3, #16
 80018dc:	d11a      	bne.n	8001914 <HAL_ADC_ConfigChannel+0x1d0>
        {
          /* Delay for temperature sensor stabilization time */
          /* Compute number of CPU cycles to wait for */
          wait_loop_index = (ADC_TEMPSENSOR_DELAY_US * (SystemCoreClock / 1000000U));
 80018de:	4b13      	ldr	r3, [pc, #76]	; (800192c <HAL_ADC_ConfigChannel+0x1e8>)
 80018e0:	681b      	ldr	r3, [r3, #0]
 80018e2:	4a13      	ldr	r2, [pc, #76]	; (8001930 <HAL_ADC_ConfigChannel+0x1ec>)
 80018e4:	fba2 2303 	umull	r2, r3, r2, r3
 80018e8:	0c9a      	lsrs	r2, r3, #18
 80018ea:	4613      	mov	r3, r2
 80018ec:	009b      	lsls	r3, r3, #2
 80018ee:	4413      	add	r3, r2
 80018f0:	005b      	lsls	r3, r3, #1
 80018f2:	60bb      	str	r3, [r7, #8]
          while(wait_loop_index != 0U)
 80018f4:	e002      	b.n	80018fc <HAL_ADC_ConfigChannel+0x1b8>
          {
            wait_loop_index--;
 80018f6:	68bb      	ldr	r3, [r7, #8]
 80018f8:	3b01      	subs	r3, #1
 80018fa:	60bb      	str	r3, [r7, #8]
          while(wait_loop_index != 0U)
 80018fc:	68bb      	ldr	r3, [r7, #8]
 80018fe:	2b00      	cmp	r3, #0
 8001900:	d1f9      	bne.n	80018f6 <HAL_ADC_ConfigChannel+0x1b2>
 8001902:	e007      	b.n	8001914 <HAL_ADC_ConfigChannel+0x1d0>
      }
    }
    else
    {
      /* Update ADC state machine to error */
      SET_BIT(hadc->State, HAL_ADC_STATE_ERROR_CONFIG);
 8001904:	687b      	ldr	r3, [r7, #4]
 8001906:	6a9b      	ldr	r3, [r3, #40]	; 0x28
 8001908:	f043 0220 	orr.w	r2, r3, #32
 800190c:	687b      	ldr	r3, [r7, #4]
 800190e:	629a      	str	r2, [r3, #40]	; 0x28
      
      tmp_hal_status = HAL_ERROR;
 8001910:	2301      	movs	r3, #1
 8001912:	73fb      	strb	r3, [r7, #15]
    }
  }
  
  /* Process unlocked */
  __HAL_UNLOCK(hadc);
 8001914:	687b      	ldr	r3, [r7, #4]
 8001916:	2200      	movs	r2, #0
 8001918:	f883 2024 	strb.w	r2, [r3, #36]	; 0x24
  
  /* Return function status */
  return tmp_hal_status;
 800191c:	7bfb      	ldrb	r3, [r7, #15]
}
 800191e:	4618      	mov	r0, r3
 8001920:	3714      	adds	r7, #20
 8001922:	46bd      	mov	sp, r7
 8001924:	bc80      	pop	{r7}
 8001926:	4770      	bx	lr
 8001928:	40012400 	.word	0x40012400
 800192c:	20000010 	.word	0x20000010
 8001930:	431bde83 	.word	0x431bde83

08001934 <ADC_Enable>:
  *         and voltage regulator must be enabled (done into HAL_ADC_Init()).
  * @param  hadc: ADC handle
  * @retval HAL status.
  */
HAL_StatusTypeDef ADC_Enable(ADC_HandleTypeDef* hadc)
{
 8001934:	b580      	push	{r7, lr}
 8001936:	b084      	sub	sp, #16
 8001938:	af00      	add	r7, sp, #0
 800193a:	6078      	str	r0, [r7, #4]
  uint32_t tickstart = 0U;
 800193c:	2300      	movs	r3, #0
 800193e:	60fb      	str	r3, [r7, #12]
  __IO uint32_t wait_loop_index = 0U;
 8001940:	2300      	movs	r3, #0
 8001942:	60bb      	str	r3, [r7, #8]
  
  /* ADC enable and wait for ADC ready (in case of ADC is disabled or         */
  /* enabling phase not yet completed: flag ADC ready not yet set).           */
  /* Timeout implemented to not be stuck if ADC cannot be enabled (possible   */
  /* causes: ADC clock not running, ...).                                     */
  if (ADC_IS_ENABLE(hadc) == RESET)
 8001944:	687b      	ldr	r3, [r7, #4]
 8001946:	681b      	ldr	r3, [r3, #0]
 8001948:	689b      	ldr	r3, [r3, #8]
 800194a:	f003 0301 	and.w	r3, r3, #1
 800194e:	2b01      	cmp	r3, #1
 8001950:	d040      	beq.n	80019d4 <ADC_Enable+0xa0>
  {
    /* Enable the Peripheral */
    __HAL_ADC_ENABLE(hadc);
 8001952:	687b      	ldr	r3, [r7, #4]
 8001954:	681b      	ldr	r3, [r3, #0]
 8001956:	689a      	ldr	r2, [r3, #8]
 8001958:	687b      	ldr	r3, [r7, #4]
 800195a:	681b      	ldr	r3, [r3, #0]
 800195c:	f042 0201 	orr.w	r2, r2, #1
 8001960:	609a      	str	r2, [r3, #8]
    
    /* Delay for ADC stabilization time */
    /* Compute number of CPU cycles to wait for */
    wait_loop_index = (ADC_STAB_DELAY_US * (SystemCoreClock / 1000000U));
 8001962:	4b1f      	ldr	r3, [pc, #124]	; (80019e0 <ADC_Enable+0xac>)
 8001964:	681b      	ldr	r3, [r3, #0]
 8001966:	4a1f      	ldr	r2, [pc, #124]	; (80019e4 <ADC_Enable+0xb0>)
 8001968:	fba2 2303 	umull	r2, r3, r2, r3
 800196c:	0c9b      	lsrs	r3, r3, #18
 800196e:	60bb      	str	r3, [r7, #8]
    while(wait_loop_index != 0U)
 8001970:	e002      	b.n	8001978 <ADC_Enable+0x44>
    {
      wait_loop_index--;
 8001972:	68bb      	ldr	r3, [r7, #8]
 8001974:	3b01      	subs	r3, #1
 8001976:	60bb      	str	r3, [r7, #8]
    while(wait_loop_index != 0U)
 8001978:	68bb      	ldr	r3, [r7, #8]
 800197a:	2b00      	cmp	r3, #0
 800197c:	d1f9      	bne.n	8001972 <ADC_Enable+0x3e>
    }
    
    /* Get tick count */
    tickstart = HAL_GetTick();
 800197e:	f7ff fd21 	bl	80013c4 <HAL_GetTick>
 8001982:	60f8      	str	r0, [r7, #12]

    /* Wait for ADC effectively enabled */
    while(ADC_IS_ENABLE(hadc) == RESET)
 8001984:	e01f      	b.n	80019c6 <ADC_Enable+0x92>
    {
      if((HAL_GetTick() - tickstart) > ADC_ENABLE_TIMEOUT)
 8001986:	f7ff fd1d 	bl	80013c4 <HAL_GetTick>
 800198a:	4602      	mov	r2, r0
 800198c:	68fb      	ldr	r3, [r7, #12]
 800198e:	1ad3      	subs	r3, r2, r3
 8001990:	2b02      	cmp	r3, #2
 8001992:	d918      	bls.n	80019c6 <ADC_Enable+0x92>
      {
        /* New check to avoid false timeout detection in case of preemption */
        if(ADC_IS_ENABLE(hadc) == RESET)
 8001994:	687b      	ldr	r3, [r7, #4]
 8001996:	681b      	ldr	r3, [r3, #0]
 8001998:	689b      	ldr	r3, [r3, #8]
 800199a:	f003 0301 	and.w	r3, r3, #1
 800199e:	2b01      	cmp	r3, #1
 80019a0:	d011      	beq.n	80019c6 <ADC_Enable+0x92>
        {
          /* Update ADC state machine to error */
          SET_BIT(hadc->State, HAL_ADC_STATE_ERROR_INTERNAL);
 80019a2:	687b      	ldr	r3, [r7, #4]
 80019a4:	6a9b      	ldr	r3, [r3, #40]	; 0x28
 80019a6:	f043 0210 	orr.w	r2, r3, #16
 80019aa:	687b      	ldr	r3, [r7, #4]
 80019ac:	629a      	str	r2, [r3, #40]	; 0x28

          /* Set ADC error code to ADC IP internal error */
          SET_BIT(hadc->ErrorCode, HAL_ADC_ERROR_INTERNAL);
 80019ae:	687b      	ldr	r3, [r7, #4]
 80019b0:	6adb      	ldr	r3, [r3, #44]	; 0x2c
 80019b2:	f043 0201 	orr.w	r2, r3, #1
 80019b6:	687b      	ldr	r3, [r7, #4]
 80019b8:	62da      	str	r2, [r3, #44]	; 0x2c

          /* Process unlocked */
          __HAL_UNLOCK(hadc);
 80019ba:	687b      	ldr	r3, [r7, #4]
 80019bc:	2200      	movs	r2, #0
 80019be:	f883 2024 	strb.w	r2, [r3, #36]	; 0x24

          return HAL_ERROR;
 80019c2:	2301      	movs	r3, #1
 80019c4:	e007      	b.n	80019d6 <ADC_Enable+0xa2>
    while(ADC_IS_ENABLE(hadc) == RESET)
 80019c6:	687b      	ldr	r3, [r7, #4]
 80019c8:	681b      	ldr	r3, [r3, #0]
 80019ca:	689b      	ldr	r3, [r3, #8]
 80019cc:	f003 0301 	and.w	r3, r3, #1
 80019d0:	2b01      	cmp	r3, #1
 80019d2:	d1d8      	bne.n	8001986 <ADC_Enable+0x52>
      }
    }
  }
   
  /* Return HAL status */
  return HAL_OK;
 80019d4:	2300      	movs	r3, #0
}
 80019d6:	4618      	mov	r0, r3
 80019d8:	3710      	adds	r7, #16
 80019da:	46bd      	mov	sp, r7
 80019dc:	bd80      	pop	{r7, pc}
 80019de:	bf00      	nop
 80019e0:	20000010 	.word	0x20000010
 80019e4:	431bde83 	.word	0x431bde83

080019e8 <ADC_ConversionStop_Disable>:
  *         stopped to disable the ADC.
  * @param  hadc: ADC handle
  * @retval HAL status.
  */
HAL_StatusTypeDef ADC_ConversionStop_Disable(ADC_HandleTypeDef* hadc)
{
 80019e8:	b580      	push	{r7, lr}
 80019ea:	b084      	sub	sp, #16
 80019ec:	af00      	add	r7, sp, #0
 80019ee:	6078      	str	r0, [r7, #4]
  uint32_t tickstart = 0U;
 80019f0:	2300      	movs	r3, #0
 80019f2:	60fb      	str	r3, [r7, #12]
  
  /* Verification if ADC is not already disabled */
  if (ADC_IS_ENABLE(hadc) != RESET)
 80019f4:	687b      	ldr	r3, [r7, #4]
 80019f6:	681b      	ldr	r3, [r3, #0]
 80019f8:	689b      	ldr	r3, [r3, #8]
 80019fa:	f003 0301 	and.w	r3, r3, #1
 80019fe:	2b01      	cmp	r3, #1
 8001a00:	d12e      	bne.n	8001a60 <ADC_ConversionStop_Disable+0x78>
  {
    /* Disable the ADC peripheral */
    __HAL_ADC_DISABLE(hadc);
 8001a02:	687b      	ldr	r3, [r7, #4]
 8001a04:	681b      	ldr	r3, [r3, #0]
 8001a06:	689a      	ldr	r2, [r3, #8]
 8001a08:	687b      	ldr	r3, [r7, #4]
 8001a0a:	681b      	ldr	r3, [r3, #0]
 8001a0c:	f022 0201 	bic.w	r2, r2, #1
 8001a10:	609a      	str	r2, [r3, #8]
     
    /* Get tick count */
    tickstart = HAL_GetTick();
 8001a12:	f7ff fcd7 	bl	80013c4 <HAL_GetTick>
 8001a16:	60f8      	str	r0, [r7, #12]
    
    /* Wait for ADC effectively disabled */
    while(ADC_IS_ENABLE(hadc) != RESET)
 8001a18:	e01b      	b.n	8001a52 <ADC_ConversionStop_Disable+0x6a>
    {
      if((HAL_GetTick() - tickstart) > ADC_DISABLE_TIMEOUT)
 8001a1a:	f7ff fcd3 	bl	80013c4 <HAL_GetTick>
 8001a1e:	4602      	mov	r2, r0
 8001a20:	68fb      	ldr	r3, [r7, #12]
 8001a22:	1ad3      	subs	r3, r2, r3
 8001a24:	2b02      	cmp	r3, #2
 8001a26:	d914      	bls.n	8001a52 <ADC_ConversionStop_Disable+0x6a>
      {
        /* New check to avoid false timeout detection in case of preemption */
        if(ADC_IS_ENABLE(hadc) != RESET)
 8001a28:	687b      	ldr	r3, [r7, #4]
 8001a2a:	681b      	ldr	r3, [r3, #0]
 8001a2c:	689b      	ldr	r3, [r3, #8]
 8001a2e:	f003 0301 	and.w	r3, r3, #1
 8001a32:	2b01      	cmp	r3, #1
 8001a34:	d10d      	bne.n	8001a52 <ADC_ConversionStop_Disable+0x6a>
        {
          /* Update ADC state machine to error */
          SET_BIT(hadc->State, HAL_ADC_STATE_ERROR_INTERNAL);
 8001a36:	687b      	ldr	r3, [r7, #4]
 8001a38:	6a9b      	ldr	r3, [r3, #40]	; 0x28
 8001a3a:	f043 0210 	orr.w	r2, r3, #16
 8001a3e:	687b      	ldr	r3, [r7, #4]
 8001a40:	629a      	str	r2, [r3, #40]	; 0x28

          /* Set ADC error code to ADC IP internal error */
          SET_BIT(hadc->ErrorCode, HAL_ADC_ERROR_INTERNAL);
 8001a42:	687b      	ldr	r3, [r7, #4]
 8001a44:	6adb      	ldr	r3, [r3, #44]	; 0x2c
 8001a46:	f043 0201 	orr.w	r2, r3, #1
 8001a4a:	687b      	ldr	r3, [r7, #4]
 8001a4c:	62da      	str	r2, [r3, #44]	; 0x2c

          return HAL_ERROR;
 8001a4e:	2301      	movs	r3, #1
 8001a50:	e007      	b.n	8001a62 <ADC_ConversionStop_Disable+0x7a>
    while(ADC_IS_ENABLE(hadc) != RESET)
 8001a52:	687b      	ldr	r3, [r7, #4]
 8001a54:	681b      	ldr	r3, [r3, #0]
 8001a56:	689b      	ldr	r3, [r3, #8]
 8001a58:	f003 0301 	and.w	r3, r3, #1
 8001a5c:	2b01      	cmp	r3, #1
 8001a5e:	d0dc      	beq.n	8001a1a <ADC_ConversionStop_Disable+0x32>
      }
    }
  }
  
  /* Return HAL status */
  return HAL_OK;
 8001a60:	2300      	movs	r3, #0
}
 8001a62:	4618      	mov	r0, r3
 8001a64:	3710      	adds	r7, #16
 8001a66:	46bd      	mov	sp, r7
 8001a68:	bd80      	pop	{r7, pc}
	...

08001a6c <__NVIC_SetPriorityGrouping>:
           In case of a conflict between priority grouping and available
           priority bits (__NVIC_PRIO_BITS), the smallest possible priority group is set.
  \param [in]      PriorityGroup  Priority grouping field.
 */
__STATIC_INLINE void __NVIC_SetPriorityGrouping(uint32_t PriorityGroup)
{
 8001a6c:	b480      	push	{r7}
 8001a6e:	b085      	sub	sp, #20
 8001a70:	af00      	add	r7, sp, #0
 8001a72:	6078      	str	r0, [r7, #4]
  uint32_t reg_value;
  uint32_t PriorityGroupTmp = (PriorityGroup & (uint32_t)0x07UL);             /* only values 0..7 are used          */
 8001a74:	687b      	ldr	r3, [r7, #4]
 8001a76:	f003 0307 	and.w	r3, r3, #7
 8001a7a:	60fb      	str	r3, [r7, #12]

  reg_value  =  SCB->AIRCR;                                                   /* read old register configuration    */
 8001a7c:	4b0c      	ldr	r3, [pc, #48]	; (8001ab0 <__NVIC_SetPriorityGrouping+0x44>)
 8001a7e:	68db      	ldr	r3, [r3, #12]
 8001a80:	60bb      	str	r3, [r7, #8]
  reg_value &= ~((uint32_t)(SCB_AIRCR_VECTKEY_Msk | SCB_AIRCR_PRIGROUP_Msk)); /* clear bits to change               */
 8001a82:	68ba      	ldr	r2, [r7, #8]
 8001a84:	f64f 03ff 	movw	r3, #63743	; 0xf8ff
 8001a88:	4013      	ands	r3, r2
 8001a8a:	60bb      	str	r3, [r7, #8]
  reg_value  =  (reg_value                                   |
                ((uint32_t)0x5FAUL << SCB_AIRCR_VECTKEY_Pos) |
                (PriorityGroupTmp << SCB_AIRCR_PRIGROUP_Pos) );               /* Insert write key and priority group */
 8001a8c:	68fb      	ldr	r3, [r7, #12]
 8001a8e:	021a      	lsls	r2, r3, #8
                ((uint32_t)0x5FAUL << SCB_AIRCR_VECTKEY_Pos) |
 8001a90:	68bb      	ldr	r3, [r7, #8]
 8001a92:	4313      	orrs	r3, r2
  reg_value  =  (reg_value                                   |
 8001a94:	f043 63bf 	orr.w	r3, r3, #100139008	; 0x5f80000
 8001a98:	f443 3300 	orr.w	r3, r3, #131072	; 0x20000
 8001a9c:	60bb      	str	r3, [r7, #8]
  SCB->AIRCR =  reg_value;
 8001a9e:	4a04      	ldr	r2, [pc, #16]	; (8001ab0 <__NVIC_SetPriorityGrouping+0x44>)
 8001aa0:	68bb      	ldr	r3, [r7, #8]
 8001aa2:	60d3      	str	r3, [r2, #12]
}
 8001aa4:	bf00      	nop
 8001aa6:	3714      	adds	r7, #20
 8001aa8:	46bd      	mov	sp, r7
 8001aaa:	bc80      	pop	{r7}
 8001aac:	4770      	bx	lr
 8001aae:	bf00      	nop
 8001ab0:	e000ed00 	.word	0xe000ed00

08001ab4 <__NVIC_GetPriorityGrouping>:
  \brief   Get Priority Grouping
  \details Reads the priority grouping field from the NVIC Interrupt Controller.
  \return                Priority grouping field (SCB->AIRCR [10:8] PRIGROUP field).
 */
__STATIC_INLINE uint32_t __NVIC_GetPriorityGrouping(void)
{
 8001ab4:	b480      	push	{r7}
 8001ab6:	af00      	add	r7, sp, #0
  return ((uint32_t)((SCB->AIRCR & SCB_AIRCR_PRIGROUP_Msk) >> SCB_AIRCR_PRIGROUP_Pos));
 8001ab8:	4b04      	ldr	r3, [pc, #16]	; (8001acc <__NVIC_GetPriorityGrouping+0x18>)
 8001aba:	68db      	ldr	r3, [r3, #12]
 8001abc:	0a1b      	lsrs	r3, r3, #8
 8001abe:	f003 0307 	and.w	r3, r3, #7
}
 8001ac2:	4618      	mov	r0, r3
 8001ac4:	46bd      	mov	sp, r7
 8001ac6:	bc80      	pop	{r7}
 8001ac8:	4770      	bx	lr
 8001aca:	bf00      	nop
 8001acc:	e000ed00 	.word	0xe000ed00

08001ad0 <__NVIC_SetPriority>:
  \param [in]      IRQn  Interrupt number.
  \param [in]  priority  Priority to set.
  \note    The priority cannot be set for every processor exception.
 */
__STATIC_INLINE void __NVIC_SetPriority(IRQn_Type IRQn, uint32_t priority)
{
 8001ad0:	b480      	push	{r7}
 8001ad2:	b083      	sub	sp, #12
 8001ad4:	af00      	add	r7, sp, #0
 8001ad6:	4603      	mov	r3, r0
 8001ad8:	6039      	str	r1, [r7, #0]
 8001ada:	71fb      	strb	r3, [r7, #7]
  if ((int32_t)(IRQn) >= 0)
 8001adc:	f997 3007 	ldrsb.w	r3, [r7, #7]
 8001ae0:	2b00      	cmp	r3, #0
 8001ae2:	db0a      	blt.n	8001afa <__NVIC_SetPriority+0x2a>
  {
    NVIC->IP[((uint32_t)IRQn)]               = (uint8_t)((priority << (8U - __NVIC_PRIO_BITS)) & (uint32_t)0xFFUL);
 8001ae4:	683b      	ldr	r3, [r7, #0]
 8001ae6:	b2da      	uxtb	r2, r3
 8001ae8:	490c      	ldr	r1, [pc, #48]	; (8001b1c <__NVIC_SetPriority+0x4c>)
 8001aea:	f997 3007 	ldrsb.w	r3, [r7, #7]
 8001aee:	0112      	lsls	r2, r2, #4
 8001af0:	b2d2      	uxtb	r2, r2
 8001af2:	440b      	add	r3, r1
 8001af4:	f883 2300 	strb.w	r2, [r3, #768]	; 0x300
  }
  else
  {
    SCB->SHP[(((uint32_t)IRQn) & 0xFUL)-4UL] = (uint8_t)((priority << (8U - __NVIC_PRIO_BITS)) & (uint32_t)0xFFUL);
  }
}
 8001af8:	e00a      	b.n	8001b10 <__NVIC_SetPriority+0x40>
    SCB->SHP[(((uint32_t)IRQn) & 0xFUL)-4UL] = (uint8_t)((priority << (8U - __NVIC_PRIO_BITS)) & (uint32_t)0xFFUL);
 8001afa:	683b      	ldr	r3, [r7, #0]
 8001afc:	b2da      	uxtb	r2, r3
 8001afe:	4908      	ldr	r1, [pc, #32]	; (8001b20 <__NVIC_SetPriority+0x50>)
 8001b00:	79fb      	ldrb	r3, [r7, #7]
 8001b02:	f003 030f 	and.w	r3, r3, #15
 8001b06:	3b04      	subs	r3, #4
 8001b08:	0112      	lsls	r2, r2, #4
 8001b0a:	b2d2      	uxtb	r2, r2
 8001b0c:	440b      	add	r3, r1
 8001b0e:	761a      	strb	r2, [r3, #24]
}
 8001b10:	bf00      	nop
 8001b12:	370c      	adds	r7, #12
 8001b14:	46bd      	mov	sp, r7
 8001b16:	bc80      	pop	{r7}
 8001b18:	4770      	bx	lr
 8001b1a:	bf00      	nop
 8001b1c:	e000e100 	.word	0xe000e100
 8001b20:	e000ed00 	.word	0xe000ed00

08001b24 <NVIC_EncodePriority>:
  \param [in]   PreemptPriority  Preemptive priority value (starting from 0).
  \param [in]       SubPriority  Subpriority value (starting from 0).
  \return                        Encoded priority. Value can be used in the function \ref NVIC_SetPriority().
 */
__STATIC_INLINE uint32_t NVIC_EncodePriority (uint32_t PriorityGroup, uint32_t PreemptPriority, uint32_t SubPriority)
{
 8001b24:	b480      	push	{r7}
 8001b26:	b089      	sub	sp, #36	; 0x24
 8001b28:	af00      	add	r7, sp, #0
 8001b2a:	60f8      	str	r0, [r7, #12]
 8001b2c:	60b9      	str	r1, [r7, #8]
 8001b2e:	607a      	str	r2, [r7, #4]
  uint32_t PriorityGroupTmp = (PriorityGroup & (uint32_t)0x07UL);   /* only values 0..7 are used          */
 8001b30:	68fb      	ldr	r3, [r7, #12]
 8001b32:	f003 0307 	and.w	r3, r3, #7
 8001b36:	61fb      	str	r3, [r7, #28]
  uint32_t PreemptPriorityBits;
  uint32_t SubPriorityBits;

  PreemptPriorityBits = ((7UL - PriorityGroupTmp) > (uint32_t)(__NVIC_PRIO_BITS)) ? (uint32_t)(__NVIC_PRIO_BITS) : (uint32_t)(7UL - PriorityGroupTmp);
 8001b38:	69fb      	ldr	r3, [r7, #28]
 8001b3a:	f1c3 0307 	rsb	r3, r3, #7
 8001b3e:	2b04      	cmp	r3, #4
 8001b40:	bf28      	it	cs
 8001b42:	2304      	movcs	r3, #4
 8001b44:	61bb      	str	r3, [r7, #24]
  SubPriorityBits     = ((PriorityGroupTmp + (uint32_t)(__NVIC_PRIO_BITS)) < (uint32_t)7UL) ? (uint32_t)0UL : (uint32_t)((PriorityGroupTmp - 7UL) + (uint32_t)(__NVIC_PRIO_BITS));
 8001b46:	69fb      	ldr	r3, [r7, #28]
 8001b48:	3304      	adds	r3, #4
 8001b4a:	2b06      	cmp	r3, #6
 8001b4c:	d902      	bls.n	8001b54 <NVIC_EncodePriority+0x30>
 8001b4e:	69fb      	ldr	r3, [r7, #28]
 8001b50:	3b03      	subs	r3, #3
 8001b52:	e000      	b.n	8001b56 <NVIC_EncodePriority+0x32>
 8001b54:	2300      	movs	r3, #0
 8001b56:	617b      	str	r3, [r7, #20]

  return (
           ((PreemptPriority & (uint32_t)((1UL << (PreemptPriorityBits)) - 1UL)) << SubPriorityBits) |
 8001b58:	f04f 32ff 	mov.w	r2, #4294967295
 8001b5c:	69bb      	ldr	r3, [r7, #24]
 8001b5e:	fa02 f303 	lsl.w	r3, r2, r3
 8001b62:	43da      	mvns	r2, r3
 8001b64:	68bb      	ldr	r3, [r7, #8]
 8001b66:	401a      	ands	r2, r3
 8001b68:	697b      	ldr	r3, [r7, #20]
 8001b6a:	409a      	lsls	r2, r3
           ((SubPriority     & (uint32_t)((1UL << (SubPriorityBits    )) - 1UL)))
 8001b6c:	f04f 31ff 	mov.w	r1, #4294967295
 8001b70:	697b      	ldr	r3, [r7, #20]
 8001b72:	fa01 f303 	lsl.w	r3, r1, r3
 8001b76:	43d9      	mvns	r1, r3
 8001b78:	687b      	ldr	r3, [r7, #4]
 8001b7a:	400b      	ands	r3, r1
           ((PreemptPriority & (uint32_t)((1UL << (PreemptPriorityBits)) - 1UL)) << SubPriorityBits) |
 8001b7c:	4313      	orrs	r3, r2
         );
}
 8001b7e:	4618      	mov	r0, r3
 8001b80:	3724      	adds	r7, #36	; 0x24
 8001b82:	46bd      	mov	sp, r7
 8001b84:	bc80      	pop	{r7}
 8001b86:	4770      	bx	lr

08001b88 <SysTick_Config>:
  \note    When the variable <b>__Vendor_SysTickConfig</b> is set to 1, then the
           function <b>SysTick_Config</b> is not included. In this case, the file <b><i>device</i>.h</b>
           must contain a vendor-specific implementation of this function.
 */
__STATIC_INLINE uint32_t SysTick_Config(uint32_t ticks)
{
 8001b88:	b580      	push	{r7, lr}
 8001b8a:	b082      	sub	sp, #8
 8001b8c:	af00      	add	r7, sp, #0
 8001b8e:	6078      	str	r0, [r7, #4]
  if ((ticks - 1UL) > SysTick_LOAD_RELOAD_Msk)
 8001b90:	687b      	ldr	r3, [r7, #4]
 8001b92:	3b01      	subs	r3, #1
 8001b94:	f1b3 7f80 	cmp.w	r3, #16777216	; 0x1000000
 8001b98:	d301      	bcc.n	8001b9e <SysTick_Config+0x16>
  {
    return (1UL);                                                   /* Reload value impossible */
 8001b9a:	2301      	movs	r3, #1
 8001b9c:	e00f      	b.n	8001bbe <SysTick_Config+0x36>
  }

  SysTick->LOAD  = (uint32_t)(ticks - 1UL);                         /* set reload register */
 8001b9e:	4a0a      	ldr	r2, [pc, #40]	; (8001bc8 <SysTick_Config+0x40>)
 8001ba0:	687b      	ldr	r3, [r7, #4]
 8001ba2:	3b01      	subs	r3, #1
 8001ba4:	6053      	str	r3, [r2, #4]
  NVIC_SetPriority (SysTick_IRQn, (1UL << __NVIC_PRIO_BITS) - 1UL); /* set Priority for Systick Interrupt */
 8001ba6:	210f      	movs	r1, #15
 8001ba8:	f04f 30ff 	mov.w	r0, #4294967295
 8001bac:	f7ff ff90 	bl	8001ad0 <__NVIC_SetPriority>
  SysTick->VAL   = 0UL;                                             /* Load the SysTick Counter Value */
 8001bb0:	4b05      	ldr	r3, [pc, #20]	; (8001bc8 <SysTick_Config+0x40>)
 8001bb2:	2200      	movs	r2, #0
 8001bb4:	609a      	str	r2, [r3, #8]
  SysTick->CTRL  = SysTick_CTRL_CLKSOURCE_Msk |
 8001bb6:	4b04      	ldr	r3, [pc, #16]	; (8001bc8 <SysTick_Config+0x40>)
 8001bb8:	2207      	movs	r2, #7
 8001bba:	601a      	str	r2, [r3, #0]
                   SysTick_CTRL_TICKINT_Msk   |
                   SysTick_CTRL_ENABLE_Msk;                         /* Enable SysTick IRQ and SysTick Timer */
  return (0UL);                                                     /* Function successful */
 8001bbc:	2300      	movs	r3, #0
}
 8001bbe:	4618      	mov	r0, r3
 8001bc0:	3708      	adds	r7, #8
 8001bc2:	46bd      	mov	sp, r7
 8001bc4:	bd80      	pop	{r7, pc}
 8001bc6:	bf00      	nop
 8001bc8:	e000e010 	.word	0xe000e010

08001bcc <HAL_NVIC_SetPriorityGrouping>:
  * @note   When the NVIC_PriorityGroup_0 is selected, IRQ preemption is no more possible. 
  *         The pending IRQ priority will be managed only by the subpriority. 
  * @retval None
  */
void HAL_NVIC_SetPriorityGrouping(uint32_t PriorityGroup)
{
 8001bcc:	b580      	push	{r7, lr}
 8001bce:	b082      	sub	sp, #8
 8001bd0:	af00      	add	r7, sp, #0
 8001bd2:	6078      	str	r0, [r7, #4]
  /* Check the parameters */
  assert_param(IS_NVIC_PRIORITY_GROUP(PriorityGroup));
  
  /* Set the PRIGROUP[10:8] bits according to the PriorityGroup parameter value */
  NVIC_SetPriorityGrouping(PriorityGroup);
 8001bd4:	6878      	ldr	r0, [r7, #4]
 8001bd6:	f7ff ff49 	bl	8001a6c <__NVIC_SetPriorityGrouping>
}
 8001bda:	bf00      	nop
 8001bdc:	3708      	adds	r7, #8
 8001bde:	46bd      	mov	sp, r7
 8001be0:	bd80      	pop	{r7, pc}

08001be2 <HAL_NVIC_SetPriority>:
  *         This parameter can be a value between 0 and 15
  *         A lower priority value indicates a higher priority.          
  * @retval None
  */
void HAL_NVIC_SetPriority(IRQn_Type IRQn, uint32_t PreemptPriority, uint32_t SubPriority)
{ 
 8001be2:	b580      	push	{r7, lr}
 8001be4:	b086      	sub	sp, #24
 8001be6:	af00      	add	r7, sp, #0
 8001be8:	4603      	mov	r3, r0
 8001bea:	60b9      	str	r1, [r7, #8]
 8001bec:	607a      	str	r2, [r7, #4]
 8001bee:	73fb      	strb	r3, [r7, #15]
  uint32_t prioritygroup = 0x00U;
 8001bf0:	2300      	movs	r3, #0
 8001bf2:	617b      	str	r3, [r7, #20]
  
  /* Check the parameters */
  assert_param(IS_NVIC_SUB_PRIORITY(SubPriority));
  assert_param(IS_NVIC_PREEMPTION_PRIORITY(PreemptPriority));
  
  prioritygroup = NVIC_GetPriorityGrouping();
 8001bf4:	f7ff ff5e 	bl	8001ab4 <__NVIC_GetPriorityGrouping>
 8001bf8:	6178      	str	r0, [r7, #20]
  
  NVIC_SetPriority(IRQn, NVIC_EncodePriority(prioritygroup, PreemptPriority, SubPriority));
 8001bfa:	687a      	ldr	r2, [r7, #4]
 8001bfc:	68b9      	ldr	r1, [r7, #8]
 8001bfe:	6978      	ldr	r0, [r7, #20]
 8001c00:	f7ff ff90 	bl	8001b24 <NVIC_EncodePriority>
 8001c04:	4602      	mov	r2, r0
 8001c06:	f997 300f 	ldrsb.w	r3, [r7, #15]
 8001c0a:	4611      	mov	r1, r2
 8001c0c:	4618      	mov	r0, r3
 8001c0e:	f7ff ff5f 	bl	8001ad0 <__NVIC_SetPriority>
}
 8001c12:	bf00      	nop
 8001c14:	3718      	adds	r7, #24
 8001c16:	46bd      	mov	sp, r7
 8001c18:	bd80      	pop	{r7, pc}

08001c1a <HAL_SYSTICK_Config>:
  * @param  TicksNumb: Specifies the ticks Number of ticks between two interrupts.
  * @retval status:  - 0  Function succeeded.
  *                  - 1  Function failed.
  */
uint32_t HAL_SYSTICK_Config(uint32_t TicksNumb)
{
 8001c1a:	b580      	push	{r7, lr}
 8001c1c:	b082      	sub	sp, #8
 8001c1e:	af00      	add	r7, sp, #0
 8001c20:	6078      	str	r0, [r7, #4]
   return SysTick_Config(TicksNumb);
 8001c22:	6878      	ldr	r0, [r7, #4]
 8001c24:	f7ff ffb0 	bl	8001b88 <SysTick_Config>
 8001c28:	4603      	mov	r3, r0
}
 8001c2a:	4618      	mov	r0, r3
 8001c2c:	3708      	adds	r7, #8
 8001c2e:	46bd      	mov	sp, r7
 8001c30:	bd80      	pop	{r7, pc}
	...

08001c34 <HAL_GPIO_Init>:
  * @param  GPIO_Init: pointer to a GPIO_InitTypeDef structure that contains
  *         the configuration information for the specified GPIO peripheral.
  * @retval None
  */
void HAL_GPIO_Init(GPIO_TypeDef  *GPIOx, GPIO_InitTypeDef *GPIO_Init)
{
 8001c34:	b480      	push	{r7}
 8001c36:	b08b      	sub	sp, #44	; 0x2c
 8001c38:	af00      	add	r7, sp, #0
 8001c3a:	6078      	str	r0, [r7, #4]
 8001c3c:	6039      	str	r1, [r7, #0]
  uint32_t position = 0x00u;
 8001c3e:	2300      	movs	r3, #0
 8001c40:	627b      	str	r3, [r7, #36]	; 0x24
  uint32_t ioposition;
  uint32_t iocurrent;
  uint32_t temp;
  uint32_t config = 0x00u;
 8001c42:	2300      	movs	r3, #0
 8001c44:	623b      	str	r3, [r7, #32]
  assert_param(IS_GPIO_ALL_INSTANCE(GPIOx));
  assert_param(IS_GPIO_PIN(GPIO_Init->Pin));
  assert_param(IS_GPIO_MODE(GPIO_Init->Mode));

  /* Configure the port pins */
  while (((GPIO_Init->Pin) >> position) != 0x00u)
 8001c46:	e169      	b.n	8001f1c <HAL_GPIO_Init+0x2e8>
  {
    /* Get the IO position */
    ioposition = (0x01uL << position);
 8001c48:	2201      	movs	r2, #1
 8001c4a:	6a7b      	ldr	r3, [r7, #36]	; 0x24
 8001c4c:	fa02 f303 	lsl.w	r3, r2, r3
 8001c50:	61fb      	str	r3, [r7, #28]

    /* Get the current IO position */
    iocurrent = (uint32_t)(GPIO_Init->Pin) & ioposition;
 8001c52:	683b      	ldr	r3, [r7, #0]
 8001c54:	681b      	ldr	r3, [r3, #0]
 8001c56:	69fa      	ldr	r2, [r7, #28]
 8001c58:	4013      	ands	r3, r2
 8001c5a:	61bb      	str	r3, [r7, #24]

    if (iocurrent == ioposition)
 8001c5c:	69ba      	ldr	r2, [r7, #24]
 8001c5e:	69fb      	ldr	r3, [r7, #28]
 8001c60:	429a      	cmp	r2, r3
 8001c62:	f040 8158 	bne.w	8001f16 <HAL_GPIO_Init+0x2e2>
    {
      /* Check the Alternate function parameters */
      assert_param(IS_GPIO_AF_INSTANCE(GPIOx));

      /* Based on the required mode, filling config variable with MODEy[1:0] and CNFy[3:2] corresponding bits */
      switch (GPIO_Init->Mode)
 8001c66:	683b      	ldr	r3, [r7, #0]
 8001c68:	685b      	ldr	r3, [r3, #4]
 8001c6a:	4a9a      	ldr	r2, [pc, #616]	; (8001ed4 <HAL_GPIO_Init+0x2a0>)
 8001c6c:	4293      	cmp	r3, r2
 8001c6e:	d05e      	beq.n	8001d2e <HAL_GPIO_Init+0xfa>
 8001c70:	4a98      	ldr	r2, [pc, #608]	; (8001ed4 <HAL_GPIO_Init+0x2a0>)
 8001c72:	4293      	cmp	r3, r2
 8001c74:	d875      	bhi.n	8001d62 <HAL_GPIO_Init+0x12e>
 8001c76:	4a98      	ldr	r2, [pc, #608]	; (8001ed8 <HAL_GPIO_Init+0x2a4>)
 8001c78:	4293      	cmp	r3, r2
 8001c7a:	d058      	beq.n	8001d2e <HAL_GPIO_Init+0xfa>
 8001c7c:	4a96      	ldr	r2, [pc, #600]	; (8001ed8 <HAL_GPIO_Init+0x2a4>)
 8001c7e:	4293      	cmp	r3, r2
 8001c80:	d86f      	bhi.n	8001d62 <HAL_GPIO_Init+0x12e>
 8001c82:	4a96      	ldr	r2, [pc, #600]	; (8001edc <HAL_GPIO_Init+0x2a8>)
 8001c84:	4293      	cmp	r3, r2
 8001c86:	d052      	beq.n	8001d2e <HAL_GPIO_Init+0xfa>
 8001c88:	4a94      	ldr	r2, [pc, #592]	; (8001edc <HAL_GPIO_Init+0x2a8>)
 8001c8a:	4293      	cmp	r3, r2
 8001c8c:	d869      	bhi.n	8001d62 <HAL_GPIO_Init+0x12e>
 8001c8e:	4a94      	ldr	r2, [pc, #592]	; (8001ee0 <HAL_GPIO_Init+0x2ac>)
 8001c90:	4293      	cmp	r3, r2
 8001c92:	d04c      	beq.n	8001d2e <HAL_GPIO_Init+0xfa>
 8001c94:	4a92      	ldr	r2, [pc, #584]	; (8001ee0 <HAL_GPIO_Init+0x2ac>)
 8001c96:	4293      	cmp	r3, r2
 8001c98:	d863      	bhi.n	8001d62 <HAL_GPIO_Init+0x12e>
 8001c9a:	4a92      	ldr	r2, [pc, #584]	; (8001ee4 <HAL_GPIO_Init+0x2b0>)
 8001c9c:	4293      	cmp	r3, r2
 8001c9e:	d046      	beq.n	8001d2e <HAL_GPIO_Init+0xfa>
 8001ca0:	4a90      	ldr	r2, [pc, #576]	; (8001ee4 <HAL_GPIO_Init+0x2b0>)
 8001ca2:	4293      	cmp	r3, r2
 8001ca4:	d85d      	bhi.n	8001d62 <HAL_GPIO_Init+0x12e>
 8001ca6:	2b12      	cmp	r3, #18
 8001ca8:	d82a      	bhi.n	8001d00 <HAL_GPIO_Init+0xcc>
 8001caa:	2b12      	cmp	r3, #18
 8001cac:	d859      	bhi.n	8001d62 <HAL_GPIO_Init+0x12e>
 8001cae:	a201      	add	r2, pc, #4	; (adr r2, 8001cb4 <HAL_GPIO_Init+0x80>)
 8001cb0:	f852 f023 	ldr.w	pc, [r2, r3, lsl #2]
 8001cb4:	08001d2f 	.word	0x08001d2f
 8001cb8:	08001d09 	.word	0x08001d09
 8001cbc:	08001d1b 	.word	0x08001d1b
 8001cc0:	08001d5d 	.word	0x08001d5d
 8001cc4:	08001d63 	.word	0x08001d63
 8001cc8:	08001d63 	.word	0x08001d63
 8001ccc:	08001d63 	.word	0x08001d63
 8001cd0:	08001d63 	.word	0x08001d63
 8001cd4:	08001d63 	.word	0x08001d63
 8001cd8:	08001d63 	.word	0x08001d63
 8001cdc:	08001d63 	.word	0x08001d63
 8001ce0:	08001d63 	.word	0x08001d63
 8001ce4:	08001d63 	.word	0x08001d63
 8001ce8:	08001d63 	.word	0x08001d63
 8001cec:	08001d63 	.word	0x08001d63
 8001cf0:	08001d63 	.word	0x08001d63
 8001cf4:	08001d63 	.word	0x08001d63
 8001cf8:	08001d11 	.word	0x08001d11
 8001cfc:	08001d25 	.word	0x08001d25
 8001d00:	4a79      	ldr	r2, [pc, #484]	; (8001ee8 <HAL_GPIO_Init+0x2b4>)
 8001d02:	4293      	cmp	r3, r2
 8001d04:	d013      	beq.n	8001d2e <HAL_GPIO_Init+0xfa>
          config = GPIO_CR_MODE_INPUT + GPIO_CR_CNF_ANALOG;
          break;

        /* Parameters are checked with assert_param */
        default:
          break;
 8001d06:	e02c      	b.n	8001d62 <HAL_GPIO_Init+0x12e>
          config = GPIO_Init->Speed + GPIO_CR_CNF_GP_OUTPUT_PP;
 8001d08:	683b      	ldr	r3, [r7, #0]
 8001d0a:	68db      	ldr	r3, [r3, #12]
 8001d0c:	623b      	str	r3, [r7, #32]
          break;
 8001d0e:	e029      	b.n	8001d64 <HAL_GPIO_Init+0x130>
          config = GPIO_Init->Speed + GPIO_CR_CNF_GP_OUTPUT_OD;
 8001d10:	683b      	ldr	r3, [r7, #0]
 8001d12:	68db      	ldr	r3, [r3, #12]
 8001d14:	3304      	adds	r3, #4
 8001d16:	623b      	str	r3, [r7, #32]
          break;
 8001d18:	e024      	b.n	8001d64 <HAL_GPIO_Init+0x130>
          config = GPIO_Init->Speed + GPIO_CR_CNF_AF_OUTPUT_PP;
 8001d1a:	683b      	ldr	r3, [r7, #0]
 8001d1c:	68db      	ldr	r3, [r3, #12]
 8001d1e:	3308      	adds	r3, #8
 8001d20:	623b      	str	r3, [r7, #32]
          break;
 8001d22:	e01f      	b.n	8001d64 <HAL_GPIO_Init+0x130>
          config = GPIO_Init->Speed + GPIO_CR_CNF_AF_OUTPUT_OD;
 8001d24:	683b      	ldr	r3, [r7, #0]
 8001d26:	68db      	ldr	r3, [r3, #12]
 8001d28:	330c      	adds	r3, #12
 8001d2a:	623b      	str	r3, [r7, #32]
          break;
 8001d2c:	e01a      	b.n	8001d64 <HAL_GPIO_Init+0x130>
          if (GPIO_Init->Pull == GPIO_NOPULL)
 8001d2e:	683b      	ldr	r3, [r7, #0]
 8001d30:	689b      	ldr	r3, [r3, #8]
 8001d32:	2b00      	cmp	r3, #0
 8001d34:	d102      	bne.n	8001d3c <HAL_GPIO_Init+0x108>
            config = GPIO_CR_MODE_INPUT + GPIO_CR_CNF_INPUT_FLOATING;
 8001d36:	2304      	movs	r3, #4
 8001d38:	623b      	str	r3, [r7, #32]
          break;
 8001d3a:	e013      	b.n	8001d64 <HAL_GPIO_Init+0x130>
          else if (GPIO_Init->Pull == GPIO_PULLUP)
 8001d3c:	683b      	ldr	r3, [r7, #0]
 8001d3e:	689b      	ldr	r3, [r3, #8]
 8001d40:	2b01      	cmp	r3, #1
 8001d42:	d105      	bne.n	8001d50 <HAL_GPIO_Init+0x11c>
            config = GPIO_CR_MODE_INPUT + GPIO_CR_CNF_INPUT_PU_PD;
 8001d44:	2308      	movs	r3, #8
 8001d46:	623b      	str	r3, [r7, #32]
            GPIOx->BSRR = ioposition;
 8001d48:	687b      	ldr	r3, [r7, #4]
 8001d4a:	69fa      	ldr	r2, [r7, #28]
 8001d4c:	611a      	str	r2, [r3, #16]
          break;
 8001d4e:	e009      	b.n	8001d64 <HAL_GPIO_Init+0x130>
            config = GPIO_CR_MODE_INPUT + GPIO_CR_CNF_INPUT_PU_PD;
 8001d50:	2308      	movs	r3, #8
 8001d52:	623b      	str	r3, [r7, #32]
            GPIOx->BRR = ioposition;
 8001d54:	687b      	ldr	r3, [r7, #4]
 8001d56:	69fa      	ldr	r2, [r7, #28]
 8001d58:	615a      	str	r2, [r3, #20]
          break;
 8001d5a:	e003      	b.n	8001d64 <HAL_GPIO_Init+0x130>
          config = GPIO_CR_MODE_INPUT + GPIO_CR_CNF_ANALOG;
 8001d5c:	2300      	movs	r3, #0
 8001d5e:	623b      	str	r3, [r7, #32]
          break;
 8001d60:	e000      	b.n	8001d64 <HAL_GPIO_Init+0x130>
          break;
 8001d62:	bf00      	nop
      }

      /* Check if the current bit belongs to first half or last half of the pin count number
       in order to address CRH or CRL register*/
      configregister = (iocurrent < GPIO_PIN_8) ? &GPIOx->CRL     : &GPIOx->CRH;
 8001d64:	69bb      	ldr	r3, [r7, #24]
 8001d66:	2bff      	cmp	r3, #255	; 0xff
 8001d68:	d801      	bhi.n	8001d6e <HAL_GPIO_Init+0x13a>
 8001d6a:	687b      	ldr	r3, [r7, #4]
 8001d6c:	e001      	b.n	8001d72 <HAL_GPIO_Init+0x13e>
 8001d6e:	687b      	ldr	r3, [r7, #4]
 8001d70:	3304      	adds	r3, #4
 8001d72:	617b      	str	r3, [r7, #20]
      registeroffset = (iocurrent < GPIO_PIN_8) ? (position << 2u) : ((position - 8u) << 2u);
 8001d74:	69bb      	ldr	r3, [r7, #24]
 8001d76:	2bff      	cmp	r3, #255	; 0xff
 8001d78:	d802      	bhi.n	8001d80 <HAL_GPIO_Init+0x14c>
 8001d7a:	6a7b      	ldr	r3, [r7, #36]	; 0x24
 8001d7c:	009b      	lsls	r3, r3, #2
 8001d7e:	e002      	b.n	8001d86 <HAL_GPIO_Init+0x152>
 8001d80:	6a7b      	ldr	r3, [r7, #36]	; 0x24
 8001d82:	3b08      	subs	r3, #8
 8001d84:	009b      	lsls	r3, r3, #2
 8001d86:	613b      	str	r3, [r7, #16]

      /* Apply the new configuration of the pin to the register */
      MODIFY_REG((*configregister), ((GPIO_CRL_MODE0 | GPIO_CRL_CNF0) << registeroffset), (config << registeroffset));
 8001d88:	697b      	ldr	r3, [r7, #20]
 8001d8a:	681a      	ldr	r2, [r3, #0]
 8001d8c:	210f      	movs	r1, #15
 8001d8e:	693b      	ldr	r3, [r7, #16]
 8001d90:	fa01 f303 	lsl.w	r3, r1, r3
 8001d94:	43db      	mvns	r3, r3
 8001d96:	401a      	ands	r2, r3
 8001d98:	6a39      	ldr	r1, [r7, #32]
 8001d9a:	693b      	ldr	r3, [r7, #16]
 8001d9c:	fa01 f303 	lsl.w	r3, r1, r3
 8001da0:	431a      	orrs	r2, r3
 8001da2:	697b      	ldr	r3, [r7, #20]
 8001da4:	601a      	str	r2, [r3, #0]

      /*--------------------- EXTI Mode Configuration ------------------------*/
      /* Configure the External Interrupt or event for the current IO */
      if ((GPIO_Init->Mode & EXTI_MODE) == EXTI_MODE)
 8001da6:	683b      	ldr	r3, [r7, #0]
 8001da8:	685b      	ldr	r3, [r3, #4]
 8001daa:	f003 5380 	and.w	r3, r3, #268435456	; 0x10000000
 8001dae:	2b00      	cmp	r3, #0
 8001db0:	f000 80b1 	beq.w	8001f16 <HAL_GPIO_Init+0x2e2>
      {
        /* Enable AFIO Clock */
        __HAL_RCC_AFIO_CLK_ENABLE();
 8001db4:	4b4d      	ldr	r3, [pc, #308]	; (8001eec <HAL_GPIO_Init+0x2b8>)
 8001db6:	699b      	ldr	r3, [r3, #24]
 8001db8:	4a4c      	ldr	r2, [pc, #304]	; (8001eec <HAL_GPIO_Init+0x2b8>)
 8001dba:	f043 0301 	orr.w	r3, r3, #1
 8001dbe:	6193      	str	r3, [r2, #24]
 8001dc0:	4b4a      	ldr	r3, [pc, #296]	; (8001eec <HAL_GPIO_Init+0x2b8>)
 8001dc2:	699b      	ldr	r3, [r3, #24]
 8001dc4:	f003 0301 	and.w	r3, r3, #1
 8001dc8:	60bb      	str	r3, [r7, #8]
 8001dca:	68bb      	ldr	r3, [r7, #8]
        temp = AFIO->EXTICR[position >> 2u];
 8001dcc:	4a48      	ldr	r2, [pc, #288]	; (8001ef0 <HAL_GPIO_Init+0x2bc>)
 8001dce:	6a7b      	ldr	r3, [r7, #36]	; 0x24
 8001dd0:	089b      	lsrs	r3, r3, #2
 8001dd2:	3302      	adds	r3, #2
 8001dd4:	f852 3023 	ldr.w	r3, [r2, r3, lsl #2]
 8001dd8:	60fb      	str	r3, [r7, #12]
        CLEAR_BIT(temp, (0x0Fu) << (4u * (position & 0x03u)));
 8001dda:	6a7b      	ldr	r3, [r7, #36]	; 0x24
 8001ddc:	f003 0303 	and.w	r3, r3, #3
 8001de0:	009b      	lsls	r3, r3, #2
 8001de2:	220f      	movs	r2, #15
 8001de4:	fa02 f303 	lsl.w	r3, r2, r3
 8001de8:	43db      	mvns	r3, r3
 8001dea:	68fa      	ldr	r2, [r7, #12]
 8001dec:	4013      	ands	r3, r2
 8001dee:	60fb      	str	r3, [r7, #12]
        SET_BIT(temp, (GPIO_GET_INDEX(GPIOx)) << (4u * (position & 0x03u)));
 8001df0:	687b      	ldr	r3, [r7, #4]
 8001df2:	4a40      	ldr	r2, [pc, #256]	; (8001ef4 <HAL_GPIO_Init+0x2c0>)
 8001df4:	4293      	cmp	r3, r2
 8001df6:	d013      	beq.n	8001e20 <HAL_GPIO_Init+0x1ec>
 8001df8:	687b      	ldr	r3, [r7, #4]
 8001dfa:	4a3f      	ldr	r2, [pc, #252]	; (8001ef8 <HAL_GPIO_Init+0x2c4>)
 8001dfc:	4293      	cmp	r3, r2
 8001dfe:	d00d      	beq.n	8001e1c <HAL_GPIO_Init+0x1e8>
 8001e00:	687b      	ldr	r3, [r7, #4]
 8001e02:	4a3e      	ldr	r2, [pc, #248]	; (8001efc <HAL_GPIO_Init+0x2c8>)
 8001e04:	4293      	cmp	r3, r2
 8001e06:	d007      	beq.n	8001e18 <HAL_GPIO_Init+0x1e4>
 8001e08:	687b      	ldr	r3, [r7, #4]
 8001e0a:	4a3d      	ldr	r2, [pc, #244]	; (8001f00 <HAL_GPIO_Init+0x2cc>)
 8001e0c:	4293      	cmp	r3, r2
 8001e0e:	d101      	bne.n	8001e14 <HAL_GPIO_Init+0x1e0>
 8001e10:	2303      	movs	r3, #3
 8001e12:	e006      	b.n	8001e22 <HAL_GPIO_Init+0x1ee>
 8001e14:	2304      	movs	r3, #4
 8001e16:	e004      	b.n	8001e22 <HAL_GPIO_Init+0x1ee>
 8001e18:	2302      	movs	r3, #2
 8001e1a:	e002      	b.n	8001e22 <HAL_GPIO_Init+0x1ee>
 8001e1c:	2301      	movs	r3, #1
 8001e1e:	e000      	b.n	8001e22 <HAL_GPIO_Init+0x1ee>
 8001e20:	2300      	movs	r3, #0
 8001e22:	6a7a      	ldr	r2, [r7, #36]	; 0x24
 8001e24:	f002 0203 	and.w	r2, r2, #3
 8001e28:	0092      	lsls	r2, r2, #2
 8001e2a:	4093      	lsls	r3, r2
 8001e2c:	68fa      	ldr	r2, [r7, #12]
 8001e2e:	4313      	orrs	r3, r2
 8001e30:	60fb      	str	r3, [r7, #12]
        AFIO->EXTICR[position >> 2u] = temp;
 8001e32:	492f      	ldr	r1, [pc, #188]	; (8001ef0 <HAL_GPIO_Init+0x2bc>)
 8001e34:	6a7b      	ldr	r3, [r7, #36]	; 0x24
 8001e36:	089b      	lsrs	r3, r3, #2
 8001e38:	3302      	adds	r3, #2
 8001e3a:	68fa      	ldr	r2, [r7, #12]
 8001e3c:	f841 2023 	str.w	r2, [r1, r3, lsl #2]


        /* Configure the interrupt mask */
        if ((GPIO_Init->Mode & GPIO_MODE_IT) == GPIO_MODE_IT)
 8001e40:	683b      	ldr	r3, [r7, #0]
 8001e42:	685b      	ldr	r3, [r3, #4]
 8001e44:	f403 3380 	and.w	r3, r3, #65536	; 0x10000
 8001e48:	2b00      	cmp	r3, #0
 8001e4a:	d006      	beq.n	8001e5a <HAL_GPIO_Init+0x226>
        {
          SET_BIT(EXTI->IMR, iocurrent);
 8001e4c:	4b2d      	ldr	r3, [pc, #180]	; (8001f04 <HAL_GPIO_Init+0x2d0>)
 8001e4e:	681a      	ldr	r2, [r3, #0]
 8001e50:	492c      	ldr	r1, [pc, #176]	; (8001f04 <HAL_GPIO_Init+0x2d0>)
 8001e52:	69bb      	ldr	r3, [r7, #24]
 8001e54:	4313      	orrs	r3, r2
 8001e56:	600b      	str	r3, [r1, #0]
 8001e58:	e006      	b.n	8001e68 <HAL_GPIO_Init+0x234>
        }
        else
        {
          CLEAR_BIT(EXTI->IMR, iocurrent);
 8001e5a:	4b2a      	ldr	r3, [pc, #168]	; (8001f04 <HAL_GPIO_Init+0x2d0>)
 8001e5c:	681a      	ldr	r2, [r3, #0]
 8001e5e:	69bb      	ldr	r3, [r7, #24]
 8001e60:	43db      	mvns	r3, r3
 8001e62:	4928      	ldr	r1, [pc, #160]	; (8001f04 <HAL_GPIO_Init+0x2d0>)
 8001e64:	4013      	ands	r3, r2
 8001e66:	600b      	str	r3, [r1, #0]
        }

        /* Configure the event mask */
        if ((GPIO_Init->Mode & GPIO_MODE_EVT) == GPIO_MODE_EVT)
 8001e68:	683b      	ldr	r3, [r7, #0]
 8001e6a:	685b      	ldr	r3, [r3, #4]
 8001e6c:	f403 3300 	and.w	r3, r3, #131072	; 0x20000
 8001e70:	2b00      	cmp	r3, #0
 8001e72:	d006      	beq.n	8001e82 <HAL_GPIO_Init+0x24e>
        {
          SET_BIT(EXTI->EMR, iocurrent);
 8001e74:	4b23      	ldr	r3, [pc, #140]	; (8001f04 <HAL_GPIO_Init+0x2d0>)
 8001e76:	685a      	ldr	r2, [r3, #4]
 8001e78:	4922      	ldr	r1, [pc, #136]	; (8001f04 <HAL_GPIO_Init+0x2d0>)
 8001e7a:	69bb      	ldr	r3, [r7, #24]
 8001e7c:	4313      	orrs	r3, r2
 8001e7e:	604b      	str	r3, [r1, #4]
 8001e80:	e006      	b.n	8001e90 <HAL_GPIO_Init+0x25c>
        }
        else
        {
          CLEAR_BIT(EXTI->EMR, iocurrent);
 8001e82:	4b20      	ldr	r3, [pc, #128]	; (8001f04 <HAL_GPIO_Init+0x2d0>)
 8001e84:	685a      	ldr	r2, [r3, #4]
 8001e86:	69bb      	ldr	r3, [r7, #24]
 8001e88:	43db      	mvns	r3, r3
 8001e8a:	491e      	ldr	r1, [pc, #120]	; (8001f04 <HAL_GPIO_Init+0x2d0>)
 8001e8c:	4013      	ands	r3, r2
 8001e8e:	604b      	str	r3, [r1, #4]
        }

        /* Enable or disable the rising trigger */
        if ((GPIO_Init->Mode & RISING_EDGE) == RISING_EDGE)
 8001e90:	683b      	ldr	r3, [r7, #0]
 8001e92:	685b      	ldr	r3, [r3, #4]
 8001e94:	f403 1380 	and.w	r3, r3, #1048576	; 0x100000
 8001e98:	2b00      	cmp	r3, #0
 8001e9a:	d006      	beq.n	8001eaa <HAL_GPIO_Init+0x276>
        {
          SET_BIT(EXTI->RTSR, iocurrent);
 8001e9c:	4b19      	ldr	r3, [pc, #100]	; (8001f04 <HAL_GPIO_Init+0x2d0>)
 8001e9e:	689a      	ldr	r2, [r3, #8]
 8001ea0:	4918      	ldr	r1, [pc, #96]	; (8001f04 <HAL_GPIO_Init+0x2d0>)
 8001ea2:	69bb      	ldr	r3, [r7, #24]
 8001ea4:	4313      	orrs	r3, r2
 8001ea6:	608b      	str	r3, [r1, #8]
 8001ea8:	e006      	b.n	8001eb8 <HAL_GPIO_Init+0x284>
        }
        else
        {
          CLEAR_BIT(EXTI->RTSR, iocurrent);
 8001eaa:	4b16      	ldr	r3, [pc, #88]	; (8001f04 <HAL_GPIO_Init+0x2d0>)
 8001eac:	689a      	ldr	r2, [r3, #8]
 8001eae:	69bb      	ldr	r3, [r7, #24]
 8001eb0:	43db      	mvns	r3, r3
 8001eb2:	4914      	ldr	r1, [pc, #80]	; (8001f04 <HAL_GPIO_Init+0x2d0>)
 8001eb4:	4013      	ands	r3, r2
 8001eb6:	608b      	str	r3, [r1, #8]
        }

        /* Enable or disable the falling trigger */
        if ((GPIO_Init->Mode & FALLING_EDGE) == FALLING_EDGE)
 8001eb8:	683b      	ldr	r3, [r7, #0]
 8001eba:	685b      	ldr	r3, [r3, #4]
 8001ebc:	f403 1300 	and.w	r3, r3, #2097152	; 0x200000
 8001ec0:	2b00      	cmp	r3, #0
 8001ec2:	d021      	beq.n	8001f08 <HAL_GPIO_Init+0x2d4>
        {
          SET_BIT(EXTI->FTSR, iocurrent);
 8001ec4:	4b0f      	ldr	r3, [pc, #60]	; (8001f04 <HAL_GPIO_Init+0x2d0>)
 8001ec6:	68da      	ldr	r2, [r3, #12]
 8001ec8:	490e      	ldr	r1, [pc, #56]	; (8001f04 <HAL_GPIO_Init+0x2d0>)
 8001eca:	69bb      	ldr	r3, [r7, #24]
 8001ecc:	4313      	orrs	r3, r2
 8001ece:	60cb      	str	r3, [r1, #12]
 8001ed0:	e021      	b.n	8001f16 <HAL_GPIO_Init+0x2e2>
 8001ed2:	bf00      	nop
 8001ed4:	10320000 	.word	0x10320000
 8001ed8:	10310000 	.word	0x10310000
 8001edc:	10220000 	.word	0x10220000
 8001ee0:	10210000 	.word	0x10210000
 8001ee4:	10120000 	.word	0x10120000
 8001ee8:	10110000 	.word	0x10110000
 8001eec:	40021000 	.word	0x40021000
 8001ef0:	40010000 	.word	0x40010000
 8001ef4:	40010800 	.word	0x40010800
 8001ef8:	40010c00 	.word	0x40010c00
 8001efc:	40011000 	.word	0x40011000
 8001f00:	40011400 	.word	0x40011400
 8001f04:	40010400 	.word	0x40010400
        }
        else
        {
          CLEAR_BIT(EXTI->FTSR, iocurrent);
 8001f08:	4b0b      	ldr	r3, [pc, #44]	; (8001f38 <HAL_GPIO_Init+0x304>)
 8001f0a:	68da      	ldr	r2, [r3, #12]
 8001f0c:	69bb      	ldr	r3, [r7, #24]
 8001f0e:	43db      	mvns	r3, r3
 8001f10:	4909      	ldr	r1, [pc, #36]	; (8001f38 <HAL_GPIO_Init+0x304>)
 8001f12:	4013      	ands	r3, r2
 8001f14:	60cb      	str	r3, [r1, #12]
        }
      }
    }

	position++;
 8001f16:	6a7b      	ldr	r3, [r7, #36]	; 0x24
 8001f18:	3301      	adds	r3, #1
 8001f1a:	627b      	str	r3, [r7, #36]	; 0x24
  while (((GPIO_Init->Pin) >> position) != 0x00u)
 8001f1c:	683b      	ldr	r3, [r7, #0]
 8001f1e:	681a      	ldr	r2, [r3, #0]
 8001f20:	6a7b      	ldr	r3, [r7, #36]	; 0x24
 8001f22:	fa22 f303 	lsr.w	r3, r2, r3
 8001f26:	2b00      	cmp	r3, #0
 8001f28:	f47f ae8e 	bne.w	8001c48 <HAL_GPIO_Init+0x14>
  }
}
 8001f2c:	bf00      	nop
 8001f2e:	bf00      	nop
 8001f30:	372c      	adds	r7, #44	; 0x2c
 8001f32:	46bd      	mov	sp, r7
 8001f34:	bc80      	pop	{r7}
 8001f36:	4770      	bx	lr
 8001f38:	40010400 	.word	0x40010400

08001f3c <HAL_I2C_Init>:
  * @param  hi2c Pointer to a I2C_HandleTypeDef structure that contains
  *                the configuration information for the specified I2C.
  * @retval HAL status
  */
HAL_StatusTypeDef HAL_I2C_Init(I2C_HandleTypeDef *hi2c)
{
 8001f3c:	b580      	push	{r7, lr}
 8001f3e:	b084      	sub	sp, #16
 8001f40:	af00      	add	r7, sp, #0
 8001f42:	6078      	str	r0, [r7, #4]
  uint32_t freqrange;
  uint32_t pclk1;

  /* Check the I2C handle allocation */
  if (hi2c == NULL)
 8001f44:	687b      	ldr	r3, [r7, #4]
 8001f46:	2b00      	cmp	r3, #0
 8001f48:	d101      	bne.n	8001f4e <HAL_I2C_Init+0x12>
  {
    return HAL_ERROR;
 8001f4a:	2301      	movs	r3, #1
 8001f4c:	e12b      	b.n	80021a6 <HAL_I2C_Init+0x26a>
  assert_param(IS_I2C_DUAL_ADDRESS(hi2c->Init.DualAddressMode));
  assert_param(IS_I2C_OWN_ADDRESS2(hi2c->Init.OwnAddress2));
  assert_param(IS_I2C_GENERAL_CALL(hi2c->Init.GeneralCallMode));
  assert_param(IS_I2C_NO_STRETCH(hi2c->Init.NoStretchMode));

  if (hi2c->State == HAL_I2C_STATE_RESET)
 8001f4e:	687b      	ldr	r3, [r7, #4]
 8001f50:	f893 303d 	ldrb.w	r3, [r3, #61]	; 0x3d
 8001f54:	b2db      	uxtb	r3, r3
 8001f56:	2b00      	cmp	r3, #0
 8001f58:	d106      	bne.n	8001f68 <HAL_I2C_Init+0x2c>
  {
    /* Allocate lock resource and initialize it */
    hi2c->Lock = HAL_UNLOCKED;
 8001f5a:	687b      	ldr	r3, [r7, #4]
 8001f5c:	2200      	movs	r2, #0
 8001f5e:	f883 203c 	strb.w	r2, [r3, #60]	; 0x3c

    /* Init the low level hardware : GPIO, CLOCK, NVIC */
    hi2c->MspInitCallback(hi2c);
#else
    /* Init the low level hardware : GPIO, CLOCK, NVIC */
    HAL_I2C_MspInit(hi2c);
 8001f62:	6878      	ldr	r0, [r7, #4]
 8001f64:	f7ff f884 	bl	8001070 <HAL_I2C_MspInit>
#endif /* USE_HAL_I2C_REGISTER_CALLBACKS */
  }

  hi2c->State = HAL_I2C_STATE_BUSY;
 8001f68:	687b      	ldr	r3, [r7, #4]
 8001f6a:	2224      	movs	r2, #36	; 0x24
 8001f6c:	f883 203d 	strb.w	r2, [r3, #61]	; 0x3d

  /* Disable the selected I2C peripheral */
  __HAL_I2C_DISABLE(hi2c);
 8001f70:	687b      	ldr	r3, [r7, #4]
 8001f72:	681b      	ldr	r3, [r3, #0]
 8001f74:	681a      	ldr	r2, [r3, #0]
 8001f76:	687b      	ldr	r3, [r7, #4]
 8001f78:	681b      	ldr	r3, [r3, #0]
 8001f7a:	f022 0201 	bic.w	r2, r2, #1
 8001f7e:	601a      	str	r2, [r3, #0]

  /*Reset I2C*/
  hi2c->Instance->CR1 |= I2C_CR1_SWRST;
 8001f80:	687b      	ldr	r3, [r7, #4]
 8001f82:	681b      	ldr	r3, [r3, #0]
 8001f84:	681a      	ldr	r2, [r3, #0]
 8001f86:	687b      	ldr	r3, [r7, #4]
 8001f88:	681b      	ldr	r3, [r3, #0]
 8001f8a:	f442 4200 	orr.w	r2, r2, #32768	; 0x8000
 8001f8e:	601a      	str	r2, [r3, #0]
  hi2c->Instance->CR1 &= ~I2C_CR1_SWRST;
 8001f90:	687b      	ldr	r3, [r7, #4]
 8001f92:	681b      	ldr	r3, [r3, #0]
 8001f94:	681a      	ldr	r2, [r3, #0]
 8001f96:	687b      	ldr	r3, [r7, #4]
 8001f98:	681b      	ldr	r3, [r3, #0]
 8001f9a:	f422 4200 	bic.w	r2, r2, #32768	; 0x8000
 8001f9e:	601a      	str	r2, [r3, #0]

  /* Get PCLK1 frequency */
  pclk1 = HAL_RCC_GetPCLK1Freq();
 8001fa0:	f000 ffea 	bl	8002f78 <HAL_RCC_GetPCLK1Freq>
 8001fa4:	60f8      	str	r0, [r7, #12]

  /* Check the minimum allowed PCLK1 frequency */
  if (I2C_MIN_PCLK_FREQ(pclk1, hi2c->Init.ClockSpeed) == 1U)
 8001fa6:	687b      	ldr	r3, [r7, #4]
 8001fa8:	685b      	ldr	r3, [r3, #4]
 8001faa:	4a81      	ldr	r2, [pc, #516]	; (80021b0 <HAL_I2C_Init+0x274>)
 8001fac:	4293      	cmp	r3, r2
 8001fae:	d807      	bhi.n	8001fc0 <HAL_I2C_Init+0x84>
 8001fb0:	68fb      	ldr	r3, [r7, #12]
 8001fb2:	4a80      	ldr	r2, [pc, #512]	; (80021b4 <HAL_I2C_Init+0x278>)
 8001fb4:	4293      	cmp	r3, r2
 8001fb6:	bf94      	ite	ls
 8001fb8:	2301      	movls	r3, #1
 8001fba:	2300      	movhi	r3, #0
 8001fbc:	b2db      	uxtb	r3, r3
 8001fbe:	e006      	b.n	8001fce <HAL_I2C_Init+0x92>
 8001fc0:	68fb      	ldr	r3, [r7, #12]
 8001fc2:	4a7d      	ldr	r2, [pc, #500]	; (80021b8 <HAL_I2C_Init+0x27c>)
 8001fc4:	4293      	cmp	r3, r2
 8001fc6:	bf94      	ite	ls
 8001fc8:	2301      	movls	r3, #1
 8001fca:	2300      	movhi	r3, #0
 8001fcc:	b2db      	uxtb	r3, r3
 8001fce:	2b00      	cmp	r3, #0
 8001fd0:	d001      	beq.n	8001fd6 <HAL_I2C_Init+0x9a>
  {
    return HAL_ERROR;
 8001fd2:	2301      	movs	r3, #1
 8001fd4:	e0e7      	b.n	80021a6 <HAL_I2C_Init+0x26a>
  }

  /* Calculate frequency range */
  freqrange = I2C_FREQRANGE(pclk1);
 8001fd6:	68fb      	ldr	r3, [r7, #12]
 8001fd8:	4a78      	ldr	r2, [pc, #480]	; (80021bc <HAL_I2C_Init+0x280>)
 8001fda:	fba2 2303 	umull	r2, r3, r2, r3
 8001fde:	0c9b      	lsrs	r3, r3, #18
 8001fe0:	60bb      	str	r3, [r7, #8]

  /*---------------------------- I2Cx CR2 Configuration ----------------------*/
  /* Configure I2Cx: Frequency range */
  MODIFY_REG(hi2c->Instance->CR2, I2C_CR2_FREQ, freqrange);
 8001fe2:	687b      	ldr	r3, [r7, #4]
 8001fe4:	681b      	ldr	r3, [r3, #0]
 8001fe6:	685b      	ldr	r3, [r3, #4]
 8001fe8:	f023 013f 	bic.w	r1, r3, #63	; 0x3f
 8001fec:	687b      	ldr	r3, [r7, #4]
 8001fee:	681b      	ldr	r3, [r3, #0]
 8001ff0:	68ba      	ldr	r2, [r7, #8]
 8001ff2:	430a      	orrs	r2, r1
 8001ff4:	605a      	str	r2, [r3, #4]

  /*---------------------------- I2Cx TRISE Configuration --------------------*/
  /* Configure I2Cx: Rise Time */
  MODIFY_REG(hi2c->Instance->TRISE, I2C_TRISE_TRISE, I2C_RISE_TIME(freqrange, hi2c->Init.ClockSpeed));
 8001ff6:	687b      	ldr	r3, [r7, #4]
 8001ff8:	681b      	ldr	r3, [r3, #0]
 8001ffa:	6a1b      	ldr	r3, [r3, #32]
 8001ffc:	f023 013f 	bic.w	r1, r3, #63	; 0x3f
 8002000:	687b      	ldr	r3, [r7, #4]
 8002002:	685b      	ldr	r3, [r3, #4]
 8002004:	4a6a      	ldr	r2, [pc, #424]	; (80021b0 <HAL_I2C_Init+0x274>)
 8002006:	4293      	cmp	r3, r2
 8002008:	d802      	bhi.n	8002010 <HAL_I2C_Init+0xd4>
 800200a:	68bb      	ldr	r3, [r7, #8]
 800200c:	3301      	adds	r3, #1
 800200e:	e009      	b.n	8002024 <HAL_I2C_Init+0xe8>
 8002010:	68bb      	ldr	r3, [r7, #8]
 8002012:	f44f 7296 	mov.w	r2, #300	; 0x12c
 8002016:	fb02 f303 	mul.w	r3, r2, r3
 800201a:	4a69      	ldr	r2, [pc, #420]	; (80021c0 <HAL_I2C_Init+0x284>)
 800201c:	fba2 2303 	umull	r2, r3, r2, r3
 8002020:	099b      	lsrs	r3, r3, #6
 8002022:	3301      	adds	r3, #1
 8002024:	687a      	ldr	r2, [r7, #4]
 8002026:	6812      	ldr	r2, [r2, #0]
 8002028:	430b      	orrs	r3, r1
 800202a:	6213      	str	r3, [r2, #32]

  /*---------------------------- I2Cx CCR Configuration ----------------------*/
  /* Configure I2Cx: Speed */
  MODIFY_REG(hi2c->Instance->CCR, (I2C_CCR_FS | I2C_CCR_DUTY | I2C_CCR_CCR), I2C_SPEED(pclk1, hi2c->Init.ClockSpeed, hi2c->Init.DutyCycle));
 800202c:	687b      	ldr	r3, [r7, #4]
 800202e:	681b      	ldr	r3, [r3, #0]
 8002030:	69db      	ldr	r3, [r3, #28]
 8002032:	f423 424f 	bic.w	r2, r3, #52992	; 0xcf00
 8002036:	f022 02ff 	bic.w	r2, r2, #255	; 0xff
 800203a:	687b      	ldr	r3, [r7, #4]
 800203c:	685b      	ldr	r3, [r3, #4]
 800203e:	495c      	ldr	r1, [pc, #368]	; (80021b0 <HAL_I2C_Init+0x274>)
 8002040:	428b      	cmp	r3, r1
 8002042:	d819      	bhi.n	8002078 <HAL_I2C_Init+0x13c>
 8002044:	68fb      	ldr	r3, [r7, #12]
 8002046:	1e59      	subs	r1, r3, #1
 8002048:	687b      	ldr	r3, [r7, #4]
 800204a:	685b      	ldr	r3, [r3, #4]
 800204c:	005b      	lsls	r3, r3, #1
 800204e:	fbb1 f3f3 	udiv	r3, r1, r3
 8002052:	1c59      	adds	r1, r3, #1
 8002054:	f640 73fc 	movw	r3, #4092	; 0xffc
 8002058:	400b      	ands	r3, r1
 800205a:	2b00      	cmp	r3, #0
 800205c:	d00a      	beq.n	8002074 <HAL_I2C_Init+0x138>
 800205e:	68fb      	ldr	r3, [r7, #12]
 8002060:	1e59      	subs	r1, r3, #1
 8002062:	687b      	ldr	r3, [r7, #4]
 8002064:	685b      	ldr	r3, [r3, #4]
 8002066:	005b      	lsls	r3, r3, #1
 8002068:	fbb1 f3f3 	udiv	r3, r1, r3
 800206c:	3301      	adds	r3, #1
 800206e:	f3c3 030b 	ubfx	r3, r3, #0, #12
 8002072:	e051      	b.n	8002118 <HAL_I2C_Init+0x1dc>
 8002074:	2304      	movs	r3, #4
 8002076:	e04f      	b.n	8002118 <HAL_I2C_Init+0x1dc>
 8002078:	687b      	ldr	r3, [r7, #4]
 800207a:	689b      	ldr	r3, [r3, #8]
 800207c:	2b00      	cmp	r3, #0
 800207e:	d111      	bne.n	80020a4 <HAL_I2C_Init+0x168>
 8002080:	68fb      	ldr	r3, [r7, #12]
 8002082:	1e58      	subs	r0, r3, #1
 8002084:	687b      	ldr	r3, [r7, #4]
 8002086:	6859      	ldr	r1, [r3, #4]
 8002088:	460b      	mov	r3, r1
 800208a:	005b      	lsls	r3, r3, #1
 800208c:	440b      	add	r3, r1
 800208e:	fbb0 f3f3 	udiv	r3, r0, r3
 8002092:	3301      	adds	r3, #1
 8002094:	f3c3 030b 	ubfx	r3, r3, #0, #12
 8002098:	2b00      	cmp	r3, #0
 800209a:	bf0c      	ite	eq
 800209c:	2301      	moveq	r3, #1
 800209e:	2300      	movne	r3, #0
 80020a0:	b2db      	uxtb	r3, r3
 80020a2:	e012      	b.n	80020ca <HAL_I2C_Init+0x18e>
 80020a4:	68fb      	ldr	r3, [r7, #12]
 80020a6:	1e58      	subs	r0, r3, #1
 80020a8:	687b      	ldr	r3, [r7, #4]
 80020aa:	6859      	ldr	r1, [r3, #4]
 80020ac:	460b      	mov	r3, r1
 80020ae:	009b      	lsls	r3, r3, #2
 80020b0:	440b      	add	r3, r1
 80020b2:	0099      	lsls	r1, r3, #2
 80020b4:	440b      	add	r3, r1
 80020b6:	fbb0 f3f3 	udiv	r3, r0, r3
 80020ba:	3301      	adds	r3, #1
 80020bc:	f3c3 030b 	ubfx	r3, r3, #0, #12
 80020c0:	2b00      	cmp	r3, #0
 80020c2:	bf0c      	ite	eq
 80020c4:	2301      	moveq	r3, #1
 80020c6:	2300      	movne	r3, #0
 80020c8:	b2db      	uxtb	r3, r3
 80020ca:	2b00      	cmp	r3, #0
 80020cc:	d001      	beq.n	80020d2 <HAL_I2C_Init+0x196>
 80020ce:	2301      	movs	r3, #1
 80020d0:	e022      	b.n	8002118 <HAL_I2C_Init+0x1dc>
 80020d2:	687b      	ldr	r3, [r7, #4]
 80020d4:	689b      	ldr	r3, [r3, #8]
 80020d6:	2b00      	cmp	r3, #0
 80020d8:	d10e      	bne.n	80020f8 <HAL_I2C_Init+0x1bc>
 80020da:	68fb      	ldr	r3, [r7, #12]
 80020dc:	1e58      	subs	r0, r3, #1
 80020de:	687b      	ldr	r3, [r7, #4]
 80020e0:	6859      	ldr	r1, [r3, #4]
 80020e2:	460b      	mov	r3, r1
 80020e4:	005b      	lsls	r3, r3, #1
 80020e6:	440b      	add	r3, r1
 80020e8:	fbb0 f3f3 	udiv	r3, r0, r3
 80020ec:	3301      	adds	r3, #1
 80020ee:	f3c3 030b 	ubfx	r3, r3, #0, #12
 80020f2:	f443 4300 	orr.w	r3, r3, #32768	; 0x8000
 80020f6:	e00f      	b.n	8002118 <HAL_I2C_Init+0x1dc>
 80020f8:	68fb      	ldr	r3, [r7, #12]
 80020fa:	1e58      	subs	r0, r3, #1
 80020fc:	687b      	ldr	r3, [r7, #4]
 80020fe:	6859      	ldr	r1, [r3, #4]
 8002100:	460b      	mov	r3, r1
 8002102:	009b      	lsls	r3, r3, #2
 8002104:	440b      	add	r3, r1
 8002106:	0099      	lsls	r1, r3, #2
 8002108:	440b      	add	r3, r1
 800210a:	fbb0 f3f3 	udiv	r3, r0, r3
 800210e:	3301      	adds	r3, #1
 8002110:	f3c3 030b 	ubfx	r3, r3, #0, #12
 8002114:	f443 4340 	orr.w	r3, r3, #49152	; 0xc000
 8002118:	6879      	ldr	r1, [r7, #4]
 800211a:	6809      	ldr	r1, [r1, #0]
 800211c:	4313      	orrs	r3, r2
 800211e:	61cb      	str	r3, [r1, #28]

  /*---------------------------- I2Cx CR1 Configuration ----------------------*/
  /* Configure I2Cx: Generalcall and NoStretch mode */
  MODIFY_REG(hi2c->Instance->CR1, (I2C_CR1_ENGC | I2C_CR1_NOSTRETCH), (hi2c->Init.GeneralCallMode | hi2c->Init.NoStretchMode));
 8002120:	687b      	ldr	r3, [r7, #4]
 8002122:	681b      	ldr	r3, [r3, #0]
 8002124:	681b      	ldr	r3, [r3, #0]
 8002126:	f023 01c0 	bic.w	r1, r3, #192	; 0xc0
 800212a:	687b      	ldr	r3, [r7, #4]
 800212c:	69da      	ldr	r2, [r3, #28]
 800212e:	687b      	ldr	r3, [r7, #4]
 8002130:	6a1b      	ldr	r3, [r3, #32]
 8002132:	431a      	orrs	r2, r3
 8002134:	687b      	ldr	r3, [r7, #4]
 8002136:	681b      	ldr	r3, [r3, #0]
 8002138:	430a      	orrs	r2, r1
 800213a:	601a      	str	r2, [r3, #0]

  /*---------------------------- I2Cx OAR1 Configuration ---------------------*/
  /* Configure I2Cx: Own Address1 and addressing mode */
  MODIFY_REG(hi2c->Instance->OAR1, (I2C_OAR1_ADDMODE | I2C_OAR1_ADD8_9 | I2C_OAR1_ADD1_7 | I2C_OAR1_ADD0), (hi2c->Init.AddressingMode | hi2c->Init.OwnAddress1));
 800213c:	687b      	ldr	r3, [r7, #4]
 800213e:	681b      	ldr	r3, [r3, #0]
 8002140:	689b      	ldr	r3, [r3, #8]
 8002142:	f423 4303 	bic.w	r3, r3, #33536	; 0x8300
 8002146:	f023 03ff 	bic.w	r3, r3, #255	; 0xff
 800214a:	687a      	ldr	r2, [r7, #4]
 800214c:	6911      	ldr	r1, [r2, #16]
 800214e:	687a      	ldr	r2, [r7, #4]
 8002150:	68d2      	ldr	r2, [r2, #12]
 8002152:	4311      	orrs	r1, r2
 8002154:	687a      	ldr	r2, [r7, #4]
 8002156:	6812      	ldr	r2, [r2, #0]
 8002158:	430b      	orrs	r3, r1
 800215a:	6093      	str	r3, [r2, #8]

  /*---------------------------- I2Cx OAR2 Configuration ---------------------*/
  /* Configure I2Cx: Dual mode and Own Address2 */
  MODIFY_REG(hi2c->Instance->OAR2, (I2C_OAR2_ENDUAL | I2C_OAR2_ADD2), (hi2c->Init.DualAddressMode | hi2c->Init.OwnAddress2));
 800215c:	687b      	ldr	r3, [r7, #4]
 800215e:	681b      	ldr	r3, [r3, #0]
 8002160:	68db      	ldr	r3, [r3, #12]
 8002162:	f023 01ff 	bic.w	r1, r3, #255	; 0xff
 8002166:	687b      	ldr	r3, [r7, #4]
 8002168:	695a      	ldr	r2, [r3, #20]
 800216a:	687b      	ldr	r3, [r7, #4]
 800216c:	699b      	ldr	r3, [r3, #24]
 800216e:	431a      	orrs	r2, r3
 8002170:	687b      	ldr	r3, [r7, #4]
 8002172:	681b      	ldr	r3, [r3, #0]
 8002174:	430a      	orrs	r2, r1
 8002176:	60da      	str	r2, [r3, #12]

  /* Enable the selected I2C peripheral */
  __HAL_I2C_ENABLE(hi2c);
 8002178:	687b      	ldr	r3, [r7, #4]
 800217a:	681b      	ldr	r3, [r3, #0]
 800217c:	681a      	ldr	r2, [r3, #0]
 800217e:	687b      	ldr	r3, [r7, #4]
 8002180:	681b      	ldr	r3, [r3, #0]
 8002182:	f042 0201 	orr.w	r2, r2, #1
 8002186:	601a      	str	r2, [r3, #0]

  hi2c->ErrorCode = HAL_I2C_ERROR_NONE;
 8002188:	687b      	ldr	r3, [r7, #4]
 800218a:	2200      	movs	r2, #0
 800218c:	641a      	str	r2, [r3, #64]	; 0x40
  hi2c->State = HAL_I2C_STATE_READY;
 800218e:	687b      	ldr	r3, [r7, #4]
 8002190:	2220      	movs	r2, #32
 8002192:	f883 203d 	strb.w	r2, [r3, #61]	; 0x3d
  hi2c->PreviousState = I2C_STATE_NONE;
 8002196:	687b      	ldr	r3, [r7, #4]
 8002198:	2200      	movs	r2, #0
 800219a:	631a      	str	r2, [r3, #48]	; 0x30
  hi2c->Mode = HAL_I2C_MODE_NONE;
 800219c:	687b      	ldr	r3, [r7, #4]
 800219e:	2200      	movs	r2, #0
 80021a0:	f883 203e 	strb.w	r2, [r3, #62]	; 0x3e

  return HAL_OK;
 80021a4:	2300      	movs	r3, #0
}
 80021a6:	4618      	mov	r0, r3
 80021a8:	3710      	adds	r7, #16
 80021aa:	46bd      	mov	sp, r7
 80021ac:	bd80      	pop	{r7, pc}
 80021ae:	bf00      	nop
 80021b0:	000186a0 	.word	0x000186a0
 80021b4:	001e847f 	.word	0x001e847f
 80021b8:	003d08ff 	.word	0x003d08ff
 80021bc:	431bde83 	.word	0x431bde83
 80021c0:	10624dd3 	.word	0x10624dd3

080021c4 <HAL_I2C_Master_Transmit>:
  * @param  Size Amount of data to be sent
  * @param  Timeout Timeout duration
  * @retval HAL status
  */
HAL_StatusTypeDef HAL_I2C_Master_Transmit(I2C_HandleTypeDef *hi2c, uint16_t DevAddress, uint8_t *pData, uint16_t Size, uint32_t Timeout)
{
 80021c4:	b580      	push	{r7, lr}
 80021c6:	b088      	sub	sp, #32
 80021c8:	af02      	add	r7, sp, #8
 80021ca:	60f8      	str	r0, [r7, #12]
 80021cc:	607a      	str	r2, [r7, #4]
 80021ce:	461a      	mov	r2, r3
 80021d0:	460b      	mov	r3, r1
 80021d2:	817b      	strh	r3, [r7, #10]
 80021d4:	4613      	mov	r3, r2
 80021d6:	813b      	strh	r3, [r7, #8]
  /* Init tickstart for timeout management*/
  uint32_t tickstart = HAL_GetTick();
 80021d8:	f7ff f8f4 	bl	80013c4 <HAL_GetTick>
 80021dc:	6178      	str	r0, [r7, #20]

  if (hi2c->State == HAL_I2C_STATE_READY)
 80021de:	68fb      	ldr	r3, [r7, #12]
 80021e0:	f893 303d 	ldrb.w	r3, [r3, #61]	; 0x3d
 80021e4:	b2db      	uxtb	r3, r3
 80021e6:	2b20      	cmp	r3, #32
 80021e8:	f040 80e0 	bne.w	80023ac <HAL_I2C_Master_Transmit+0x1e8>
  {
    /* Wait until BUSY flag is reset */
    if (I2C_WaitOnFlagUntilTimeout(hi2c, I2C_FLAG_BUSY, SET, I2C_TIMEOUT_BUSY_FLAG, tickstart) != HAL_OK)
 80021ec:	697b      	ldr	r3, [r7, #20]
 80021ee:	9300      	str	r3, [sp, #0]
 80021f0:	2319      	movs	r3, #25
 80021f2:	2201      	movs	r2, #1
 80021f4:	4970      	ldr	r1, [pc, #448]	; (80023b8 <HAL_I2C_Master_Transmit+0x1f4>)
 80021f6:	68f8      	ldr	r0, [r7, #12]
 80021f8:	f000 f964 	bl	80024c4 <I2C_WaitOnFlagUntilTimeout>
 80021fc:	4603      	mov	r3, r0
 80021fe:	2b00      	cmp	r3, #0
 8002200:	d001      	beq.n	8002206 <HAL_I2C_Master_Transmit+0x42>
    {
      return HAL_BUSY;
 8002202:	2302      	movs	r3, #2
 8002204:	e0d3      	b.n	80023ae <HAL_I2C_Master_Transmit+0x1ea>
    }

    /* Process Locked */
    __HAL_LOCK(hi2c);
 8002206:	68fb      	ldr	r3, [r7, #12]
 8002208:	f893 303c 	ldrb.w	r3, [r3, #60]	; 0x3c
 800220c:	2b01      	cmp	r3, #1
 800220e:	d101      	bne.n	8002214 <HAL_I2C_Master_Transmit+0x50>
 8002210:	2302      	movs	r3, #2
 8002212:	e0cc      	b.n	80023ae <HAL_I2C_Master_Transmit+0x1ea>
 8002214:	68fb      	ldr	r3, [r7, #12]
 8002216:	2201      	movs	r2, #1
 8002218:	f883 203c 	strb.w	r2, [r3, #60]	; 0x3c

    /* Check if the I2C is already enabled */
    if ((hi2c->Instance->CR1 & I2C_CR1_PE) != I2C_CR1_PE)
 800221c:	68fb      	ldr	r3, [r7, #12]
 800221e:	681b      	ldr	r3, [r3, #0]
 8002220:	681b      	ldr	r3, [r3, #0]
 8002222:	f003 0301 	and.w	r3, r3, #1
 8002226:	2b01      	cmp	r3, #1
 8002228:	d007      	beq.n	800223a <HAL_I2C_Master_Transmit+0x76>
    {
      /* Enable I2C peripheral */
      __HAL_I2C_ENABLE(hi2c);
 800222a:	68fb      	ldr	r3, [r7, #12]
 800222c:	681b      	ldr	r3, [r3, #0]
 800222e:	681a      	ldr	r2, [r3, #0]
 8002230:	68fb      	ldr	r3, [r7, #12]
 8002232:	681b      	ldr	r3, [r3, #0]
 8002234:	f042 0201 	orr.w	r2, r2, #1
 8002238:	601a      	str	r2, [r3, #0]
    }

    /* Disable Pos */
    CLEAR_BIT(hi2c->Instance->CR1, I2C_CR1_POS);
 800223a:	68fb      	ldr	r3, [r7, #12]
 800223c:	681b      	ldr	r3, [r3, #0]
 800223e:	681a      	ldr	r2, [r3, #0]
 8002240:	68fb      	ldr	r3, [r7, #12]
 8002242:	681b      	ldr	r3, [r3, #0]
 8002244:	f422 6200 	bic.w	r2, r2, #2048	; 0x800
 8002248:	601a      	str	r2, [r3, #0]

    hi2c->State       = HAL_I2C_STATE_BUSY_TX;
 800224a:	68fb      	ldr	r3, [r7, #12]
 800224c:	2221      	movs	r2, #33	; 0x21
 800224e:	f883 203d 	strb.w	r2, [r3, #61]	; 0x3d
    hi2c->Mode        = HAL_I2C_MODE_MASTER;
 8002252:	68fb      	ldr	r3, [r7, #12]
 8002254:	2210      	movs	r2, #16
 8002256:	f883 203e 	strb.w	r2, [r3, #62]	; 0x3e
    hi2c->ErrorCode   = HAL_I2C_ERROR_NONE;
 800225a:	68fb      	ldr	r3, [r7, #12]
 800225c:	2200      	movs	r2, #0
 800225e:	641a      	str	r2, [r3, #64]	; 0x40

    /* Prepare transfer parameters */
    hi2c->pBuffPtr    = pData;
 8002260:	68fb      	ldr	r3, [r7, #12]
 8002262:	687a      	ldr	r2, [r7, #4]
 8002264:	625a      	str	r2, [r3, #36]	; 0x24
    hi2c->XferCount   = Size;
 8002266:	68fb      	ldr	r3, [r7, #12]
 8002268:	893a      	ldrh	r2, [r7, #8]
 800226a:	855a      	strh	r2, [r3, #42]	; 0x2a
    hi2c->XferSize    = hi2c->XferCount;
 800226c:	68fb      	ldr	r3, [r7, #12]
 800226e:	8d5b      	ldrh	r3, [r3, #42]	; 0x2a
 8002270:	b29a      	uxth	r2, r3
 8002272:	68fb      	ldr	r3, [r7, #12]
 8002274:	851a      	strh	r2, [r3, #40]	; 0x28
    hi2c->XferOptions = I2C_NO_OPTION_FRAME;
 8002276:	68fb      	ldr	r3, [r7, #12]
 8002278:	4a50      	ldr	r2, [pc, #320]	; (80023bc <HAL_I2C_Master_Transmit+0x1f8>)
 800227a:	62da      	str	r2, [r3, #44]	; 0x2c

    /* Send Slave Address */
    if (I2C_MasterRequestWrite(hi2c, DevAddress, Timeout, tickstart) != HAL_OK)
 800227c:	8979      	ldrh	r1, [r7, #10]
 800227e:	697b      	ldr	r3, [r7, #20]
 8002280:	6a3a      	ldr	r2, [r7, #32]
 8002282:	68f8      	ldr	r0, [r7, #12]
 8002284:	f000 f89c 	bl	80023c0 <I2C_MasterRequestWrite>
 8002288:	4603      	mov	r3, r0
 800228a:	2b00      	cmp	r3, #0
 800228c:	d001      	beq.n	8002292 <HAL_I2C_Master_Transmit+0xce>
    {
      return HAL_ERROR;
 800228e:	2301      	movs	r3, #1
 8002290:	e08d      	b.n	80023ae <HAL_I2C_Master_Transmit+0x1ea>
    }

    /* Clear ADDR flag */
    __HAL_I2C_CLEAR_ADDRFLAG(hi2c);
 8002292:	2300      	movs	r3, #0
 8002294:	613b      	str	r3, [r7, #16]
 8002296:	68fb      	ldr	r3, [r7, #12]
 8002298:	681b      	ldr	r3, [r3, #0]
 800229a:	695b      	ldr	r3, [r3, #20]
 800229c:	613b      	str	r3, [r7, #16]
 800229e:	68fb      	ldr	r3, [r7, #12]
 80022a0:	681b      	ldr	r3, [r3, #0]
 80022a2:	699b      	ldr	r3, [r3, #24]
 80022a4:	613b      	str	r3, [r7, #16]
 80022a6:	693b      	ldr	r3, [r7, #16]

    while (hi2c->XferSize > 0U)
 80022a8:	e066      	b.n	8002378 <HAL_I2C_Master_Transmit+0x1b4>
    {
      /* Wait until TXE flag is set */
      if (I2C_WaitOnTXEFlagUntilTimeout(hi2c, Timeout, tickstart) != HAL_OK)
 80022aa:	697a      	ldr	r2, [r7, #20]
 80022ac:	6a39      	ldr	r1, [r7, #32]
 80022ae:	68f8      	ldr	r0, [r7, #12]
 80022b0:	f000 f9de 	bl	8002670 <I2C_WaitOnTXEFlagUntilTimeout>
 80022b4:	4603      	mov	r3, r0
 80022b6:	2b00      	cmp	r3, #0
 80022b8:	d00d      	beq.n	80022d6 <HAL_I2C_Master_Transmit+0x112>
      {
        if (hi2c->ErrorCode == HAL_I2C_ERROR_AF)
 80022ba:	68fb      	ldr	r3, [r7, #12]
 80022bc:	6c1b      	ldr	r3, [r3, #64]	; 0x40
 80022be:	2b04      	cmp	r3, #4
 80022c0:	d107      	bne.n	80022d2 <HAL_I2C_Master_Transmit+0x10e>
        {
          /* Generate Stop */
          SET_BIT(hi2c->Instance->CR1, I2C_CR1_STOP);
 80022c2:	68fb      	ldr	r3, [r7, #12]
 80022c4:	681b      	ldr	r3, [r3, #0]
 80022c6:	681a      	ldr	r2, [r3, #0]
 80022c8:	68fb      	ldr	r3, [r7, #12]
 80022ca:	681b      	ldr	r3, [r3, #0]
 80022cc:	f442 7200 	orr.w	r2, r2, #512	; 0x200
 80022d0:	601a      	str	r2, [r3, #0]
        }
        return HAL_ERROR;
 80022d2:	2301      	movs	r3, #1
 80022d4:	e06b      	b.n	80023ae <HAL_I2C_Master_Transmit+0x1ea>
      }

      /* Write data to DR */
      hi2c->Instance->DR = *hi2c->pBuffPtr;
 80022d6:	68fb      	ldr	r3, [r7, #12]
 80022d8:	6a5b      	ldr	r3, [r3, #36]	; 0x24
 80022da:	781a      	ldrb	r2, [r3, #0]
 80022dc:	68fb      	ldr	r3, [r7, #12]
 80022de:	681b      	ldr	r3, [r3, #0]
 80022e0:	611a      	str	r2, [r3, #16]

      /* Increment Buffer pointer */
      hi2c->pBuffPtr++;
 80022e2:	68fb      	ldr	r3, [r7, #12]
 80022e4:	6a5b      	ldr	r3, [r3, #36]	; 0x24
 80022e6:	1c5a      	adds	r2, r3, #1
 80022e8:	68fb      	ldr	r3, [r7, #12]
 80022ea:	625a      	str	r2, [r3, #36]	; 0x24

      /* Update counter */
      hi2c->XferCount--;
 80022ec:	68fb      	ldr	r3, [r7, #12]
 80022ee:	8d5b      	ldrh	r3, [r3, #42]	; 0x2a
 80022f0:	b29b      	uxth	r3, r3
 80022f2:	3b01      	subs	r3, #1
 80022f4:	b29a      	uxth	r2, r3
 80022f6:	68fb      	ldr	r3, [r7, #12]
 80022f8:	855a      	strh	r2, [r3, #42]	; 0x2a
      hi2c->XferSize--;
 80022fa:	68fb      	ldr	r3, [r7, #12]
 80022fc:	8d1b      	ldrh	r3, [r3, #40]	; 0x28
 80022fe:	3b01      	subs	r3, #1
 8002300:	b29a      	uxth	r2, r3
 8002302:	68fb      	ldr	r3, [r7, #12]
 8002304:	851a      	strh	r2, [r3, #40]	; 0x28

      if ((__HAL_I2C_GET_FLAG(hi2c, I2C_FLAG_BTF) == SET) && (hi2c->XferSize != 0U))
 8002306:	68fb      	ldr	r3, [r7, #12]
 8002308:	681b      	ldr	r3, [r3, #0]
 800230a:	695b      	ldr	r3, [r3, #20]
 800230c:	f003 0304 	and.w	r3, r3, #4
 8002310:	2b04      	cmp	r3, #4
 8002312:	d11b      	bne.n	800234c <HAL_I2C_Master_Transmit+0x188>
 8002314:	68fb      	ldr	r3, [r7, #12]
 8002316:	8d1b      	ldrh	r3, [r3, #40]	; 0x28
 8002318:	2b00      	cmp	r3, #0
 800231a:	d017      	beq.n	800234c <HAL_I2C_Master_Transmit+0x188>
      {
        /* Write data to DR */
        hi2c->Instance->DR = *hi2c->pBuffPtr;
 800231c:	68fb      	ldr	r3, [r7, #12]
 800231e:	6a5b      	ldr	r3, [r3, #36]	; 0x24
 8002320:	781a      	ldrb	r2, [r3, #0]
 8002322:	68fb      	ldr	r3, [r7, #12]
 8002324:	681b      	ldr	r3, [r3, #0]
 8002326:	611a      	str	r2, [r3, #16]

        /* Increment Buffer pointer */
        hi2c->pBuffPtr++;
 8002328:	68fb      	ldr	r3, [r7, #12]
 800232a:	6a5b      	ldr	r3, [r3, #36]	; 0x24
 800232c:	1c5a      	adds	r2, r3, #1
 800232e:	68fb      	ldr	r3, [r7, #12]
 8002330:	625a      	str	r2, [r3, #36]	; 0x24

        /* Update counter */
        hi2c->XferCount--;
 8002332:	68fb      	ldr	r3, [r7, #12]
 8002334:	8d5b      	ldrh	r3, [r3, #42]	; 0x2a
 8002336:	b29b      	uxth	r3, r3
 8002338:	3b01      	subs	r3, #1
 800233a:	b29a      	uxth	r2, r3
 800233c:	68fb      	ldr	r3, [r7, #12]
 800233e:	855a      	strh	r2, [r3, #42]	; 0x2a
        hi2c->XferSize--;
 8002340:	68fb      	ldr	r3, [r7, #12]
 8002342:	8d1b      	ldrh	r3, [r3, #40]	; 0x28
 8002344:	3b01      	subs	r3, #1
 8002346:	b29a      	uxth	r2, r3
 8002348:	68fb      	ldr	r3, [r7, #12]
 800234a:	851a      	strh	r2, [r3, #40]	; 0x28
      }

      /* Wait until BTF flag is set */
      if (I2C_WaitOnBTFFlagUntilTimeout(hi2c, Timeout, tickstart) != HAL_OK)
 800234c:	697a      	ldr	r2, [r7, #20]
 800234e:	6a39      	ldr	r1, [r7, #32]
 8002350:	68f8      	ldr	r0, [r7, #12]
 8002352:	f000 f9ce 	bl	80026f2 <I2C_WaitOnBTFFlagUntilTimeout>
 8002356:	4603      	mov	r3, r0
 8002358:	2b00      	cmp	r3, #0
 800235a:	d00d      	beq.n	8002378 <HAL_I2C_Master_Transmit+0x1b4>
      {
        if (hi2c->ErrorCode == HAL_I2C_ERROR_AF)
 800235c:	68fb      	ldr	r3, [r7, #12]
 800235e:	6c1b      	ldr	r3, [r3, #64]	; 0x40
 8002360:	2b04      	cmp	r3, #4
 8002362:	d107      	bne.n	8002374 <HAL_I2C_Master_Transmit+0x1b0>
        {
          /* Generate Stop */
          SET_BIT(hi2c->Instance->CR1, I2C_CR1_STOP);
 8002364:	68fb      	ldr	r3, [r7, #12]
 8002366:	681b      	ldr	r3, [r3, #0]
 8002368:	681a      	ldr	r2, [r3, #0]
 800236a:	68fb      	ldr	r3, [r7, #12]
 800236c:	681b      	ldr	r3, [r3, #0]
 800236e:	f442 7200 	orr.w	r2, r2, #512	; 0x200
 8002372:	601a      	str	r2, [r3, #0]
        }
        return HAL_ERROR;
 8002374:	2301      	movs	r3, #1
 8002376:	e01a      	b.n	80023ae <HAL_I2C_Master_Transmit+0x1ea>
    while (hi2c->XferSize > 0U)
 8002378:	68fb      	ldr	r3, [r7, #12]
 800237a:	8d1b      	ldrh	r3, [r3, #40]	; 0x28
 800237c:	2b00      	cmp	r3, #0
 800237e:	d194      	bne.n	80022aa <HAL_I2C_Master_Transmit+0xe6>
      }
    }

    /* Generate Stop */
    SET_BIT(hi2c->Instance->CR1, I2C_CR1_STOP);
 8002380:	68fb      	ldr	r3, [r7, #12]
 8002382:	681b      	ldr	r3, [r3, #0]
 8002384:	681a      	ldr	r2, [r3, #0]
 8002386:	68fb      	ldr	r3, [r7, #12]
 8002388:	681b      	ldr	r3, [r3, #0]
 800238a:	f442 7200 	orr.w	r2, r2, #512	; 0x200
 800238e:	601a      	str	r2, [r3, #0]

    hi2c->State = HAL_I2C_STATE_READY;
 8002390:	68fb      	ldr	r3, [r7, #12]
 8002392:	2220      	movs	r2, #32
 8002394:	f883 203d 	strb.w	r2, [r3, #61]	; 0x3d
    hi2c->Mode = HAL_I2C_MODE_NONE;
 8002398:	68fb      	ldr	r3, [r7, #12]
 800239a:	2200      	movs	r2, #0
 800239c:	f883 203e 	strb.w	r2, [r3, #62]	; 0x3e

    /* Process Unlocked */
    __HAL_UNLOCK(hi2c);
 80023a0:	68fb      	ldr	r3, [r7, #12]
 80023a2:	2200      	movs	r2, #0
 80023a4:	f883 203c 	strb.w	r2, [r3, #60]	; 0x3c

    return HAL_OK;
 80023a8:	2300      	movs	r3, #0
 80023aa:	e000      	b.n	80023ae <HAL_I2C_Master_Transmit+0x1ea>
  }
  else
  {
    return HAL_BUSY;
 80023ac:	2302      	movs	r3, #2
  }
}
 80023ae:	4618      	mov	r0, r3
 80023b0:	3718      	adds	r7, #24
 80023b2:	46bd      	mov	sp, r7
 80023b4:	bd80      	pop	{r7, pc}
 80023b6:	bf00      	nop
 80023b8:	00100002 	.word	0x00100002
 80023bc:	ffff0000 	.word	0xffff0000

080023c0 <I2C_MasterRequestWrite>:
  * @param  Timeout Timeout duration
  * @param  Tickstart Tick start value
  * @retval HAL status
  */
static HAL_StatusTypeDef I2C_MasterRequestWrite(I2C_HandleTypeDef *hi2c, uint16_t DevAddress, uint32_t Timeout, uint32_t Tickstart)
{
 80023c0:	b580      	push	{r7, lr}
 80023c2:	b088      	sub	sp, #32
 80023c4:	af02      	add	r7, sp, #8
 80023c6:	60f8      	str	r0, [r7, #12]
 80023c8:	607a      	str	r2, [r7, #4]
 80023ca:	603b      	str	r3, [r7, #0]
 80023cc:	460b      	mov	r3, r1
 80023ce:	817b      	strh	r3, [r7, #10]
  /* Declaration of temporary variable to prevent undefined behavior of volatile usage */
  uint32_t CurrentXferOptions = hi2c->XferOptions;
 80023d0:	68fb      	ldr	r3, [r7, #12]
 80023d2:	6adb      	ldr	r3, [r3, #44]	; 0x2c
 80023d4:	617b      	str	r3, [r7, #20]

  /* Generate Start condition if first transfer */
  if ((CurrentXferOptions == I2C_FIRST_AND_LAST_FRAME) || (CurrentXferOptions == I2C_FIRST_FRAME) || (CurrentXferOptions == I2C_NO_OPTION_FRAME))
 80023d6:	697b      	ldr	r3, [r7, #20]
 80023d8:	2b08      	cmp	r3, #8
 80023da:	d006      	beq.n	80023ea <I2C_MasterRequestWrite+0x2a>
 80023dc:	697b      	ldr	r3, [r7, #20]
 80023de:	2b01      	cmp	r3, #1
 80023e0:	d003      	beq.n	80023ea <I2C_MasterRequestWrite+0x2a>
 80023e2:	697b      	ldr	r3, [r7, #20]
 80023e4:	f513 3f80 	cmn.w	r3, #65536	; 0x10000
 80023e8:	d108      	bne.n	80023fc <I2C_MasterRequestWrite+0x3c>
  {
    /* Generate Start */
    SET_BIT(hi2c->Instance->CR1, I2C_CR1_START);
 80023ea:	68fb      	ldr	r3, [r7, #12]
 80023ec:	681b      	ldr	r3, [r3, #0]
 80023ee:	681a      	ldr	r2, [r3, #0]
 80023f0:	68fb      	ldr	r3, [r7, #12]
 80023f2:	681b      	ldr	r3, [r3, #0]
 80023f4:	f442 7280 	orr.w	r2, r2, #256	; 0x100
 80023f8:	601a      	str	r2, [r3, #0]
 80023fa:	e00b      	b.n	8002414 <I2C_MasterRequestWrite+0x54>
  }
  else if (hi2c->PreviousState == I2C_STATE_MASTER_BUSY_RX)
 80023fc:	68fb      	ldr	r3, [r7, #12]
 80023fe:	6b1b      	ldr	r3, [r3, #48]	; 0x30
 8002400:	2b12      	cmp	r3, #18
 8002402:	d107      	bne.n	8002414 <I2C_MasterRequestWrite+0x54>
  {
    /* Generate ReStart */
    SET_BIT(hi2c->Instance->CR1, I2C_CR1_START);
 8002404:	68fb      	ldr	r3, [r7, #12]
 8002406:	681b      	ldr	r3, [r3, #0]
 8002408:	681a      	ldr	r2, [r3, #0]
 800240a:	68fb      	ldr	r3, [r7, #12]
 800240c:	681b      	ldr	r3, [r3, #0]
 800240e:	f442 7280 	orr.w	r2, r2, #256	; 0x100
 8002412:	601a      	str	r2, [r3, #0]
  {
    /* Do nothing */
  }

  /* Wait until SB flag is set */
  if (I2C_WaitOnFlagUntilTimeout(hi2c, I2C_FLAG_SB, RESET, Timeout, Tickstart) != HAL_OK)
 8002414:	683b      	ldr	r3, [r7, #0]
 8002416:	9300      	str	r3, [sp, #0]
 8002418:	687b      	ldr	r3, [r7, #4]
 800241a:	2200      	movs	r2, #0
 800241c:	f04f 1101 	mov.w	r1, #65537	; 0x10001
 8002420:	68f8      	ldr	r0, [r7, #12]
 8002422:	f000 f84f 	bl	80024c4 <I2C_WaitOnFlagUntilTimeout>
 8002426:	4603      	mov	r3, r0
 8002428:	2b00      	cmp	r3, #0
 800242a:	d00d      	beq.n	8002448 <I2C_MasterRequestWrite+0x88>
  {
    if (READ_BIT(hi2c->Instance->CR1, I2C_CR1_START) == I2C_CR1_START)
 800242c:	68fb      	ldr	r3, [r7, #12]
 800242e:	681b      	ldr	r3, [r3, #0]
 8002430:	681b      	ldr	r3, [r3, #0]
 8002432:	f403 7380 	and.w	r3, r3, #256	; 0x100
 8002436:	f5b3 7f80 	cmp.w	r3, #256	; 0x100
 800243a:	d103      	bne.n	8002444 <I2C_MasterRequestWrite+0x84>
    {
      hi2c->ErrorCode = HAL_I2C_WRONG_START;
 800243c:	68fb      	ldr	r3, [r7, #12]
 800243e:	f44f 7200 	mov.w	r2, #512	; 0x200
 8002442:	641a      	str	r2, [r3, #64]	; 0x40
    }
    return HAL_TIMEOUT;
 8002444:	2303      	movs	r3, #3
 8002446:	e035      	b.n	80024b4 <I2C_MasterRequestWrite+0xf4>
  }

  if (hi2c->Init.AddressingMode == I2C_ADDRESSINGMODE_7BIT)
 8002448:	68fb      	ldr	r3, [r7, #12]
 800244a:	691b      	ldr	r3, [r3, #16]
 800244c:	f5b3 4f80 	cmp.w	r3, #16384	; 0x4000
 8002450:	d108      	bne.n	8002464 <I2C_MasterRequestWrite+0xa4>
  {
    /* Send slave address */
    hi2c->Instance->DR = I2C_7BIT_ADD_WRITE(DevAddress);
 8002452:	897b      	ldrh	r3, [r7, #10]
 8002454:	b2db      	uxtb	r3, r3
 8002456:	461a      	mov	r2, r3
 8002458:	68fb      	ldr	r3, [r7, #12]
 800245a:	681b      	ldr	r3, [r3, #0]
 800245c:	f002 02fe 	and.w	r2, r2, #254	; 0xfe
 8002460:	611a      	str	r2, [r3, #16]
 8002462:	e01b      	b.n	800249c <I2C_MasterRequestWrite+0xdc>
  }
  else
  {
    /* Send header of slave address */
    hi2c->Instance->DR = I2C_10BIT_HEADER_WRITE(DevAddress);
 8002464:	897b      	ldrh	r3, [r7, #10]
 8002466:	11db      	asrs	r3, r3, #7
 8002468:	b2db      	uxtb	r3, r3
 800246a:	f003 0306 	and.w	r3, r3, #6
 800246e:	b2db      	uxtb	r3, r3
 8002470:	f063 030f 	orn	r3, r3, #15
 8002474:	b2da      	uxtb	r2, r3
 8002476:	68fb      	ldr	r3, [r7, #12]
 8002478:	681b      	ldr	r3, [r3, #0]
 800247a:	611a      	str	r2, [r3, #16]

    /* Wait until ADD10 flag is set */
    if (I2C_WaitOnMasterAddressFlagUntilTimeout(hi2c, I2C_FLAG_ADD10, Timeout, Tickstart) != HAL_OK)
 800247c:	683b      	ldr	r3, [r7, #0]
 800247e:	687a      	ldr	r2, [r7, #4]
 8002480:	490e      	ldr	r1, [pc, #56]	; (80024bc <I2C_MasterRequestWrite+0xfc>)
 8002482:	68f8      	ldr	r0, [r7, #12]
 8002484:	f000 f875 	bl	8002572 <I2C_WaitOnMasterAddressFlagUntilTimeout>
 8002488:	4603      	mov	r3, r0
 800248a:	2b00      	cmp	r3, #0
 800248c:	d001      	beq.n	8002492 <I2C_MasterRequestWrite+0xd2>
    {
      return HAL_ERROR;
 800248e:	2301      	movs	r3, #1
 8002490:	e010      	b.n	80024b4 <I2C_MasterRequestWrite+0xf4>
    }

    /* Send slave address */
    hi2c->Instance->DR = I2C_10BIT_ADDRESS(DevAddress);
 8002492:	897b      	ldrh	r3, [r7, #10]
 8002494:	b2da      	uxtb	r2, r3
 8002496:	68fb      	ldr	r3, [r7, #12]
 8002498:	681b      	ldr	r3, [r3, #0]
 800249a:	611a      	str	r2, [r3, #16]
  }

  /* Wait until ADDR flag is set */
  if (I2C_WaitOnMasterAddressFlagUntilTimeout(hi2c, I2C_FLAG_ADDR, Timeout, Tickstart) != HAL_OK)
 800249c:	683b      	ldr	r3, [r7, #0]
 800249e:	687a      	ldr	r2, [r7, #4]
 80024a0:	4907      	ldr	r1, [pc, #28]	; (80024c0 <I2C_MasterRequestWrite+0x100>)
 80024a2:	68f8      	ldr	r0, [r7, #12]
 80024a4:	f000 f865 	bl	8002572 <I2C_WaitOnMasterAddressFlagUntilTimeout>
 80024a8:	4603      	mov	r3, r0
 80024aa:	2b00      	cmp	r3, #0
 80024ac:	d001      	beq.n	80024b2 <I2C_MasterRequestWrite+0xf2>
  {
    return HAL_ERROR;
 80024ae:	2301      	movs	r3, #1
 80024b0:	e000      	b.n	80024b4 <I2C_MasterRequestWrite+0xf4>
  }

  return HAL_OK;
 80024b2:	2300      	movs	r3, #0
}
 80024b4:	4618      	mov	r0, r3
 80024b6:	3718      	adds	r7, #24
 80024b8:	46bd      	mov	sp, r7
 80024ba:	bd80      	pop	{r7, pc}
 80024bc:	00010008 	.word	0x00010008
 80024c0:	00010002 	.word	0x00010002

080024c4 <I2C_WaitOnFlagUntilTimeout>:
  * @param  Timeout Timeout duration
  * @param  Tickstart Tick start value
  * @retval HAL status
  */
static HAL_StatusTypeDef I2C_WaitOnFlagUntilTimeout(I2C_HandleTypeDef *hi2c, uint32_t Flag, FlagStatus Status, uint32_t Timeout, uint32_t Tickstart)
{
 80024c4:	b580      	push	{r7, lr}
 80024c6:	b084      	sub	sp, #16
 80024c8:	af00      	add	r7, sp, #0
 80024ca:	60f8      	str	r0, [r7, #12]
 80024cc:	60b9      	str	r1, [r7, #8]
 80024ce:	603b      	str	r3, [r7, #0]
 80024d0:	4613      	mov	r3, r2
 80024d2:	71fb      	strb	r3, [r7, #7]
  /* Wait until flag is set */
  while (__HAL_I2C_GET_FLAG(hi2c, Flag) == Status)
 80024d4:	e025      	b.n	8002522 <I2C_WaitOnFlagUntilTimeout+0x5e>
  {
    /* Check for the Timeout */
    if (Timeout != HAL_MAX_DELAY)
 80024d6:	683b      	ldr	r3, [r7, #0]
 80024d8:	f1b3 3fff 	cmp.w	r3, #4294967295
 80024dc:	d021      	beq.n	8002522 <I2C_WaitOnFlagUntilTimeout+0x5e>
    {
      if (((HAL_GetTick() - Tickstart) > Timeout) || (Timeout == 0U))
 80024de:	f7fe ff71 	bl	80013c4 <HAL_GetTick>
 80024e2:	4602      	mov	r2, r0
 80024e4:	69bb      	ldr	r3, [r7, #24]
 80024e6:	1ad3      	subs	r3, r2, r3
 80024e8:	683a      	ldr	r2, [r7, #0]
 80024ea:	429a      	cmp	r2, r3
 80024ec:	d302      	bcc.n	80024f4 <I2C_WaitOnFlagUntilTimeout+0x30>
 80024ee:	683b      	ldr	r3, [r7, #0]
 80024f0:	2b00      	cmp	r3, #0
 80024f2:	d116      	bne.n	8002522 <I2C_WaitOnFlagUntilTimeout+0x5e>
      {
        hi2c->PreviousState     = I2C_STATE_NONE;
 80024f4:	68fb      	ldr	r3, [r7, #12]
 80024f6:	2200      	movs	r2, #0
 80024f8:	631a      	str	r2, [r3, #48]	; 0x30
        hi2c->State             = HAL_I2C_STATE_READY;
 80024fa:	68fb      	ldr	r3, [r7, #12]
 80024fc:	2220      	movs	r2, #32
 80024fe:	f883 203d 	strb.w	r2, [r3, #61]	; 0x3d
        hi2c->Mode              = HAL_I2C_MODE_NONE;
 8002502:	68fb      	ldr	r3, [r7, #12]
 8002504:	2200      	movs	r2, #0
 8002506:	f883 203e 	strb.w	r2, [r3, #62]	; 0x3e
        hi2c->ErrorCode         |= HAL_I2C_ERROR_TIMEOUT;
 800250a:	68fb      	ldr	r3, [r7, #12]
 800250c:	6c1b      	ldr	r3, [r3, #64]	; 0x40
 800250e:	f043 0220 	orr.w	r2, r3, #32
 8002512:	68fb      	ldr	r3, [r7, #12]
 8002514:	641a      	str	r2, [r3, #64]	; 0x40

        /* Process Unlocked */
        __HAL_UNLOCK(hi2c);
 8002516:	68fb      	ldr	r3, [r7, #12]
 8002518:	2200      	movs	r2, #0
 800251a:	f883 203c 	strb.w	r2, [r3, #60]	; 0x3c

        return HAL_ERROR;
 800251e:	2301      	movs	r3, #1
 8002520:	e023      	b.n	800256a <I2C_WaitOnFlagUntilTimeout+0xa6>
  while (__HAL_I2C_GET_FLAG(hi2c, Flag) == Status)
 8002522:	68bb      	ldr	r3, [r7, #8]
 8002524:	0c1b      	lsrs	r3, r3, #16
 8002526:	b2db      	uxtb	r3, r3
 8002528:	2b01      	cmp	r3, #1
 800252a:	d10d      	bne.n	8002548 <I2C_WaitOnFlagUntilTimeout+0x84>
 800252c:	68fb      	ldr	r3, [r7, #12]
 800252e:	681b      	ldr	r3, [r3, #0]
 8002530:	695b      	ldr	r3, [r3, #20]
 8002532:	43da      	mvns	r2, r3
 8002534:	68bb      	ldr	r3, [r7, #8]
 8002536:	4013      	ands	r3, r2
 8002538:	b29b      	uxth	r3, r3
 800253a:	2b00      	cmp	r3, #0
 800253c:	bf0c      	ite	eq
 800253e:	2301      	moveq	r3, #1
 8002540:	2300      	movne	r3, #0
 8002542:	b2db      	uxtb	r3, r3
 8002544:	461a      	mov	r2, r3
 8002546:	e00c      	b.n	8002562 <I2C_WaitOnFlagUntilTimeout+0x9e>
 8002548:	68fb      	ldr	r3, [r7, #12]
 800254a:	681b      	ldr	r3, [r3, #0]
 800254c:	699b      	ldr	r3, [r3, #24]
 800254e:	43da      	mvns	r2, r3
 8002550:	68bb      	ldr	r3, [r7, #8]
 8002552:	4013      	ands	r3, r2
 8002554:	b29b      	uxth	r3, r3
 8002556:	2b00      	cmp	r3, #0
 8002558:	bf0c      	ite	eq
 800255a:	2301      	moveq	r3, #1
 800255c:	2300      	movne	r3, #0
 800255e:	b2db      	uxtb	r3, r3
 8002560:	461a      	mov	r2, r3
 8002562:	79fb      	ldrb	r3, [r7, #7]
 8002564:	429a      	cmp	r2, r3
 8002566:	d0b6      	beq.n	80024d6 <I2C_WaitOnFlagUntilTimeout+0x12>
      }
    }
  }
  return HAL_OK;
 8002568:	2300      	movs	r3, #0
}
 800256a:	4618      	mov	r0, r3
 800256c:	3710      	adds	r7, #16
 800256e:	46bd      	mov	sp, r7
 8002570:	bd80      	pop	{r7, pc}

08002572 <I2C_WaitOnMasterAddressFlagUntilTimeout>:
  * @param  Timeout Timeout duration
  * @param  Tickstart Tick start value
  * @retval HAL status
  */
static HAL_StatusTypeDef I2C_WaitOnMasterAddressFlagUntilTimeout(I2C_HandleTypeDef *hi2c, uint32_t Flag, uint32_t Timeout, uint32_t Tickstart)
{
 8002572:	b580      	push	{r7, lr}
 8002574:	b084      	sub	sp, #16
 8002576:	af00      	add	r7, sp, #0
 8002578:	60f8      	str	r0, [r7, #12]
 800257a:	60b9      	str	r1, [r7, #8]
 800257c:	607a      	str	r2, [r7, #4]
 800257e:	603b      	str	r3, [r7, #0]
  while (__HAL_I2C_GET_FLAG(hi2c, Flag) == RESET)
 8002580:	e051      	b.n	8002626 <I2C_WaitOnMasterAddressFlagUntilTimeout+0xb4>
  {
    if (__HAL_I2C_GET_FLAG(hi2c, I2C_FLAG_AF) == SET)
 8002582:	68fb      	ldr	r3, [r7, #12]
 8002584:	681b      	ldr	r3, [r3, #0]
 8002586:	695b      	ldr	r3, [r3, #20]
 8002588:	f403 6380 	and.w	r3, r3, #1024	; 0x400
 800258c:	f5b3 6f80 	cmp.w	r3, #1024	; 0x400
 8002590:	d123      	bne.n	80025da <I2C_WaitOnMasterAddressFlagUntilTimeout+0x68>
    {
      /* Generate Stop */
      SET_BIT(hi2c->Instance->CR1, I2C_CR1_STOP);
 8002592:	68fb      	ldr	r3, [r7, #12]
 8002594:	681b      	ldr	r3, [r3, #0]
 8002596:	681a      	ldr	r2, [r3, #0]
 8002598:	68fb      	ldr	r3, [r7, #12]
 800259a:	681b      	ldr	r3, [r3, #0]
 800259c:	f442 7200 	orr.w	r2, r2, #512	; 0x200
 80025a0:	601a      	str	r2, [r3, #0]

      /* Clear AF Flag */
      __HAL_I2C_CLEAR_FLAG(hi2c, I2C_FLAG_AF);
 80025a2:	68fb      	ldr	r3, [r7, #12]
 80025a4:	681b      	ldr	r3, [r3, #0]
 80025a6:	f46f 6280 	mvn.w	r2, #1024	; 0x400
 80025aa:	615a      	str	r2, [r3, #20]

      hi2c->PreviousState       = I2C_STATE_NONE;
 80025ac:	68fb      	ldr	r3, [r7, #12]
 80025ae:	2200      	movs	r2, #0
 80025b0:	631a      	str	r2, [r3, #48]	; 0x30
      hi2c->State               = HAL_I2C_STATE_READY;
 80025b2:	68fb      	ldr	r3, [r7, #12]
 80025b4:	2220      	movs	r2, #32
 80025b6:	f883 203d 	strb.w	r2, [r3, #61]	; 0x3d
      hi2c->Mode                = HAL_I2C_MODE_NONE;
 80025ba:	68fb      	ldr	r3, [r7, #12]
 80025bc:	2200      	movs	r2, #0
 80025be:	f883 203e 	strb.w	r2, [r3, #62]	; 0x3e
      hi2c->ErrorCode           |= HAL_I2C_ERROR_AF;
 80025c2:	68fb      	ldr	r3, [r7, #12]
 80025c4:	6c1b      	ldr	r3, [r3, #64]	; 0x40
 80025c6:	f043 0204 	orr.w	r2, r3, #4
 80025ca:	68fb      	ldr	r3, [r7, #12]
 80025cc:	641a      	str	r2, [r3, #64]	; 0x40

      /* Process Unlocked */
      __HAL_UNLOCK(hi2c);
 80025ce:	68fb      	ldr	r3, [r7, #12]
 80025d0:	2200      	movs	r2, #0
 80025d2:	f883 203c 	strb.w	r2, [r3, #60]	; 0x3c

      return HAL_ERROR;
 80025d6:	2301      	movs	r3, #1
 80025d8:	e046      	b.n	8002668 <I2C_WaitOnMasterAddressFlagUntilTimeout+0xf6>
    }

    /* Check for the Timeout */
    if (Timeout != HAL_MAX_DELAY)
 80025da:	687b      	ldr	r3, [r7, #4]
 80025dc:	f1b3 3fff 	cmp.w	r3, #4294967295
 80025e0:	d021      	beq.n	8002626 <I2C_WaitOnMasterAddressFlagUntilTimeout+0xb4>
    {
      if (((HAL_GetTick() - Tickstart) > Timeout) || (Timeout == 0U))
 80025e2:	f7fe feef 	bl	80013c4 <HAL_GetTick>
 80025e6:	4602      	mov	r2, r0
 80025e8:	683b      	ldr	r3, [r7, #0]
 80025ea:	1ad3      	subs	r3, r2, r3
 80025ec:	687a      	ldr	r2, [r7, #4]
 80025ee:	429a      	cmp	r2, r3
 80025f0:	d302      	bcc.n	80025f8 <I2C_WaitOnMasterAddressFlagUntilTimeout+0x86>
 80025f2:	687b      	ldr	r3, [r7, #4]
 80025f4:	2b00      	cmp	r3, #0
 80025f6:	d116      	bne.n	8002626 <I2C_WaitOnMasterAddressFlagUntilTimeout+0xb4>
      {
        hi2c->PreviousState       = I2C_STATE_NONE;
 80025f8:	68fb      	ldr	r3, [r7, #12]
 80025fa:	2200      	movs	r2, #0
 80025fc:	631a      	str	r2, [r3, #48]	; 0x30
        hi2c->State               = HAL_I2C_STATE_READY;
 80025fe:	68fb      	ldr	r3, [r7, #12]
 8002600:	2220      	movs	r2, #32
 8002602:	f883 203d 	strb.w	r2, [r3, #61]	; 0x3d
        hi2c->Mode                = HAL_I2C_MODE_NONE;
 8002606:	68fb      	ldr	r3, [r7, #12]
 8002608:	2200      	movs	r2, #0
 800260a:	f883 203e 	strb.w	r2, [r3, #62]	; 0x3e
        hi2c->ErrorCode           |= HAL_I2C_ERROR_TIMEOUT;
 800260e:	68fb      	ldr	r3, [r7, #12]
 8002610:	6c1b      	ldr	r3, [r3, #64]	; 0x40
 8002612:	f043 0220 	orr.w	r2, r3, #32
 8002616:	68fb      	ldr	r3, [r7, #12]
 8002618:	641a      	str	r2, [r3, #64]	; 0x40

        /* Process Unlocked */
        __HAL_UNLOCK(hi2c);
 800261a:	68fb      	ldr	r3, [r7, #12]
 800261c:	2200      	movs	r2, #0
 800261e:	f883 203c 	strb.w	r2, [r3, #60]	; 0x3c

        return HAL_ERROR;
 8002622:	2301      	movs	r3, #1
 8002624:	e020      	b.n	8002668 <I2C_WaitOnMasterAddressFlagUntilTimeout+0xf6>
  while (__HAL_I2C_GET_FLAG(hi2c, Flag) == RESET)
 8002626:	68bb      	ldr	r3, [r7, #8]
 8002628:	0c1b      	lsrs	r3, r3, #16
 800262a:	b2db      	uxtb	r3, r3
 800262c:	2b01      	cmp	r3, #1
 800262e:	d10c      	bne.n	800264a <I2C_WaitOnMasterAddressFlagUntilTimeout+0xd8>
 8002630:	68fb      	ldr	r3, [r7, #12]
 8002632:	681b      	ldr	r3, [r3, #0]
 8002634:	695b      	ldr	r3, [r3, #20]
 8002636:	43da      	mvns	r2, r3
 8002638:	68bb      	ldr	r3, [r7, #8]
 800263a:	4013      	ands	r3, r2
 800263c:	b29b      	uxth	r3, r3
 800263e:	2b00      	cmp	r3, #0
 8002640:	bf14      	ite	ne
 8002642:	2301      	movne	r3, #1
 8002644:	2300      	moveq	r3, #0
 8002646:	b2db      	uxtb	r3, r3
 8002648:	e00b      	b.n	8002662 <I2C_WaitOnMasterAddressFlagUntilTimeout+0xf0>
 800264a:	68fb      	ldr	r3, [r7, #12]
 800264c:	681b      	ldr	r3, [r3, #0]
 800264e:	699b      	ldr	r3, [r3, #24]
 8002650:	43da      	mvns	r2, r3
 8002652:	68bb      	ldr	r3, [r7, #8]
 8002654:	4013      	ands	r3, r2
 8002656:	b29b      	uxth	r3, r3
 8002658:	2b00      	cmp	r3, #0
 800265a:	bf14      	ite	ne
 800265c:	2301      	movne	r3, #1
 800265e:	2300      	moveq	r3, #0
 8002660:	b2db      	uxtb	r3, r3
 8002662:	2b00      	cmp	r3, #0
 8002664:	d18d      	bne.n	8002582 <I2C_WaitOnMasterAddressFlagUntilTimeout+0x10>
      }
    }
  }
  return HAL_OK;
 8002666:	2300      	movs	r3, #0
}
 8002668:	4618      	mov	r0, r3
 800266a:	3710      	adds	r7, #16
 800266c:	46bd      	mov	sp, r7
 800266e:	bd80      	pop	{r7, pc}

08002670 <I2C_WaitOnTXEFlagUntilTimeout>:
  * @param  Timeout Timeout duration
  * @param  Tickstart Tick start value
  * @retval HAL status
  */
static HAL_StatusTypeDef I2C_WaitOnTXEFlagUntilTimeout(I2C_HandleTypeDef *hi2c, uint32_t Timeout, uint32_t Tickstart)
{
 8002670:	b580      	push	{r7, lr}
 8002672:	b084      	sub	sp, #16
 8002674:	af00      	add	r7, sp, #0
 8002676:	60f8      	str	r0, [r7, #12]
 8002678:	60b9      	str	r1, [r7, #8]
 800267a:	607a      	str	r2, [r7, #4]
  while (__HAL_I2C_GET_FLAG(hi2c, I2C_FLAG_TXE) == RESET)
 800267c:	e02d      	b.n	80026da <I2C_WaitOnTXEFlagUntilTimeout+0x6a>
  {
    /* Check if a NACK is detected */
    if (I2C_IsAcknowledgeFailed(hi2c) != HAL_OK)
 800267e:	68f8      	ldr	r0, [r7, #12]
 8002680:	f000 f878 	bl	8002774 <I2C_IsAcknowledgeFailed>
 8002684:	4603      	mov	r3, r0
 8002686:	2b00      	cmp	r3, #0
 8002688:	d001      	beq.n	800268e <I2C_WaitOnTXEFlagUntilTimeout+0x1e>
    {
      return HAL_ERROR;
 800268a:	2301      	movs	r3, #1
 800268c:	e02d      	b.n	80026ea <I2C_WaitOnTXEFlagUntilTimeout+0x7a>
    }

    /* Check for the Timeout */
    if (Timeout != HAL_MAX_DELAY)
 800268e:	68bb      	ldr	r3, [r7, #8]
 8002690:	f1b3 3fff 	cmp.w	r3, #4294967295
 8002694:	d021      	beq.n	80026da <I2C_WaitOnTXEFlagUntilTimeout+0x6a>
    {
      if (((HAL_GetTick() - Tickstart) > Timeout) || (Timeout == 0U))
 8002696:	f7fe fe95 	bl	80013c4 <HAL_GetTick>
 800269a:	4602      	mov	r2, r0
 800269c:	687b      	ldr	r3, [r7, #4]
 800269e:	1ad3      	subs	r3, r2, r3
 80026a0:	68ba      	ldr	r2, [r7, #8]
 80026a2:	429a      	cmp	r2, r3
 80026a4:	d302      	bcc.n	80026ac <I2C_WaitOnTXEFlagUntilTimeout+0x3c>
 80026a6:	68bb      	ldr	r3, [r7, #8]
 80026a8:	2b00      	cmp	r3, #0
 80026aa:	d116      	bne.n	80026da <I2C_WaitOnTXEFlagUntilTimeout+0x6a>
      {
        hi2c->PreviousState       = I2C_STATE_NONE;
 80026ac:	68fb      	ldr	r3, [r7, #12]
 80026ae:	2200      	movs	r2, #0
 80026b0:	631a      	str	r2, [r3, #48]	; 0x30
        hi2c->State               = HAL_I2C_STATE_READY;
 80026b2:	68fb      	ldr	r3, [r7, #12]
 80026b4:	2220      	movs	r2, #32
 80026b6:	f883 203d 	strb.w	r2, [r3, #61]	; 0x3d
        hi2c->Mode                = HAL_I2C_MODE_NONE;
 80026ba:	68fb      	ldr	r3, [r7, #12]
 80026bc:	2200      	movs	r2, #0
 80026be:	f883 203e 	strb.w	r2, [r3, #62]	; 0x3e
        hi2c->ErrorCode           |= HAL_I2C_ERROR_TIMEOUT;
 80026c2:	68fb      	ldr	r3, [r7, #12]
 80026c4:	6c1b      	ldr	r3, [r3, #64]	; 0x40
 80026c6:	f043 0220 	orr.w	r2, r3, #32
 80026ca:	68fb      	ldr	r3, [r7, #12]
 80026cc:	641a      	str	r2, [r3, #64]	; 0x40

        /* Process Unlocked */
        __HAL_UNLOCK(hi2c);
 80026ce:	68fb      	ldr	r3, [r7, #12]
 80026d0:	2200      	movs	r2, #0
 80026d2:	f883 203c 	strb.w	r2, [r3, #60]	; 0x3c

        return HAL_ERROR;
 80026d6:	2301      	movs	r3, #1
 80026d8:	e007      	b.n	80026ea <I2C_WaitOnTXEFlagUntilTimeout+0x7a>
  while (__HAL_I2C_GET_FLAG(hi2c, I2C_FLAG_TXE) == RESET)
 80026da:	68fb      	ldr	r3, [r7, #12]
 80026dc:	681b      	ldr	r3, [r3, #0]
 80026de:	695b      	ldr	r3, [r3, #20]
 80026e0:	f003 0380 	and.w	r3, r3, #128	; 0x80
 80026e4:	2b80      	cmp	r3, #128	; 0x80
 80026e6:	d1ca      	bne.n	800267e <I2C_WaitOnTXEFlagUntilTimeout+0xe>
      }
    }
  }
  return HAL_OK;
 80026e8:	2300      	movs	r3, #0
}
 80026ea:	4618      	mov	r0, r3
 80026ec:	3710      	adds	r7, #16
 80026ee:	46bd      	mov	sp, r7
 80026f0:	bd80      	pop	{r7, pc}

080026f2 <I2C_WaitOnBTFFlagUntilTimeout>:
  * @param  Timeout Timeout duration
  * @param  Tickstart Tick start value
  * @retval HAL status
  */
static HAL_StatusTypeDef I2C_WaitOnBTFFlagUntilTimeout(I2C_HandleTypeDef *hi2c, uint32_t Timeout, uint32_t Tickstart)
{
 80026f2:	b580      	push	{r7, lr}
 80026f4:	b084      	sub	sp, #16
 80026f6:	af00      	add	r7, sp, #0
 80026f8:	60f8      	str	r0, [r7, #12]
 80026fa:	60b9      	str	r1, [r7, #8]
 80026fc:	607a      	str	r2, [r7, #4]
  while (__HAL_I2C_GET_FLAG(hi2c, I2C_FLAG_BTF) == RESET)
 80026fe:	e02d      	b.n	800275c <I2C_WaitOnBTFFlagUntilTimeout+0x6a>
  {
    /* Check if a NACK is detected */
    if (I2C_IsAcknowledgeFailed(hi2c) != HAL_OK)
 8002700:	68f8      	ldr	r0, [r7, #12]
 8002702:	f000 f837 	bl	8002774 <I2C_IsAcknowledgeFailed>
 8002706:	4603      	mov	r3, r0
 8002708:	2b00      	cmp	r3, #0
 800270a:	d001      	beq.n	8002710 <I2C_WaitOnBTFFlagUntilTimeout+0x1e>
    {
      return HAL_ERROR;
 800270c:	2301      	movs	r3, #1
 800270e:	e02d      	b.n	800276c <I2C_WaitOnBTFFlagUntilTimeout+0x7a>
    }

    /* Check for the Timeout */
    if (Timeout != HAL_MAX_DELAY)
 8002710:	68bb      	ldr	r3, [r7, #8]
 8002712:	f1b3 3fff 	cmp.w	r3, #4294967295
 8002716:	d021      	beq.n	800275c <I2C_WaitOnBTFFlagUntilTimeout+0x6a>
    {
      if (((HAL_GetTick() - Tickstart) > Timeout) || (Timeout == 0U))
 8002718:	f7fe fe54 	bl	80013c4 <HAL_GetTick>
 800271c:	4602      	mov	r2, r0
 800271e:	687b      	ldr	r3, [r7, #4]
 8002720:	1ad3      	subs	r3, r2, r3
 8002722:	68ba      	ldr	r2, [r7, #8]
 8002724:	429a      	cmp	r2, r3
 8002726:	d302      	bcc.n	800272e <I2C_WaitOnBTFFlagUntilTimeout+0x3c>
 8002728:	68bb      	ldr	r3, [r7, #8]
 800272a:	2b00      	cmp	r3, #0
 800272c:	d116      	bne.n	800275c <I2C_WaitOnBTFFlagUntilTimeout+0x6a>
      {
        hi2c->PreviousState       = I2C_STATE_NONE;
 800272e:	68fb      	ldr	r3, [r7, #12]
 8002730:	2200      	movs	r2, #0
 8002732:	631a      	str	r2, [r3, #48]	; 0x30
        hi2c->State               = HAL_I2C_STATE_READY;
 8002734:	68fb      	ldr	r3, [r7, #12]
 8002736:	2220      	movs	r2, #32
 8002738:	f883 203d 	strb.w	r2, [r3, #61]	; 0x3d
        hi2c->Mode                = HAL_I2C_MODE_NONE;
 800273c:	68fb      	ldr	r3, [r7, #12]
 800273e:	2200      	movs	r2, #0
 8002740:	f883 203e 	strb.w	r2, [r3, #62]	; 0x3e
        hi2c->ErrorCode           |= HAL_I2C_ERROR_TIMEOUT;
 8002744:	68fb      	ldr	r3, [r7, #12]
 8002746:	6c1b      	ldr	r3, [r3, #64]	; 0x40
 8002748:	f043 0220 	orr.w	r2, r3, #32
 800274c:	68fb      	ldr	r3, [r7, #12]
 800274e:	641a      	str	r2, [r3, #64]	; 0x40

        /* Process Unlocked */
        __HAL_UNLOCK(hi2c);
 8002750:	68fb      	ldr	r3, [r7, #12]
 8002752:	2200      	movs	r2, #0
 8002754:	f883 203c 	strb.w	r2, [r3, #60]	; 0x3c

        return HAL_ERROR;
 8002758:	2301      	movs	r3, #1
 800275a:	e007      	b.n	800276c <I2C_WaitOnBTFFlagUntilTimeout+0x7a>
  while (__HAL_I2C_GET_FLAG(hi2c, I2C_FLAG_BTF) == RESET)
 800275c:	68fb      	ldr	r3, [r7, #12]
 800275e:	681b      	ldr	r3, [r3, #0]
 8002760:	695b      	ldr	r3, [r3, #20]
 8002762:	f003 0304 	and.w	r3, r3, #4
 8002766:	2b04      	cmp	r3, #4
 8002768:	d1ca      	bne.n	8002700 <I2C_WaitOnBTFFlagUntilTimeout+0xe>
      }
    }
  }
  return HAL_OK;
 800276a:	2300      	movs	r3, #0
}
 800276c:	4618      	mov	r0, r3
 800276e:	3710      	adds	r7, #16
 8002770:	46bd      	mov	sp, r7
 8002772:	bd80      	pop	{r7, pc}

08002774 <I2C_IsAcknowledgeFailed>:
  * @param  hi2c Pointer to a I2C_HandleTypeDef structure that contains
  *                the configuration information for the specified I2C.
  * @retval HAL status
  */
static HAL_StatusTypeDef I2C_IsAcknowledgeFailed(I2C_HandleTypeDef *hi2c)
{
 8002774:	b480      	push	{r7}
 8002776:	b083      	sub	sp, #12
 8002778:	af00      	add	r7, sp, #0
 800277a:	6078      	str	r0, [r7, #4]
  if (__HAL_I2C_GET_FLAG(hi2c, I2C_FLAG_AF) == SET)
 800277c:	687b      	ldr	r3, [r7, #4]
 800277e:	681b      	ldr	r3, [r3, #0]
 8002780:	695b      	ldr	r3, [r3, #20]
 8002782:	f403 6380 	and.w	r3, r3, #1024	; 0x400
 8002786:	f5b3 6f80 	cmp.w	r3, #1024	; 0x400
 800278a:	d11b      	bne.n	80027c4 <I2C_IsAcknowledgeFailed+0x50>
  {
    /* Clear NACKF Flag */
    __HAL_I2C_CLEAR_FLAG(hi2c, I2C_FLAG_AF);
 800278c:	687b      	ldr	r3, [r7, #4]
 800278e:	681b      	ldr	r3, [r3, #0]
 8002790:	f46f 6280 	mvn.w	r2, #1024	; 0x400
 8002794:	615a      	str	r2, [r3, #20]

    hi2c->PreviousState       = I2C_STATE_NONE;
 8002796:	687b      	ldr	r3, [r7, #4]
 8002798:	2200      	movs	r2, #0
 800279a:	631a      	str	r2, [r3, #48]	; 0x30
    hi2c->State               = HAL_I2C_STATE_READY;
 800279c:	687b      	ldr	r3, [r7, #4]
 800279e:	2220      	movs	r2, #32
 80027a0:	f883 203d 	strb.w	r2, [r3, #61]	; 0x3d
    hi2c->Mode                = HAL_I2C_MODE_NONE;
 80027a4:	687b      	ldr	r3, [r7, #4]
 80027a6:	2200      	movs	r2, #0
 80027a8:	f883 203e 	strb.w	r2, [r3, #62]	; 0x3e
    hi2c->ErrorCode           |= HAL_I2C_ERROR_AF;
 80027ac:	687b      	ldr	r3, [r7, #4]
 80027ae:	6c1b      	ldr	r3, [r3, #64]	; 0x40
 80027b0:	f043 0204 	orr.w	r2, r3, #4
 80027b4:	687b      	ldr	r3, [r7, #4]
 80027b6:	641a      	str	r2, [r3, #64]	; 0x40

    /* Process Unlocked */
    __HAL_UNLOCK(hi2c);
 80027b8:	687b      	ldr	r3, [r7, #4]
 80027ba:	2200      	movs	r2, #0
 80027bc:	f883 203c 	strb.w	r2, [r3, #60]	; 0x3c

    return HAL_ERROR;
 80027c0:	2301      	movs	r3, #1
 80027c2:	e000      	b.n	80027c6 <I2C_IsAcknowledgeFailed+0x52>
  }
  return HAL_OK;
 80027c4:	2300      	movs	r3, #0
}
 80027c6:	4618      	mov	r0, r3
 80027c8:	370c      	adds	r7, #12
 80027ca:	46bd      	mov	sp, r7
 80027cc:	bc80      	pop	{r7}
 80027ce:	4770      	bx	lr

080027d0 <HAL_RCC_OscConfig>:
  *         supported by this macro. User should request a transition to HSE Off
  *         first and then HSE On or HSE Bypass.
  * @retval HAL status
  */
HAL_StatusTypeDef HAL_RCC_OscConfig(RCC_OscInitTypeDef  *RCC_OscInitStruct)
{
 80027d0:	b580      	push	{r7, lr}
 80027d2:	b086      	sub	sp, #24
 80027d4:	af00      	add	r7, sp, #0
 80027d6:	6078      	str	r0, [r7, #4]
  uint32_t tickstart;
  uint32_t pll_config;

  /* Check Null pointer */
  if (RCC_OscInitStruct == NULL)
 80027d8:	687b      	ldr	r3, [r7, #4]
 80027da:	2b00      	cmp	r3, #0
 80027dc:	d101      	bne.n	80027e2 <HAL_RCC_OscConfig+0x12>
  {
    return HAL_ERROR;
 80027de:	2301      	movs	r3, #1
 80027e0:	e272      	b.n	8002cc8 <HAL_RCC_OscConfig+0x4f8>

  /* Check the parameters */
  assert_param(IS_RCC_OSCILLATORTYPE(RCC_OscInitStruct->OscillatorType));

  /*------------------------------- HSE Configuration ------------------------*/
  if (((RCC_OscInitStruct->OscillatorType) & RCC_OSCILLATORTYPE_HSE) == RCC_OSCILLATORTYPE_HSE)
 80027e2:	687b      	ldr	r3, [r7, #4]
 80027e4:	681b      	ldr	r3, [r3, #0]
 80027e6:	f003 0301 	and.w	r3, r3, #1
 80027ea:	2b00      	cmp	r3, #0
 80027ec:	f000 8087 	beq.w	80028fe <HAL_RCC_OscConfig+0x12e>
  {
    /* Check the parameters */
    assert_param(IS_RCC_HSE(RCC_OscInitStruct->HSEState));

    /* When the HSE is used as system clock or clock source for PLL in these cases it is not allowed to be disabled */
    if ((__HAL_RCC_GET_SYSCLK_SOURCE() == RCC_SYSCLKSOURCE_STATUS_HSE)
 80027f0:	4b92      	ldr	r3, [pc, #584]	; (8002a3c <HAL_RCC_OscConfig+0x26c>)
 80027f2:	685b      	ldr	r3, [r3, #4]
 80027f4:	f003 030c 	and.w	r3, r3, #12
 80027f8:	2b04      	cmp	r3, #4
 80027fa:	d00c      	beq.n	8002816 <HAL_RCC_OscConfig+0x46>
        || ((__HAL_RCC_GET_SYSCLK_SOURCE() == RCC_SYSCLKSOURCE_STATUS_PLLCLK) && (__HAL_RCC_GET_PLL_OSCSOURCE() == RCC_PLLSOURCE_HSE)))
 80027fc:	4b8f      	ldr	r3, [pc, #572]	; (8002a3c <HAL_RCC_OscConfig+0x26c>)
 80027fe:	685b      	ldr	r3, [r3, #4]
 8002800:	f003 030c 	and.w	r3, r3, #12
 8002804:	2b08      	cmp	r3, #8
 8002806:	d112      	bne.n	800282e <HAL_RCC_OscConfig+0x5e>
 8002808:	4b8c      	ldr	r3, [pc, #560]	; (8002a3c <HAL_RCC_OscConfig+0x26c>)
 800280a:	685b      	ldr	r3, [r3, #4]
 800280c:	f403 3380 	and.w	r3, r3, #65536	; 0x10000
 8002810:	f5b3 3f80 	cmp.w	r3, #65536	; 0x10000
 8002814:	d10b      	bne.n	800282e <HAL_RCC_OscConfig+0x5e>
    {
      if ((__HAL_RCC_GET_FLAG(RCC_FLAG_HSERDY) != RESET) && (RCC_OscInitStruct->HSEState == RCC_HSE_OFF))
 8002816:	4b89      	ldr	r3, [pc, #548]	; (8002a3c <HAL_RCC_OscConfig+0x26c>)
 8002818:	681b      	ldr	r3, [r3, #0]
 800281a:	f403 3300 	and.w	r3, r3, #131072	; 0x20000
 800281e:	2b00      	cmp	r3, #0
 8002820:	d06c      	beq.n	80028fc <HAL_RCC_OscConfig+0x12c>
 8002822:	687b      	ldr	r3, [r7, #4]
 8002824:	685b      	ldr	r3, [r3, #4]
 8002826:	2b00      	cmp	r3, #0
 8002828:	d168      	bne.n	80028fc <HAL_RCC_OscConfig+0x12c>
      {
        return HAL_ERROR;
 800282a:	2301      	movs	r3, #1
 800282c:	e24c      	b.n	8002cc8 <HAL_RCC_OscConfig+0x4f8>
      }
    }
    else
    {
      /* Set the new HSE configuration ---------------------------------------*/
      __HAL_RCC_HSE_CONFIG(RCC_OscInitStruct->HSEState);
 800282e:	687b      	ldr	r3, [r7, #4]
 8002830:	685b      	ldr	r3, [r3, #4]
 8002832:	f5b3 3f80 	cmp.w	r3, #65536	; 0x10000
 8002836:	d106      	bne.n	8002846 <HAL_RCC_OscConfig+0x76>
 8002838:	4b80      	ldr	r3, [pc, #512]	; (8002a3c <HAL_RCC_OscConfig+0x26c>)
 800283a:	681b      	ldr	r3, [r3, #0]
 800283c:	4a7f      	ldr	r2, [pc, #508]	; (8002a3c <HAL_RCC_OscConfig+0x26c>)
 800283e:	f443 3380 	orr.w	r3, r3, #65536	; 0x10000
 8002842:	6013      	str	r3, [r2, #0]
 8002844:	e02e      	b.n	80028a4 <HAL_RCC_OscConfig+0xd4>
 8002846:	687b      	ldr	r3, [r7, #4]
 8002848:	685b      	ldr	r3, [r3, #4]
 800284a:	2b00      	cmp	r3, #0
 800284c:	d10c      	bne.n	8002868 <HAL_RCC_OscConfig+0x98>
 800284e:	4b7b      	ldr	r3, [pc, #492]	; (8002a3c <HAL_RCC_OscConfig+0x26c>)
 8002850:	681b      	ldr	r3, [r3, #0]
 8002852:	4a7a      	ldr	r2, [pc, #488]	; (8002a3c <HAL_RCC_OscConfig+0x26c>)
 8002854:	f423 3380 	bic.w	r3, r3, #65536	; 0x10000
 8002858:	6013      	str	r3, [r2, #0]
 800285a:	4b78      	ldr	r3, [pc, #480]	; (8002a3c <HAL_RCC_OscConfig+0x26c>)
 800285c:	681b      	ldr	r3, [r3, #0]
 800285e:	4a77      	ldr	r2, [pc, #476]	; (8002a3c <HAL_RCC_OscConfig+0x26c>)
 8002860:	f423 2380 	bic.w	r3, r3, #262144	; 0x40000
 8002864:	6013      	str	r3, [r2, #0]
 8002866:	e01d      	b.n	80028a4 <HAL_RCC_OscConfig+0xd4>
 8002868:	687b      	ldr	r3, [r7, #4]
 800286a:	685b      	ldr	r3, [r3, #4]
 800286c:	f5b3 2fa0 	cmp.w	r3, #327680	; 0x50000
 8002870:	d10c      	bne.n	800288c <HAL_RCC_OscConfig+0xbc>
 8002872:	4b72      	ldr	r3, [pc, #456]	; (8002a3c <HAL_RCC_OscConfig+0x26c>)
 8002874:	681b      	ldr	r3, [r3, #0]
 8002876:	4a71      	ldr	r2, [pc, #452]	; (8002a3c <HAL_RCC_OscConfig+0x26c>)
 8002878:	f443 2380 	orr.w	r3, r3, #262144	; 0x40000
 800287c:	6013      	str	r3, [r2, #0]
 800287e:	4b6f      	ldr	r3, [pc, #444]	; (8002a3c <HAL_RCC_OscConfig+0x26c>)
 8002880:	681b      	ldr	r3, [r3, #0]
 8002882:	4a6e      	ldr	r2, [pc, #440]	; (8002a3c <HAL_RCC_OscConfig+0x26c>)
 8002884:	f443 3380 	orr.w	r3, r3, #65536	; 0x10000
 8002888:	6013      	str	r3, [r2, #0]
 800288a:	e00b      	b.n	80028a4 <HAL_RCC_OscConfig+0xd4>
 800288c:	4b6b      	ldr	r3, [pc, #428]	; (8002a3c <HAL_RCC_OscConfig+0x26c>)
 800288e:	681b      	ldr	r3, [r3, #0]
 8002890:	4a6a      	ldr	r2, [pc, #424]	; (8002a3c <HAL_RCC_OscConfig+0x26c>)
 8002892:	f423 3380 	bic.w	r3, r3, #65536	; 0x10000
 8002896:	6013      	str	r3, [r2, #0]
 8002898:	4b68      	ldr	r3, [pc, #416]	; (8002a3c <HAL_RCC_OscConfig+0x26c>)
 800289a:	681b      	ldr	r3, [r3, #0]
 800289c:	4a67      	ldr	r2, [pc, #412]	; (8002a3c <HAL_RCC_OscConfig+0x26c>)
 800289e:	f423 2380 	bic.w	r3, r3, #262144	; 0x40000
 80028a2:	6013      	str	r3, [r2, #0]


      /* Check the HSE State */
      if (RCC_OscInitStruct->HSEState != RCC_HSE_OFF)
 80028a4:	687b      	ldr	r3, [r7, #4]
 80028a6:	685b      	ldr	r3, [r3, #4]
 80028a8:	2b00      	cmp	r3, #0
 80028aa:	d013      	beq.n	80028d4 <HAL_RCC_OscConfig+0x104>
      {
        /* Get Start Tick */
        tickstart = HAL_GetTick();
 80028ac:	f7fe fd8a 	bl	80013c4 <HAL_GetTick>
 80028b0:	6138      	str	r0, [r7, #16]

        /* Wait till HSE is ready */
        while (__HAL_RCC_GET_FLAG(RCC_FLAG_HSERDY) == RESET)
 80028b2:	e008      	b.n	80028c6 <HAL_RCC_OscConfig+0xf6>
        {
          if ((HAL_GetTick() - tickstart) > HSE_TIMEOUT_VALUE)
 80028b4:	f7fe fd86 	bl	80013c4 <HAL_GetTick>
 80028b8:	4602      	mov	r2, r0
 80028ba:	693b      	ldr	r3, [r7, #16]
 80028bc:	1ad3      	subs	r3, r2, r3
 80028be:	2b64      	cmp	r3, #100	; 0x64
 80028c0:	d901      	bls.n	80028c6 <HAL_RCC_OscConfig+0xf6>
          {
            return HAL_TIMEOUT;
 80028c2:	2303      	movs	r3, #3
 80028c4:	e200      	b.n	8002cc8 <HAL_RCC_OscConfig+0x4f8>
        while (__HAL_RCC_GET_FLAG(RCC_FLAG_HSERDY) == RESET)
 80028c6:	4b5d      	ldr	r3, [pc, #372]	; (8002a3c <HAL_RCC_OscConfig+0x26c>)
 80028c8:	681b      	ldr	r3, [r3, #0]
 80028ca:	f403 3300 	and.w	r3, r3, #131072	; 0x20000
 80028ce:	2b00      	cmp	r3, #0
 80028d0:	d0f0      	beq.n	80028b4 <HAL_RCC_OscConfig+0xe4>
 80028d2:	e014      	b.n	80028fe <HAL_RCC_OscConfig+0x12e>
        }
      }
      else
      {
        /* Get Start Tick */
        tickstart = HAL_GetTick();
 80028d4:	f7fe fd76 	bl	80013c4 <HAL_GetTick>
 80028d8:	6138      	str	r0, [r7, #16]

        /* Wait till HSE is disabled */
        while (__HAL_RCC_GET_FLAG(RCC_FLAG_HSERDY) != RESET)
 80028da:	e008      	b.n	80028ee <HAL_RCC_OscConfig+0x11e>
        {
          if ((HAL_GetTick() - tickstart) > HSE_TIMEOUT_VALUE)
 80028dc:	f7fe fd72 	bl	80013c4 <HAL_GetTick>
 80028e0:	4602      	mov	r2, r0
 80028e2:	693b      	ldr	r3, [r7, #16]
 80028e4:	1ad3      	subs	r3, r2, r3
 80028e6:	2b64      	cmp	r3, #100	; 0x64
 80028e8:	d901      	bls.n	80028ee <HAL_RCC_OscConfig+0x11e>
          {
            return HAL_TIMEOUT;
 80028ea:	2303      	movs	r3, #3
 80028ec:	e1ec      	b.n	8002cc8 <HAL_RCC_OscConfig+0x4f8>
        while (__HAL_RCC_GET_FLAG(RCC_FLAG_HSERDY) != RESET)
 80028ee:	4b53      	ldr	r3, [pc, #332]	; (8002a3c <HAL_RCC_OscConfig+0x26c>)
 80028f0:	681b      	ldr	r3, [r3, #0]
 80028f2:	f403 3300 	and.w	r3, r3, #131072	; 0x20000
 80028f6:	2b00      	cmp	r3, #0
 80028f8:	d1f0      	bne.n	80028dc <HAL_RCC_OscConfig+0x10c>
 80028fa:	e000      	b.n	80028fe <HAL_RCC_OscConfig+0x12e>
      if ((__HAL_RCC_GET_FLAG(RCC_FLAG_HSERDY) != RESET) && (RCC_OscInitStruct->HSEState == RCC_HSE_OFF))
 80028fc:	bf00      	nop
        }
      }
    }
  }
  /*----------------------------- HSI Configuration --------------------------*/
  if (((RCC_OscInitStruct->OscillatorType) & RCC_OSCILLATORTYPE_HSI) == RCC_OSCILLATORTYPE_HSI)
 80028fe:	687b      	ldr	r3, [r7, #4]
 8002900:	681b      	ldr	r3, [r3, #0]
 8002902:	f003 0302 	and.w	r3, r3, #2
 8002906:	2b00      	cmp	r3, #0
 8002908:	d063      	beq.n	80029d2 <HAL_RCC_OscConfig+0x202>
    /* Check the parameters */
    assert_param(IS_RCC_HSI(RCC_OscInitStruct->HSIState));
    assert_param(IS_RCC_CALIBRATION_VALUE(RCC_OscInitStruct->HSICalibrationValue));

    /* Check if HSI is used as system clock or as PLL source when PLL is selected as system clock */
    if ((__HAL_RCC_GET_SYSCLK_SOURCE() == RCC_SYSCLKSOURCE_STATUS_HSI)
 800290a:	4b4c      	ldr	r3, [pc, #304]	; (8002a3c <HAL_RCC_OscConfig+0x26c>)
 800290c:	685b      	ldr	r3, [r3, #4]
 800290e:	f003 030c 	and.w	r3, r3, #12
 8002912:	2b00      	cmp	r3, #0
 8002914:	d00b      	beq.n	800292e <HAL_RCC_OscConfig+0x15e>
        || ((__HAL_RCC_GET_SYSCLK_SOURCE() == RCC_SYSCLKSOURCE_STATUS_PLLCLK) && (__HAL_RCC_GET_PLL_OSCSOURCE() == RCC_PLLSOURCE_HSI_DIV2)))
 8002916:	4b49      	ldr	r3, [pc, #292]	; (8002a3c <HAL_RCC_OscConfig+0x26c>)
 8002918:	685b      	ldr	r3, [r3, #4]
 800291a:	f003 030c 	and.w	r3, r3, #12
 800291e:	2b08      	cmp	r3, #8
 8002920:	d11c      	bne.n	800295c <HAL_RCC_OscConfig+0x18c>
 8002922:	4b46      	ldr	r3, [pc, #280]	; (8002a3c <HAL_RCC_OscConfig+0x26c>)
 8002924:	685b      	ldr	r3, [r3, #4]
 8002926:	f403 3380 	and.w	r3, r3, #65536	; 0x10000
 800292a:	2b00      	cmp	r3, #0
 800292c:	d116      	bne.n	800295c <HAL_RCC_OscConfig+0x18c>
    {
      /* When HSI is used as system clock it will not disabled */
      if ((__HAL_RCC_GET_FLAG(RCC_FLAG_HSIRDY) != RESET) && (RCC_OscInitStruct->HSIState != RCC_HSI_ON))
 800292e:	4b43      	ldr	r3, [pc, #268]	; (8002a3c <HAL_RCC_OscConfig+0x26c>)
 8002930:	681b      	ldr	r3, [r3, #0]
 8002932:	f003 0302 	and.w	r3, r3, #2
 8002936:	2b00      	cmp	r3, #0
 8002938:	d005      	beq.n	8002946 <HAL_RCC_OscConfig+0x176>
 800293a:	687b      	ldr	r3, [r7, #4]
 800293c:	691b      	ldr	r3, [r3, #16]
 800293e:	2b01      	cmp	r3, #1
 8002940:	d001      	beq.n	8002946 <HAL_RCC_OscConfig+0x176>
      {
        return HAL_ERROR;
 8002942:	2301      	movs	r3, #1
 8002944:	e1c0      	b.n	8002cc8 <HAL_RCC_OscConfig+0x4f8>
      }
      /* Otherwise, just the calibration is allowed */
      else
      {
        /* Adjusts the Internal High Speed oscillator (HSI) calibration value.*/
        __HAL_RCC_HSI_CALIBRATIONVALUE_ADJUST(RCC_OscInitStruct->HSICalibrationValue);
 8002946:	4b3d      	ldr	r3, [pc, #244]	; (8002a3c <HAL_RCC_OscConfig+0x26c>)
 8002948:	681b      	ldr	r3, [r3, #0]
 800294a:	f023 02f8 	bic.w	r2, r3, #248	; 0xf8
 800294e:	687b      	ldr	r3, [r7, #4]
 8002950:	695b      	ldr	r3, [r3, #20]
 8002952:	00db      	lsls	r3, r3, #3
 8002954:	4939      	ldr	r1, [pc, #228]	; (8002a3c <HAL_RCC_OscConfig+0x26c>)
 8002956:	4313      	orrs	r3, r2
 8002958:	600b      	str	r3, [r1, #0]
      if ((__HAL_RCC_GET_FLAG(RCC_FLAG_HSIRDY) != RESET) && (RCC_OscInitStruct->HSIState != RCC_HSI_ON))
 800295a:	e03a      	b.n	80029d2 <HAL_RCC_OscConfig+0x202>
      }
    }
    else
    {
      /* Check the HSI State */
      if (RCC_OscInitStruct->HSIState != RCC_HSI_OFF)
 800295c:	687b      	ldr	r3, [r7, #4]
 800295e:	691b      	ldr	r3, [r3, #16]
 8002960:	2b00      	cmp	r3, #0
 8002962:	d020      	beq.n	80029a6 <HAL_RCC_OscConfig+0x1d6>
      {
        /* Enable the Internal High Speed oscillator (HSI). */
        __HAL_RCC_HSI_ENABLE();
 8002964:	4b36      	ldr	r3, [pc, #216]	; (8002a40 <HAL_RCC_OscConfig+0x270>)
 8002966:	2201      	movs	r2, #1
 8002968:	601a      	str	r2, [r3, #0]

        /* Get Start Tick */
        tickstart = HAL_GetTick();
 800296a:	f7fe fd2b 	bl	80013c4 <HAL_GetTick>
 800296e:	6138      	str	r0, [r7, #16]

        /* Wait till HSI is ready */
        while (__HAL_RCC_GET_FLAG(RCC_FLAG_HSIRDY) == RESET)
 8002970:	e008      	b.n	8002984 <HAL_RCC_OscConfig+0x1b4>
        {
          if ((HAL_GetTick() - tickstart) > HSI_TIMEOUT_VALUE)
 8002972:	f7fe fd27 	bl	80013c4 <HAL_GetTick>
 8002976:	4602      	mov	r2, r0
 8002978:	693b      	ldr	r3, [r7, #16]
 800297a:	1ad3      	subs	r3, r2, r3
 800297c:	2b02      	cmp	r3, #2
 800297e:	d901      	bls.n	8002984 <HAL_RCC_OscConfig+0x1b4>
          {
            return HAL_TIMEOUT;
 8002980:	2303      	movs	r3, #3
 8002982:	e1a1      	b.n	8002cc8 <HAL_RCC_OscConfig+0x4f8>
        while (__HAL_RCC_GET_FLAG(RCC_FLAG_HSIRDY) == RESET)
 8002984:	4b2d      	ldr	r3, [pc, #180]	; (8002a3c <HAL_RCC_OscConfig+0x26c>)
 8002986:	681b      	ldr	r3, [r3, #0]
 8002988:	f003 0302 	and.w	r3, r3, #2
 800298c:	2b00      	cmp	r3, #0
 800298e:	d0f0      	beq.n	8002972 <HAL_RCC_OscConfig+0x1a2>
          }
        }

        /* Adjusts the Internal High Speed oscillator (HSI) calibration value.*/
        __HAL_RCC_HSI_CALIBRATIONVALUE_ADJUST(RCC_OscInitStruct->HSICalibrationValue);
 8002990:	4b2a      	ldr	r3, [pc, #168]	; (8002a3c <HAL_RCC_OscConfig+0x26c>)
 8002992:	681b      	ldr	r3, [r3, #0]
 8002994:	f023 02f8 	bic.w	r2, r3, #248	; 0xf8
 8002998:	687b      	ldr	r3, [r7, #4]
 800299a:	695b      	ldr	r3, [r3, #20]
 800299c:	00db      	lsls	r3, r3, #3
 800299e:	4927      	ldr	r1, [pc, #156]	; (8002a3c <HAL_RCC_OscConfig+0x26c>)
 80029a0:	4313      	orrs	r3, r2
 80029a2:	600b      	str	r3, [r1, #0]
 80029a4:	e015      	b.n	80029d2 <HAL_RCC_OscConfig+0x202>
      }
      else
      {
        /* Disable the Internal High Speed oscillator (HSI). */
        __HAL_RCC_HSI_DISABLE();
 80029a6:	4b26      	ldr	r3, [pc, #152]	; (8002a40 <HAL_RCC_OscConfig+0x270>)
 80029a8:	2200      	movs	r2, #0
 80029aa:	601a      	str	r2, [r3, #0]

        /* Get Start Tick */
        tickstart = HAL_GetTick();
 80029ac:	f7fe fd0a 	bl	80013c4 <HAL_GetTick>
 80029b0:	6138      	str	r0, [r7, #16]

        /* Wait till HSI is disabled */
        while (__HAL_RCC_GET_FLAG(RCC_FLAG_HSIRDY) != RESET)
 80029b2:	e008      	b.n	80029c6 <HAL_RCC_OscConfig+0x1f6>
        {
          if ((HAL_GetTick() - tickstart) > HSI_TIMEOUT_VALUE)
 80029b4:	f7fe fd06 	bl	80013c4 <HAL_GetTick>
 80029b8:	4602      	mov	r2, r0
 80029ba:	693b      	ldr	r3, [r7, #16]
 80029bc:	1ad3      	subs	r3, r2, r3
 80029be:	2b02      	cmp	r3, #2
 80029c0:	d901      	bls.n	80029c6 <HAL_RCC_OscConfig+0x1f6>
          {
            return HAL_TIMEOUT;
 80029c2:	2303      	movs	r3, #3
 80029c4:	e180      	b.n	8002cc8 <HAL_RCC_OscConfig+0x4f8>
        while (__HAL_RCC_GET_FLAG(RCC_FLAG_HSIRDY) != RESET)
 80029c6:	4b1d      	ldr	r3, [pc, #116]	; (8002a3c <HAL_RCC_OscConfig+0x26c>)
 80029c8:	681b      	ldr	r3, [r3, #0]
 80029ca:	f003 0302 	and.w	r3, r3, #2
 80029ce:	2b00      	cmp	r3, #0
 80029d0:	d1f0      	bne.n	80029b4 <HAL_RCC_OscConfig+0x1e4>
        }
      }
    }
  }
  /*------------------------------ LSI Configuration -------------------------*/
  if (((RCC_OscInitStruct->OscillatorType) & RCC_OSCILLATORTYPE_LSI) == RCC_OSCILLATORTYPE_LSI)
 80029d2:	687b      	ldr	r3, [r7, #4]
 80029d4:	681b      	ldr	r3, [r3, #0]
 80029d6:	f003 0308 	and.w	r3, r3, #8
 80029da:	2b00      	cmp	r3, #0
 80029dc:	d03a      	beq.n	8002a54 <HAL_RCC_OscConfig+0x284>
  {
    /* Check the parameters */
    assert_param(IS_RCC_LSI(RCC_OscInitStruct->LSIState));

    /* Check the LSI State */
    if (RCC_OscInitStruct->LSIState != RCC_LSI_OFF)
 80029de:	687b      	ldr	r3, [r7, #4]
 80029e0:	699b      	ldr	r3, [r3, #24]
 80029e2:	2b00      	cmp	r3, #0
 80029e4:	d019      	beq.n	8002a1a <HAL_RCC_OscConfig+0x24a>
    {
      /* Enable the Internal Low Speed oscillator (LSI). */
      __HAL_RCC_LSI_ENABLE();
 80029e6:	4b17      	ldr	r3, [pc, #92]	; (8002a44 <HAL_RCC_OscConfig+0x274>)
 80029e8:	2201      	movs	r2, #1
 80029ea:	601a      	str	r2, [r3, #0]

      /* Get Start Tick */
      tickstart = HAL_GetTick();
 80029ec:	f7fe fcea 	bl	80013c4 <HAL_GetTick>
 80029f0:	6138      	str	r0, [r7, #16]

      /* Wait till LSI is ready */
      while (__HAL_RCC_GET_FLAG(RCC_FLAG_LSIRDY) == RESET)
 80029f2:	e008      	b.n	8002a06 <HAL_RCC_OscConfig+0x236>
      {
        if ((HAL_GetTick() - tickstart) > LSI_TIMEOUT_VALUE)
 80029f4:	f7fe fce6 	bl	80013c4 <HAL_GetTick>
 80029f8:	4602      	mov	r2, r0
 80029fa:	693b      	ldr	r3, [r7, #16]
 80029fc:	1ad3      	subs	r3, r2, r3
 80029fe:	2b02      	cmp	r3, #2
 8002a00:	d901      	bls.n	8002a06 <HAL_RCC_OscConfig+0x236>
        {
          return HAL_TIMEOUT;
 8002a02:	2303      	movs	r3, #3
 8002a04:	e160      	b.n	8002cc8 <HAL_RCC_OscConfig+0x4f8>
      while (__HAL_RCC_GET_FLAG(RCC_FLAG_LSIRDY) == RESET)
 8002a06:	4b0d      	ldr	r3, [pc, #52]	; (8002a3c <HAL_RCC_OscConfig+0x26c>)
 8002a08:	6a5b      	ldr	r3, [r3, #36]	; 0x24
 8002a0a:	f003 0302 	and.w	r3, r3, #2
 8002a0e:	2b00      	cmp	r3, #0
 8002a10:	d0f0      	beq.n	80029f4 <HAL_RCC_OscConfig+0x224>
        }
      }
      /*  To have a fully stabilized clock in the specified range, a software delay of 1ms
          should be added.*/
      RCC_Delay(1);
 8002a12:	2001      	movs	r0, #1
 8002a14:	f000 fac4 	bl	8002fa0 <RCC_Delay>
 8002a18:	e01c      	b.n	8002a54 <HAL_RCC_OscConfig+0x284>
    }
    else
    {
      /* Disable the Internal Low Speed oscillator (LSI). */
      __HAL_RCC_LSI_DISABLE();
 8002a1a:	4b0a      	ldr	r3, [pc, #40]	; (8002a44 <HAL_RCC_OscConfig+0x274>)
 8002a1c:	2200      	movs	r2, #0
 8002a1e:	601a      	str	r2, [r3, #0]

      /* Get Start Tick */
      tickstart = HAL_GetTick();
 8002a20:	f7fe fcd0 	bl	80013c4 <HAL_GetTick>
 8002a24:	6138      	str	r0, [r7, #16]

      /* Wait till LSI is disabled */
      while (__HAL_RCC_GET_FLAG(RCC_FLAG_LSIRDY) != RESET)
 8002a26:	e00f      	b.n	8002a48 <HAL_RCC_OscConfig+0x278>
      {
        if ((HAL_GetTick() - tickstart) > LSI_TIMEOUT_VALUE)
 8002a28:	f7fe fccc 	bl	80013c4 <HAL_GetTick>
 8002a2c:	4602      	mov	r2, r0
 8002a2e:	693b      	ldr	r3, [r7, #16]
 8002a30:	1ad3      	subs	r3, r2, r3
 8002a32:	2b02      	cmp	r3, #2
 8002a34:	d908      	bls.n	8002a48 <HAL_RCC_OscConfig+0x278>
        {
          return HAL_TIMEOUT;
 8002a36:	2303      	movs	r3, #3
 8002a38:	e146      	b.n	8002cc8 <HAL_RCC_OscConfig+0x4f8>
 8002a3a:	bf00      	nop
 8002a3c:	40021000 	.word	0x40021000
 8002a40:	42420000 	.word	0x42420000
 8002a44:	42420480 	.word	0x42420480
      while (__HAL_RCC_GET_FLAG(RCC_FLAG_LSIRDY) != RESET)
 8002a48:	4b92      	ldr	r3, [pc, #584]	; (8002c94 <HAL_RCC_OscConfig+0x4c4>)
 8002a4a:	6a5b      	ldr	r3, [r3, #36]	; 0x24
 8002a4c:	f003 0302 	and.w	r3, r3, #2
 8002a50:	2b00      	cmp	r3, #0
 8002a52:	d1e9      	bne.n	8002a28 <HAL_RCC_OscConfig+0x258>
        }
      }
    }
  }
  /*------------------------------ LSE Configuration -------------------------*/
  if (((RCC_OscInitStruct->OscillatorType) & RCC_OSCILLATORTYPE_LSE) == RCC_OSCILLATORTYPE_LSE)
 8002a54:	687b      	ldr	r3, [r7, #4]
 8002a56:	681b      	ldr	r3, [r3, #0]
 8002a58:	f003 0304 	and.w	r3, r3, #4
 8002a5c:	2b00      	cmp	r3, #0
 8002a5e:	f000 80a6 	beq.w	8002bae <HAL_RCC_OscConfig+0x3de>
  {
    FlagStatus       pwrclkchanged = RESET;
 8002a62:	2300      	movs	r3, #0
 8002a64:	75fb      	strb	r3, [r7, #23]
    /* Check the parameters */
    assert_param(IS_RCC_LSE(RCC_OscInitStruct->LSEState));

    /* Update LSE configuration in Backup Domain control register    */
    /* Requires to enable write access to Backup Domain of necessary */
    if (__HAL_RCC_PWR_IS_CLK_DISABLED())
 8002a66:	4b8b      	ldr	r3, [pc, #556]	; (8002c94 <HAL_RCC_OscConfig+0x4c4>)
 8002a68:	69db      	ldr	r3, [r3, #28]
 8002a6a:	f003 5380 	and.w	r3, r3, #268435456	; 0x10000000
 8002a6e:	2b00      	cmp	r3, #0
 8002a70:	d10d      	bne.n	8002a8e <HAL_RCC_OscConfig+0x2be>
    {
      __HAL_RCC_PWR_CLK_ENABLE();
 8002a72:	4b88      	ldr	r3, [pc, #544]	; (8002c94 <HAL_RCC_OscConfig+0x4c4>)
 8002a74:	69db      	ldr	r3, [r3, #28]
 8002a76:	4a87      	ldr	r2, [pc, #540]	; (8002c94 <HAL_RCC_OscConfig+0x4c4>)
 8002a78:	f043 5380 	orr.w	r3, r3, #268435456	; 0x10000000
 8002a7c:	61d3      	str	r3, [r2, #28]
 8002a7e:	4b85      	ldr	r3, [pc, #532]	; (8002c94 <HAL_RCC_OscConfig+0x4c4>)
 8002a80:	69db      	ldr	r3, [r3, #28]
 8002a82:	f003 5380 	and.w	r3, r3, #268435456	; 0x10000000
 8002a86:	60bb      	str	r3, [r7, #8]
 8002a88:	68bb      	ldr	r3, [r7, #8]
      pwrclkchanged = SET;
 8002a8a:	2301      	movs	r3, #1
 8002a8c:	75fb      	strb	r3, [r7, #23]
    }

    if (HAL_IS_BIT_CLR(PWR->CR, PWR_CR_DBP))
 8002a8e:	4b82      	ldr	r3, [pc, #520]	; (8002c98 <HAL_RCC_OscConfig+0x4c8>)
 8002a90:	681b      	ldr	r3, [r3, #0]
 8002a92:	f403 7380 	and.w	r3, r3, #256	; 0x100
 8002a96:	2b00      	cmp	r3, #0
 8002a98:	d118      	bne.n	8002acc <HAL_RCC_OscConfig+0x2fc>
    {
      /* Enable write access to Backup domain */
      SET_BIT(PWR->CR, PWR_CR_DBP);
 8002a9a:	4b7f      	ldr	r3, [pc, #508]	; (8002c98 <HAL_RCC_OscConfig+0x4c8>)
 8002a9c:	681b      	ldr	r3, [r3, #0]
 8002a9e:	4a7e      	ldr	r2, [pc, #504]	; (8002c98 <HAL_RCC_OscConfig+0x4c8>)
 8002aa0:	f443 7380 	orr.w	r3, r3, #256	; 0x100
 8002aa4:	6013      	str	r3, [r2, #0]

      /* Wait for Backup domain Write protection disable */
      tickstart = HAL_GetTick();
 8002aa6:	f7fe fc8d 	bl	80013c4 <HAL_GetTick>
 8002aaa:	6138      	str	r0, [r7, #16]

      while (HAL_IS_BIT_CLR(PWR->CR, PWR_CR_DBP))
 8002aac:	e008      	b.n	8002ac0 <HAL_RCC_OscConfig+0x2f0>
      {
        if ((HAL_GetTick() - tickstart) > RCC_DBP_TIMEOUT_VALUE)
 8002aae:	f7fe fc89 	bl	80013c4 <HAL_GetTick>
 8002ab2:	4602      	mov	r2, r0
 8002ab4:	693b      	ldr	r3, [r7, #16]
 8002ab6:	1ad3      	subs	r3, r2, r3
 8002ab8:	2b64      	cmp	r3, #100	; 0x64
 8002aba:	d901      	bls.n	8002ac0 <HAL_RCC_OscConfig+0x2f0>
        {
          return HAL_TIMEOUT;
 8002abc:	2303      	movs	r3, #3
 8002abe:	e103      	b.n	8002cc8 <HAL_RCC_OscConfig+0x4f8>
      while (HAL_IS_BIT_CLR(PWR->CR, PWR_CR_DBP))
 8002ac0:	4b75      	ldr	r3, [pc, #468]	; (8002c98 <HAL_RCC_OscConfig+0x4c8>)
 8002ac2:	681b      	ldr	r3, [r3, #0]
 8002ac4:	f403 7380 	and.w	r3, r3, #256	; 0x100
 8002ac8:	2b00      	cmp	r3, #0
 8002aca:	d0f0      	beq.n	8002aae <HAL_RCC_OscConfig+0x2de>
        }
      }
    }

    /* Set the new LSE configuration -----------------------------------------*/
    __HAL_RCC_LSE_CONFIG(RCC_OscInitStruct->LSEState);
 8002acc:	687b      	ldr	r3, [r7, #4]
 8002ace:	68db      	ldr	r3, [r3, #12]
 8002ad0:	2b01      	cmp	r3, #1
 8002ad2:	d106      	bne.n	8002ae2 <HAL_RCC_OscConfig+0x312>
 8002ad4:	4b6f      	ldr	r3, [pc, #444]	; (8002c94 <HAL_RCC_OscConfig+0x4c4>)
 8002ad6:	6a1b      	ldr	r3, [r3, #32]
 8002ad8:	4a6e      	ldr	r2, [pc, #440]	; (8002c94 <HAL_RCC_OscConfig+0x4c4>)
 8002ada:	f043 0301 	orr.w	r3, r3, #1
 8002ade:	6213      	str	r3, [r2, #32]
 8002ae0:	e02d      	b.n	8002b3e <HAL_RCC_OscConfig+0x36e>
 8002ae2:	687b      	ldr	r3, [r7, #4]
 8002ae4:	68db      	ldr	r3, [r3, #12]
 8002ae6:	2b00      	cmp	r3, #0
 8002ae8:	d10c      	bne.n	8002b04 <HAL_RCC_OscConfig+0x334>
 8002aea:	4b6a      	ldr	r3, [pc, #424]	; (8002c94 <HAL_RCC_OscConfig+0x4c4>)
 8002aec:	6a1b      	ldr	r3, [r3, #32]
 8002aee:	4a69      	ldr	r2, [pc, #420]	; (8002c94 <HAL_RCC_OscConfig+0x4c4>)
 8002af0:	f023 0301 	bic.w	r3, r3, #1
 8002af4:	6213      	str	r3, [r2, #32]
 8002af6:	4b67      	ldr	r3, [pc, #412]	; (8002c94 <HAL_RCC_OscConfig+0x4c4>)
 8002af8:	6a1b      	ldr	r3, [r3, #32]
 8002afa:	4a66      	ldr	r2, [pc, #408]	; (8002c94 <HAL_RCC_OscConfig+0x4c4>)
 8002afc:	f023 0304 	bic.w	r3, r3, #4
 8002b00:	6213      	str	r3, [r2, #32]
 8002b02:	e01c      	b.n	8002b3e <HAL_RCC_OscConfig+0x36e>
 8002b04:	687b      	ldr	r3, [r7, #4]
 8002b06:	68db      	ldr	r3, [r3, #12]
 8002b08:	2b05      	cmp	r3, #5
 8002b0a:	d10c      	bne.n	8002b26 <HAL_RCC_OscConfig+0x356>
 8002b0c:	4b61      	ldr	r3, [pc, #388]	; (8002c94 <HAL_RCC_OscConfig+0x4c4>)
 8002b0e:	6a1b      	ldr	r3, [r3, #32]
 8002b10:	4a60      	ldr	r2, [pc, #384]	; (8002c94 <HAL_RCC_OscConfig+0x4c4>)
 8002b12:	f043 0304 	orr.w	r3, r3, #4
 8002b16:	6213      	str	r3, [r2, #32]
 8002b18:	4b5e      	ldr	r3, [pc, #376]	; (8002c94 <HAL_RCC_OscConfig+0x4c4>)
 8002b1a:	6a1b      	ldr	r3, [r3, #32]
 8002b1c:	4a5d      	ldr	r2, [pc, #372]	; (8002c94 <HAL_RCC_OscConfig+0x4c4>)
 8002b1e:	f043 0301 	orr.w	r3, r3, #1
 8002b22:	6213      	str	r3, [r2, #32]
 8002b24:	e00b      	b.n	8002b3e <HAL_RCC_OscConfig+0x36e>
 8002b26:	4b5b      	ldr	r3, [pc, #364]	; (8002c94 <HAL_RCC_OscConfig+0x4c4>)
 8002b28:	6a1b      	ldr	r3, [r3, #32]
 8002b2a:	4a5a      	ldr	r2, [pc, #360]	; (8002c94 <HAL_RCC_OscConfig+0x4c4>)
 8002b2c:	f023 0301 	bic.w	r3, r3, #1
 8002b30:	6213      	str	r3, [r2, #32]
 8002b32:	4b58      	ldr	r3, [pc, #352]	; (8002c94 <HAL_RCC_OscConfig+0x4c4>)
 8002b34:	6a1b      	ldr	r3, [r3, #32]
 8002b36:	4a57      	ldr	r2, [pc, #348]	; (8002c94 <HAL_RCC_OscConfig+0x4c4>)
 8002b38:	f023 0304 	bic.w	r3, r3, #4
 8002b3c:	6213      	str	r3, [r2, #32]
    /* Check the LSE State */
    if (RCC_OscInitStruct->LSEState != RCC_LSE_OFF)
 8002b3e:	687b      	ldr	r3, [r7, #4]
 8002b40:	68db      	ldr	r3, [r3, #12]
 8002b42:	2b00      	cmp	r3, #0
 8002b44:	d015      	beq.n	8002b72 <HAL_RCC_OscConfig+0x3a2>
    {
      /* Get Start Tick */
      tickstart = HAL_GetTick();
 8002b46:	f7fe fc3d 	bl	80013c4 <HAL_GetTick>
 8002b4a:	6138      	str	r0, [r7, #16]

      /* Wait till LSE is ready */
      while (__HAL_RCC_GET_FLAG(RCC_FLAG_LSERDY) == RESET)
 8002b4c:	e00a      	b.n	8002b64 <HAL_RCC_OscConfig+0x394>
      {
        if ((HAL_GetTick() - tickstart) > RCC_LSE_TIMEOUT_VALUE)
 8002b4e:	f7fe fc39 	bl	80013c4 <HAL_GetTick>
 8002b52:	4602      	mov	r2, r0
 8002b54:	693b      	ldr	r3, [r7, #16]
 8002b56:	1ad3      	subs	r3, r2, r3
 8002b58:	f241 3288 	movw	r2, #5000	; 0x1388
 8002b5c:	4293      	cmp	r3, r2
 8002b5e:	d901      	bls.n	8002b64 <HAL_RCC_OscConfig+0x394>
        {
          return HAL_TIMEOUT;
 8002b60:	2303      	movs	r3, #3
 8002b62:	e0b1      	b.n	8002cc8 <HAL_RCC_OscConfig+0x4f8>
      while (__HAL_RCC_GET_FLAG(RCC_FLAG_LSERDY) == RESET)
 8002b64:	4b4b      	ldr	r3, [pc, #300]	; (8002c94 <HAL_RCC_OscConfig+0x4c4>)
 8002b66:	6a1b      	ldr	r3, [r3, #32]
 8002b68:	f003 0302 	and.w	r3, r3, #2
 8002b6c:	2b00      	cmp	r3, #0
 8002b6e:	d0ee      	beq.n	8002b4e <HAL_RCC_OscConfig+0x37e>
 8002b70:	e014      	b.n	8002b9c <HAL_RCC_OscConfig+0x3cc>
      }
    }
    else
    {
      /* Get Start Tick */
      tickstart = HAL_GetTick();
 8002b72:	f7fe fc27 	bl	80013c4 <HAL_GetTick>
 8002b76:	6138      	str	r0, [r7, #16]

      /* Wait till LSE is disabled */
      while (__HAL_RCC_GET_FLAG(RCC_FLAG_LSERDY) != RESET)
 8002b78:	e00a      	b.n	8002b90 <HAL_RCC_OscConfig+0x3c0>
      {
        if ((HAL_GetTick() - tickstart) > RCC_LSE_TIMEOUT_VALUE)
 8002b7a:	f7fe fc23 	bl	80013c4 <HAL_GetTick>
 8002b7e:	4602      	mov	r2, r0
 8002b80:	693b      	ldr	r3, [r7, #16]
 8002b82:	1ad3      	subs	r3, r2, r3
 8002b84:	f241 3288 	movw	r2, #5000	; 0x1388
 8002b88:	4293      	cmp	r3, r2
 8002b8a:	d901      	bls.n	8002b90 <HAL_RCC_OscConfig+0x3c0>
        {
          return HAL_TIMEOUT;
 8002b8c:	2303      	movs	r3, #3
 8002b8e:	e09b      	b.n	8002cc8 <HAL_RCC_OscConfig+0x4f8>
      while (__HAL_RCC_GET_FLAG(RCC_FLAG_LSERDY) != RESET)
 8002b90:	4b40      	ldr	r3, [pc, #256]	; (8002c94 <HAL_RCC_OscConfig+0x4c4>)
 8002b92:	6a1b      	ldr	r3, [r3, #32]
 8002b94:	f003 0302 	and.w	r3, r3, #2
 8002b98:	2b00      	cmp	r3, #0
 8002b9a:	d1ee      	bne.n	8002b7a <HAL_RCC_OscConfig+0x3aa>
        }
      }
    }

    /* Require to disable power clock if necessary */
    if (pwrclkchanged == SET)
 8002b9c:	7dfb      	ldrb	r3, [r7, #23]
 8002b9e:	2b01      	cmp	r3, #1
 8002ba0:	d105      	bne.n	8002bae <HAL_RCC_OscConfig+0x3de>
    {
      __HAL_RCC_PWR_CLK_DISABLE();
 8002ba2:	4b3c      	ldr	r3, [pc, #240]	; (8002c94 <HAL_RCC_OscConfig+0x4c4>)
 8002ba4:	69db      	ldr	r3, [r3, #28]
 8002ba6:	4a3b      	ldr	r2, [pc, #236]	; (8002c94 <HAL_RCC_OscConfig+0x4c4>)
 8002ba8:	f023 5380 	bic.w	r3, r3, #268435456	; 0x10000000
 8002bac:	61d3      	str	r3, [r2, #28]

#endif /* RCC_CR_PLL2ON */
  /*-------------------------------- PLL Configuration -----------------------*/
  /* Check the parameters */
  assert_param(IS_RCC_PLL(RCC_OscInitStruct->PLL.PLLState));
  if ((RCC_OscInitStruct->PLL.PLLState) != RCC_PLL_NONE)
 8002bae:	687b      	ldr	r3, [r7, #4]
 8002bb0:	69db      	ldr	r3, [r3, #28]
 8002bb2:	2b00      	cmp	r3, #0
 8002bb4:	f000 8087 	beq.w	8002cc6 <HAL_RCC_OscConfig+0x4f6>
  {
    /* Check if the PLL is used as system clock or not */
    if (__HAL_RCC_GET_SYSCLK_SOURCE() != RCC_SYSCLKSOURCE_STATUS_PLLCLK)
 8002bb8:	4b36      	ldr	r3, [pc, #216]	; (8002c94 <HAL_RCC_OscConfig+0x4c4>)
 8002bba:	685b      	ldr	r3, [r3, #4]
 8002bbc:	f003 030c 	and.w	r3, r3, #12
 8002bc0:	2b08      	cmp	r3, #8
 8002bc2:	d061      	beq.n	8002c88 <HAL_RCC_OscConfig+0x4b8>
    {
      if ((RCC_OscInitStruct->PLL.PLLState) == RCC_PLL_ON)
 8002bc4:	687b      	ldr	r3, [r7, #4]
 8002bc6:	69db      	ldr	r3, [r3, #28]
 8002bc8:	2b02      	cmp	r3, #2
 8002bca:	d146      	bne.n	8002c5a <HAL_RCC_OscConfig+0x48a>
        /* Check the parameters */
        assert_param(IS_RCC_PLLSOURCE(RCC_OscInitStruct->PLL.PLLSource));
        assert_param(IS_RCC_PLL_MUL(RCC_OscInitStruct->PLL.PLLMUL));

        /* Disable the main PLL. */
        __HAL_RCC_PLL_DISABLE();
 8002bcc:	4b33      	ldr	r3, [pc, #204]	; (8002c9c <HAL_RCC_OscConfig+0x4cc>)
 8002bce:	2200      	movs	r2, #0
 8002bd0:	601a      	str	r2, [r3, #0]

        /* Get Start Tick */
        tickstart = HAL_GetTick();
 8002bd2:	f7fe fbf7 	bl	80013c4 <HAL_GetTick>
 8002bd6:	6138      	str	r0, [r7, #16]

        /* Wait till PLL is disabled */
        while (__HAL_RCC_GET_FLAG(RCC_FLAG_PLLRDY)  != RESET)
 8002bd8:	e008      	b.n	8002bec <HAL_RCC_OscConfig+0x41c>
        {
          if ((HAL_GetTick() - tickstart) > PLL_TIMEOUT_VALUE)
 8002bda:	f7fe fbf3 	bl	80013c4 <HAL_GetTick>
 8002bde:	4602      	mov	r2, r0
 8002be0:	693b      	ldr	r3, [r7, #16]
 8002be2:	1ad3      	subs	r3, r2, r3
 8002be4:	2b02      	cmp	r3, #2
 8002be6:	d901      	bls.n	8002bec <HAL_RCC_OscConfig+0x41c>
          {
            return HAL_TIMEOUT;
 8002be8:	2303      	movs	r3, #3
 8002bea:	e06d      	b.n	8002cc8 <HAL_RCC_OscConfig+0x4f8>
        while (__HAL_RCC_GET_FLAG(RCC_FLAG_PLLRDY)  != RESET)
 8002bec:	4b29      	ldr	r3, [pc, #164]	; (8002c94 <HAL_RCC_OscConfig+0x4c4>)
 8002bee:	681b      	ldr	r3, [r3, #0]
 8002bf0:	f003 7300 	and.w	r3, r3, #33554432	; 0x2000000
 8002bf4:	2b00      	cmp	r3, #0
 8002bf6:	d1f0      	bne.n	8002bda <HAL_RCC_OscConfig+0x40a>
          }
        }

        /* Configure the HSE prediv factor --------------------------------*/
        /* It can be written only when the PLL is disabled. Not used in PLL source is different than HSE */
        if (RCC_OscInitStruct->PLL.PLLSource == RCC_PLLSOURCE_HSE)
 8002bf8:	687b      	ldr	r3, [r7, #4]
 8002bfa:	6a1b      	ldr	r3, [r3, #32]
 8002bfc:	f5b3 3f80 	cmp.w	r3, #65536	; 0x10000
 8002c00:	d108      	bne.n	8002c14 <HAL_RCC_OscConfig+0x444>
          /* Set PREDIV1 source */
          SET_BIT(RCC->CFGR2, RCC_OscInitStruct->Prediv1Source);
#endif /* RCC_CFGR2_PREDIV1SRC */

          /* Set PREDIV1 Value */
          __HAL_RCC_HSE_PREDIV_CONFIG(RCC_OscInitStruct->HSEPredivValue);
 8002c02:	4b24      	ldr	r3, [pc, #144]	; (8002c94 <HAL_RCC_OscConfig+0x4c4>)
 8002c04:	685b      	ldr	r3, [r3, #4]
 8002c06:	f423 3200 	bic.w	r2, r3, #131072	; 0x20000
 8002c0a:	687b      	ldr	r3, [r7, #4]
 8002c0c:	689b      	ldr	r3, [r3, #8]
 8002c0e:	4921      	ldr	r1, [pc, #132]	; (8002c94 <HAL_RCC_OscConfig+0x4c4>)
 8002c10:	4313      	orrs	r3, r2
 8002c12:	604b      	str	r3, [r1, #4]
        }

        /* Configure the main PLL clock source and multiplication factors. */
        __HAL_RCC_PLL_CONFIG(RCC_OscInitStruct->PLL.PLLSource,
 8002c14:	4b1f      	ldr	r3, [pc, #124]	; (8002c94 <HAL_RCC_OscConfig+0x4c4>)
 8002c16:	685b      	ldr	r3, [r3, #4]
 8002c18:	f423 1274 	bic.w	r2, r3, #3997696	; 0x3d0000
 8002c1c:	687b      	ldr	r3, [r7, #4]
 8002c1e:	6a19      	ldr	r1, [r3, #32]
 8002c20:	687b      	ldr	r3, [r7, #4]
 8002c22:	6a5b      	ldr	r3, [r3, #36]	; 0x24
 8002c24:	430b      	orrs	r3, r1
 8002c26:	491b      	ldr	r1, [pc, #108]	; (8002c94 <HAL_RCC_OscConfig+0x4c4>)
 8002c28:	4313      	orrs	r3, r2
 8002c2a:	604b      	str	r3, [r1, #4]
                             RCC_OscInitStruct->PLL.PLLMUL);
        /* Enable the main PLL. */
        __HAL_RCC_PLL_ENABLE();
 8002c2c:	4b1b      	ldr	r3, [pc, #108]	; (8002c9c <HAL_RCC_OscConfig+0x4cc>)
 8002c2e:	2201      	movs	r2, #1
 8002c30:	601a      	str	r2, [r3, #0]

        /* Get Start Tick */
        tickstart = HAL_GetTick();
 8002c32:	f7fe fbc7 	bl	80013c4 <HAL_GetTick>
 8002c36:	6138      	str	r0, [r7, #16]

        /* Wait till PLL is ready */
        while (__HAL_RCC_GET_FLAG(RCC_FLAG_PLLRDY)  == RESET)
 8002c38:	e008      	b.n	8002c4c <HAL_RCC_OscConfig+0x47c>
        {
          if ((HAL_GetTick() - tickstart) > PLL_TIMEOUT_VALUE)
 8002c3a:	f7fe fbc3 	bl	80013c4 <HAL_GetTick>
 8002c3e:	4602      	mov	r2, r0
 8002c40:	693b      	ldr	r3, [r7, #16]
 8002c42:	1ad3      	subs	r3, r2, r3
 8002c44:	2b02      	cmp	r3, #2
 8002c46:	d901      	bls.n	8002c4c <HAL_RCC_OscConfig+0x47c>
          {
            return HAL_TIMEOUT;
 8002c48:	2303      	movs	r3, #3
 8002c4a:	e03d      	b.n	8002cc8 <HAL_RCC_OscConfig+0x4f8>
        while (__HAL_RCC_GET_FLAG(RCC_FLAG_PLLRDY)  == RESET)
 8002c4c:	4b11      	ldr	r3, [pc, #68]	; (8002c94 <HAL_RCC_OscConfig+0x4c4>)
 8002c4e:	681b      	ldr	r3, [r3, #0]
 8002c50:	f003 7300 	and.w	r3, r3, #33554432	; 0x2000000
 8002c54:	2b00      	cmp	r3, #0
 8002c56:	d0f0      	beq.n	8002c3a <HAL_RCC_OscConfig+0x46a>
 8002c58:	e035      	b.n	8002cc6 <HAL_RCC_OscConfig+0x4f6>
        }
      }
      else
      {
        /* Disable the main PLL. */
        __HAL_RCC_PLL_DISABLE();
 8002c5a:	4b10      	ldr	r3, [pc, #64]	; (8002c9c <HAL_RCC_OscConfig+0x4cc>)
 8002c5c:	2200      	movs	r2, #0
 8002c5e:	601a      	str	r2, [r3, #0]

        /* Get Start Tick */
        tickstart = HAL_GetTick();
 8002c60:	f7fe fbb0 	bl	80013c4 <HAL_GetTick>
 8002c64:	6138      	str	r0, [r7, #16]

        /* Wait till PLL is disabled */
        while (__HAL_RCC_GET_FLAG(RCC_FLAG_PLLRDY)  != RESET)
 8002c66:	e008      	b.n	8002c7a <HAL_RCC_OscConfig+0x4aa>
        {
          if ((HAL_GetTick() - tickstart) > PLL_TIMEOUT_VALUE)
 8002c68:	f7fe fbac 	bl	80013c4 <HAL_GetTick>
 8002c6c:	4602      	mov	r2, r0
 8002c6e:	693b      	ldr	r3, [r7, #16]
 8002c70:	1ad3      	subs	r3, r2, r3
 8002c72:	2b02      	cmp	r3, #2
 8002c74:	d901      	bls.n	8002c7a <HAL_RCC_OscConfig+0x4aa>
          {
            return HAL_TIMEOUT;
 8002c76:	2303      	movs	r3, #3
 8002c78:	e026      	b.n	8002cc8 <HAL_RCC_OscConfig+0x4f8>
        while (__HAL_RCC_GET_FLAG(RCC_FLAG_PLLRDY)  != RESET)
 8002c7a:	4b06      	ldr	r3, [pc, #24]	; (8002c94 <HAL_RCC_OscConfig+0x4c4>)
 8002c7c:	681b      	ldr	r3, [r3, #0]
 8002c7e:	f003 7300 	and.w	r3, r3, #33554432	; 0x2000000
 8002c82:	2b00      	cmp	r3, #0
 8002c84:	d1f0      	bne.n	8002c68 <HAL_RCC_OscConfig+0x498>
 8002c86:	e01e      	b.n	8002cc6 <HAL_RCC_OscConfig+0x4f6>
      }
    }
    else
    {
      /* Check if there is a request to disable the PLL used as System clock source */
      if ((RCC_OscInitStruct->PLL.PLLState) == RCC_PLL_OFF)
 8002c88:	687b      	ldr	r3, [r7, #4]
 8002c8a:	69db      	ldr	r3, [r3, #28]
 8002c8c:	2b01      	cmp	r3, #1
 8002c8e:	d107      	bne.n	8002ca0 <HAL_RCC_OscConfig+0x4d0>
      {
        return HAL_ERROR;
 8002c90:	2301      	movs	r3, #1
 8002c92:	e019      	b.n	8002cc8 <HAL_RCC_OscConfig+0x4f8>
 8002c94:	40021000 	.word	0x40021000
 8002c98:	40007000 	.word	0x40007000
 8002c9c:	42420060 	.word	0x42420060
      }
      else
      {
        /* Do not return HAL_ERROR if request repeats the current configuration */
        pll_config = RCC->CFGR;
 8002ca0:	4b0b      	ldr	r3, [pc, #44]	; (8002cd0 <HAL_RCC_OscConfig+0x500>)
 8002ca2:	685b      	ldr	r3, [r3, #4]
 8002ca4:	60fb      	str	r3, [r7, #12]
        if ((READ_BIT(pll_config, RCC_CFGR_PLLSRC) != RCC_OscInitStruct->PLL.PLLSource) ||
 8002ca6:	68fb      	ldr	r3, [r7, #12]
 8002ca8:	f403 3280 	and.w	r2, r3, #65536	; 0x10000
 8002cac:	687b      	ldr	r3, [r7, #4]
 8002cae:	6a1b      	ldr	r3, [r3, #32]
 8002cb0:	429a      	cmp	r2, r3
 8002cb2:	d106      	bne.n	8002cc2 <HAL_RCC_OscConfig+0x4f2>
            (READ_BIT(pll_config, RCC_CFGR_PLLMULL) != RCC_OscInitStruct->PLL.PLLMUL))
 8002cb4:	68fb      	ldr	r3, [r7, #12]
 8002cb6:	f403 1270 	and.w	r2, r3, #3932160	; 0x3c0000
 8002cba:	687b      	ldr	r3, [r7, #4]
 8002cbc:	6a5b      	ldr	r3, [r3, #36]	; 0x24
        if ((READ_BIT(pll_config, RCC_CFGR_PLLSRC) != RCC_OscInitStruct->PLL.PLLSource) ||
 8002cbe:	429a      	cmp	r2, r3
 8002cc0:	d001      	beq.n	8002cc6 <HAL_RCC_OscConfig+0x4f6>
        {
          return HAL_ERROR;
 8002cc2:	2301      	movs	r3, #1
 8002cc4:	e000      	b.n	8002cc8 <HAL_RCC_OscConfig+0x4f8>
        }
      }
    }
  }

  return HAL_OK;
 8002cc6:	2300      	movs	r3, #0
}
 8002cc8:	4618      	mov	r0, r3
 8002cca:	3718      	adds	r7, #24
 8002ccc:	46bd      	mov	sp, r7
 8002cce:	bd80      	pop	{r7, pc}
 8002cd0:	40021000 	.word	0x40021000

08002cd4 <HAL_RCC_ClockConfig>:
  *         You can use @ref HAL_RCC_GetClockConfig() function to know which clock is
  *         currently used as system clock source.
  * @retval HAL status
  */
HAL_StatusTypeDef HAL_RCC_ClockConfig(RCC_ClkInitTypeDef  *RCC_ClkInitStruct, uint32_t FLatency)
{
 8002cd4:	b580      	push	{r7, lr}
 8002cd6:	b084      	sub	sp, #16
 8002cd8:	af00      	add	r7, sp, #0
 8002cda:	6078      	str	r0, [r7, #4]
 8002cdc:	6039      	str	r1, [r7, #0]
  uint32_t tickstart;

  /* Check Null pointer */
  if (RCC_ClkInitStruct == NULL)
 8002cde:	687b      	ldr	r3, [r7, #4]
 8002ce0:	2b00      	cmp	r3, #0
 8002ce2:	d101      	bne.n	8002ce8 <HAL_RCC_ClockConfig+0x14>
  {
    return HAL_ERROR;
 8002ce4:	2301      	movs	r3, #1
 8002ce6:	e0d0      	b.n	8002e8a <HAL_RCC_ClockConfig+0x1b6>
  must be correctly programmed according to the frequency of the CPU clock
    (HCLK) of the device. */

#if defined(FLASH_ACR_LATENCY)
  /* Increasing the number of wait states because of higher CPU frequency */
  if (FLatency > __HAL_FLASH_GET_LATENCY())
 8002ce8:	4b6a      	ldr	r3, [pc, #424]	; (8002e94 <HAL_RCC_ClockConfig+0x1c0>)
 8002cea:	681b      	ldr	r3, [r3, #0]
 8002cec:	f003 0307 	and.w	r3, r3, #7
 8002cf0:	683a      	ldr	r2, [r7, #0]
 8002cf2:	429a      	cmp	r2, r3
 8002cf4:	d910      	bls.n	8002d18 <HAL_RCC_ClockConfig+0x44>
  {
    /* Program the new number of wait states to the LATENCY bits in the FLASH_ACR register */
    __HAL_FLASH_SET_LATENCY(FLatency);
 8002cf6:	4b67      	ldr	r3, [pc, #412]	; (8002e94 <HAL_RCC_ClockConfig+0x1c0>)
 8002cf8:	681b      	ldr	r3, [r3, #0]
 8002cfa:	f023 0207 	bic.w	r2, r3, #7
 8002cfe:	4965      	ldr	r1, [pc, #404]	; (8002e94 <HAL_RCC_ClockConfig+0x1c0>)
 8002d00:	683b      	ldr	r3, [r7, #0]
 8002d02:	4313      	orrs	r3, r2
 8002d04:	600b      	str	r3, [r1, #0]

    /* Check that the new number of wait states is taken into account to access the Flash
    memory by reading the FLASH_ACR register */
    if (__HAL_FLASH_GET_LATENCY() != FLatency)
 8002d06:	4b63      	ldr	r3, [pc, #396]	; (8002e94 <HAL_RCC_ClockConfig+0x1c0>)
 8002d08:	681b      	ldr	r3, [r3, #0]
 8002d0a:	f003 0307 	and.w	r3, r3, #7
 8002d0e:	683a      	ldr	r2, [r7, #0]
 8002d10:	429a      	cmp	r2, r3
 8002d12:	d001      	beq.n	8002d18 <HAL_RCC_ClockConfig+0x44>
  {
    return HAL_ERROR;
 8002d14:	2301      	movs	r3, #1
 8002d16:	e0b8      	b.n	8002e8a <HAL_RCC_ClockConfig+0x1b6>
  }
}

#endif /* FLASH_ACR_LATENCY */
/*-------------------------- HCLK Configuration --------------------------*/
if (((RCC_ClkInitStruct->ClockType) & RCC_CLOCKTYPE_HCLK) == RCC_CLOCKTYPE_HCLK)
 8002d18:	687b      	ldr	r3, [r7, #4]
 8002d1a:	681b      	ldr	r3, [r3, #0]
 8002d1c:	f003 0302 	and.w	r3, r3, #2
 8002d20:	2b00      	cmp	r3, #0
 8002d22:	d020      	beq.n	8002d66 <HAL_RCC_ClockConfig+0x92>
  {
    /* Set the highest APBx dividers in order to ensure that we do not go through
    a non-spec phase whatever we decrease or increase HCLK. */
    if (((RCC_ClkInitStruct->ClockType) & RCC_CLOCKTYPE_PCLK1) == RCC_CLOCKTYPE_PCLK1)
 8002d24:	687b      	ldr	r3, [r7, #4]
 8002d26:	681b      	ldr	r3, [r3, #0]
 8002d28:	f003 0304 	and.w	r3, r3, #4
 8002d2c:	2b00      	cmp	r3, #0
 8002d2e:	d005      	beq.n	8002d3c <HAL_RCC_ClockConfig+0x68>
    {
      MODIFY_REG(RCC->CFGR, RCC_CFGR_PPRE1, RCC_HCLK_DIV16);
 8002d30:	4b59      	ldr	r3, [pc, #356]	; (8002e98 <HAL_RCC_ClockConfig+0x1c4>)
 8002d32:	685b      	ldr	r3, [r3, #4]
 8002d34:	4a58      	ldr	r2, [pc, #352]	; (8002e98 <HAL_RCC_ClockConfig+0x1c4>)
 8002d36:	f443 63e0 	orr.w	r3, r3, #1792	; 0x700
 8002d3a:	6053      	str	r3, [r2, #4]
    }

    if (((RCC_ClkInitStruct->ClockType) & RCC_CLOCKTYPE_PCLK2) == RCC_CLOCKTYPE_PCLK2)
 8002d3c:	687b      	ldr	r3, [r7, #4]
 8002d3e:	681b      	ldr	r3, [r3, #0]
 8002d40:	f003 0308 	and.w	r3, r3, #8
 8002d44:	2b00      	cmp	r3, #0
 8002d46:	d005      	beq.n	8002d54 <HAL_RCC_ClockConfig+0x80>
    {
      MODIFY_REG(RCC->CFGR, RCC_CFGR_PPRE2, (RCC_HCLK_DIV16 << 3));
 8002d48:	4b53      	ldr	r3, [pc, #332]	; (8002e98 <HAL_RCC_ClockConfig+0x1c4>)
 8002d4a:	685b      	ldr	r3, [r3, #4]
 8002d4c:	4a52      	ldr	r2, [pc, #328]	; (8002e98 <HAL_RCC_ClockConfig+0x1c4>)
 8002d4e:	f443 5360 	orr.w	r3, r3, #14336	; 0x3800
 8002d52:	6053      	str	r3, [r2, #4]
    }

    /* Set the new HCLK clock divider */
    assert_param(IS_RCC_HCLK(RCC_ClkInitStruct->AHBCLKDivider));
    MODIFY_REG(RCC->CFGR, RCC_CFGR_HPRE, RCC_ClkInitStruct->AHBCLKDivider);
 8002d54:	4b50      	ldr	r3, [pc, #320]	; (8002e98 <HAL_RCC_ClockConfig+0x1c4>)
 8002d56:	685b      	ldr	r3, [r3, #4]
 8002d58:	f023 02f0 	bic.w	r2, r3, #240	; 0xf0
 8002d5c:	687b      	ldr	r3, [r7, #4]
 8002d5e:	689b      	ldr	r3, [r3, #8]
 8002d60:	494d      	ldr	r1, [pc, #308]	; (8002e98 <HAL_RCC_ClockConfig+0x1c4>)
 8002d62:	4313      	orrs	r3, r2
 8002d64:	604b      	str	r3, [r1, #4]
  }

  /*------------------------- SYSCLK Configuration ---------------------------*/
  if (((RCC_ClkInitStruct->ClockType) & RCC_CLOCKTYPE_SYSCLK) == RCC_CLOCKTYPE_SYSCLK)
 8002d66:	687b      	ldr	r3, [r7, #4]
 8002d68:	681b      	ldr	r3, [r3, #0]
 8002d6a:	f003 0301 	and.w	r3, r3, #1
 8002d6e:	2b00      	cmp	r3, #0
 8002d70:	d040      	beq.n	8002df4 <HAL_RCC_ClockConfig+0x120>
  {
    assert_param(IS_RCC_SYSCLKSOURCE(RCC_ClkInitStruct->SYSCLKSource));

    /* HSE is selected as System Clock Source */
    if (RCC_ClkInitStruct->SYSCLKSource == RCC_SYSCLKSOURCE_HSE)
 8002d72:	687b      	ldr	r3, [r7, #4]
 8002d74:	685b      	ldr	r3, [r3, #4]
 8002d76:	2b01      	cmp	r3, #1
 8002d78:	d107      	bne.n	8002d8a <HAL_RCC_ClockConfig+0xb6>
    {
      /* Check the HSE ready flag */
      if (__HAL_RCC_GET_FLAG(RCC_FLAG_HSERDY) == RESET)
 8002d7a:	4b47      	ldr	r3, [pc, #284]	; (8002e98 <HAL_RCC_ClockConfig+0x1c4>)
 8002d7c:	681b      	ldr	r3, [r3, #0]
 8002d7e:	f403 3300 	and.w	r3, r3, #131072	; 0x20000
 8002d82:	2b00      	cmp	r3, #0
 8002d84:	d115      	bne.n	8002db2 <HAL_RCC_ClockConfig+0xde>
      {
        return HAL_ERROR;
 8002d86:	2301      	movs	r3, #1
 8002d88:	e07f      	b.n	8002e8a <HAL_RCC_ClockConfig+0x1b6>
      }
    }
    /* PLL is selected as System Clock Source */
    else if (RCC_ClkInitStruct->SYSCLKSource == RCC_SYSCLKSOURCE_PLLCLK)
 8002d8a:	687b      	ldr	r3, [r7, #4]
 8002d8c:	685b      	ldr	r3, [r3, #4]
 8002d8e:	2b02      	cmp	r3, #2
 8002d90:	d107      	bne.n	8002da2 <HAL_RCC_ClockConfig+0xce>
    {
      /* Check the PLL ready flag */
      if (__HAL_RCC_GET_FLAG(RCC_FLAG_PLLRDY) == RESET)
 8002d92:	4b41      	ldr	r3, [pc, #260]	; (8002e98 <HAL_RCC_ClockConfig+0x1c4>)
 8002d94:	681b      	ldr	r3, [r3, #0]
 8002d96:	f003 7300 	and.w	r3, r3, #33554432	; 0x2000000
 8002d9a:	2b00      	cmp	r3, #0
 8002d9c:	d109      	bne.n	8002db2 <HAL_RCC_ClockConfig+0xde>
      {
        return HAL_ERROR;
 8002d9e:	2301      	movs	r3, #1
 8002da0:	e073      	b.n	8002e8a <HAL_RCC_ClockConfig+0x1b6>
    }
    /* HSI is selected as System Clock Source */
    else
    {
      /* Check the HSI ready flag */
      if (__HAL_RCC_GET_FLAG(RCC_FLAG_HSIRDY) == RESET)
 8002da2:	4b3d      	ldr	r3, [pc, #244]	; (8002e98 <HAL_RCC_ClockConfig+0x1c4>)
 8002da4:	681b      	ldr	r3, [r3, #0]
 8002da6:	f003 0302 	and.w	r3, r3, #2
 8002daa:	2b00      	cmp	r3, #0
 8002dac:	d101      	bne.n	8002db2 <HAL_RCC_ClockConfig+0xde>
      {
        return HAL_ERROR;
 8002dae:	2301      	movs	r3, #1
 8002db0:	e06b      	b.n	8002e8a <HAL_RCC_ClockConfig+0x1b6>
      }
    }
    __HAL_RCC_SYSCLK_CONFIG(RCC_ClkInitStruct->SYSCLKSource);
 8002db2:	4b39      	ldr	r3, [pc, #228]	; (8002e98 <HAL_RCC_ClockConfig+0x1c4>)
 8002db4:	685b      	ldr	r3, [r3, #4]
 8002db6:	f023 0203 	bic.w	r2, r3, #3
 8002dba:	687b      	ldr	r3, [r7, #4]
 8002dbc:	685b      	ldr	r3, [r3, #4]
 8002dbe:	4936      	ldr	r1, [pc, #216]	; (8002e98 <HAL_RCC_ClockConfig+0x1c4>)
 8002dc0:	4313      	orrs	r3, r2
 8002dc2:	604b      	str	r3, [r1, #4]

    /* Get Start Tick */
    tickstart = HAL_GetTick();
 8002dc4:	f7fe fafe 	bl	80013c4 <HAL_GetTick>
 8002dc8:	60f8      	str	r0, [r7, #12]

    while (__HAL_RCC_GET_SYSCLK_SOURCE() != (RCC_ClkInitStruct->SYSCLKSource << RCC_CFGR_SWS_Pos))
 8002dca:	e00a      	b.n	8002de2 <HAL_RCC_ClockConfig+0x10e>
    {
      if ((HAL_GetTick() - tickstart) > CLOCKSWITCH_TIMEOUT_VALUE)
 8002dcc:	f7fe fafa 	bl	80013c4 <HAL_GetTick>
 8002dd0:	4602      	mov	r2, r0
 8002dd2:	68fb      	ldr	r3, [r7, #12]
 8002dd4:	1ad3      	subs	r3, r2, r3
 8002dd6:	f241 3288 	movw	r2, #5000	; 0x1388
 8002dda:	4293      	cmp	r3, r2
 8002ddc:	d901      	bls.n	8002de2 <HAL_RCC_ClockConfig+0x10e>
      {
        return HAL_TIMEOUT;
 8002dde:	2303      	movs	r3, #3
 8002de0:	e053      	b.n	8002e8a <HAL_RCC_ClockConfig+0x1b6>
    while (__HAL_RCC_GET_SYSCLK_SOURCE() != (RCC_ClkInitStruct->SYSCLKSource << RCC_CFGR_SWS_Pos))
 8002de2:	4b2d      	ldr	r3, [pc, #180]	; (8002e98 <HAL_RCC_ClockConfig+0x1c4>)
 8002de4:	685b      	ldr	r3, [r3, #4]
 8002de6:	f003 020c 	and.w	r2, r3, #12
 8002dea:	687b      	ldr	r3, [r7, #4]
 8002dec:	685b      	ldr	r3, [r3, #4]
 8002dee:	009b      	lsls	r3, r3, #2
 8002df0:	429a      	cmp	r2, r3
 8002df2:	d1eb      	bne.n	8002dcc <HAL_RCC_ClockConfig+0xf8>
    }
  }

#if defined(FLASH_ACR_LATENCY)
  /* Decreasing the number of wait states because of lower CPU frequency */
  if (FLatency < __HAL_FLASH_GET_LATENCY())
 8002df4:	4b27      	ldr	r3, [pc, #156]	; (8002e94 <HAL_RCC_ClockConfig+0x1c0>)
 8002df6:	681b      	ldr	r3, [r3, #0]
 8002df8:	f003 0307 	and.w	r3, r3, #7
 8002dfc:	683a      	ldr	r2, [r7, #0]
 8002dfe:	429a      	cmp	r2, r3
 8002e00:	d210      	bcs.n	8002e24 <HAL_RCC_ClockConfig+0x150>
  {
    /* Program the new number of wait states to the LATENCY bits in the FLASH_ACR register */
    __HAL_FLASH_SET_LATENCY(FLatency);
 8002e02:	4b24      	ldr	r3, [pc, #144]	; (8002e94 <HAL_RCC_ClockConfig+0x1c0>)
 8002e04:	681b      	ldr	r3, [r3, #0]
 8002e06:	f023 0207 	bic.w	r2, r3, #7
 8002e0a:	4922      	ldr	r1, [pc, #136]	; (8002e94 <HAL_RCC_ClockConfig+0x1c0>)
 8002e0c:	683b      	ldr	r3, [r7, #0]
 8002e0e:	4313      	orrs	r3, r2
 8002e10:	600b      	str	r3, [r1, #0]

    /* Check that the new number of wait states is taken into account to access the Flash
    memory by reading the FLASH_ACR register */
    if (__HAL_FLASH_GET_LATENCY() != FLatency)
 8002e12:	4b20      	ldr	r3, [pc, #128]	; (8002e94 <HAL_RCC_ClockConfig+0x1c0>)
 8002e14:	681b      	ldr	r3, [r3, #0]
 8002e16:	f003 0307 	and.w	r3, r3, #7
 8002e1a:	683a      	ldr	r2, [r7, #0]
 8002e1c:	429a      	cmp	r2, r3
 8002e1e:	d001      	beq.n	8002e24 <HAL_RCC_ClockConfig+0x150>
  {
    return HAL_ERROR;
 8002e20:	2301      	movs	r3, #1
 8002e22:	e032      	b.n	8002e8a <HAL_RCC_ClockConfig+0x1b6>
  }
}
#endif /* FLASH_ACR_LATENCY */

/*-------------------------- PCLK1 Configuration ---------------------------*/
if (((RCC_ClkInitStruct->ClockType) & RCC_CLOCKTYPE_PCLK1) == RCC_CLOCKTYPE_PCLK1)
 8002e24:	687b      	ldr	r3, [r7, #4]
 8002e26:	681b      	ldr	r3, [r3, #0]
 8002e28:	f003 0304 	and.w	r3, r3, #4
 8002e2c:	2b00      	cmp	r3, #0
 8002e2e:	d008      	beq.n	8002e42 <HAL_RCC_ClockConfig+0x16e>
  {
    assert_param(IS_RCC_PCLK(RCC_ClkInitStruct->APB1CLKDivider));
    MODIFY_REG(RCC->CFGR, RCC_CFGR_PPRE1, RCC_ClkInitStruct->APB1CLKDivider);
 8002e30:	4b19      	ldr	r3, [pc, #100]	; (8002e98 <HAL_RCC_ClockConfig+0x1c4>)
 8002e32:	685b      	ldr	r3, [r3, #4]
 8002e34:	f423 62e0 	bic.w	r2, r3, #1792	; 0x700
 8002e38:	687b      	ldr	r3, [r7, #4]
 8002e3a:	68db      	ldr	r3, [r3, #12]
 8002e3c:	4916      	ldr	r1, [pc, #88]	; (8002e98 <HAL_RCC_ClockConfig+0x1c4>)
 8002e3e:	4313      	orrs	r3, r2
 8002e40:	604b      	str	r3, [r1, #4]
  }

  /*-------------------------- PCLK2 Configuration ---------------------------*/
  if (((RCC_ClkInitStruct->ClockType) & RCC_CLOCKTYPE_PCLK2) == RCC_CLOCKTYPE_PCLK2)
 8002e42:	687b      	ldr	r3, [r7, #4]
 8002e44:	681b      	ldr	r3, [r3, #0]
 8002e46:	f003 0308 	and.w	r3, r3, #8
 8002e4a:	2b00      	cmp	r3, #0
 8002e4c:	d009      	beq.n	8002e62 <HAL_RCC_ClockConfig+0x18e>
  {
    assert_param(IS_RCC_PCLK(RCC_ClkInitStruct->APB2CLKDivider));
    MODIFY_REG(RCC->CFGR, RCC_CFGR_PPRE2, ((RCC_ClkInitStruct->APB2CLKDivider) << 3));
 8002e4e:	4b12      	ldr	r3, [pc, #72]	; (8002e98 <HAL_RCC_ClockConfig+0x1c4>)
 8002e50:	685b      	ldr	r3, [r3, #4]
 8002e52:	f423 5260 	bic.w	r2, r3, #14336	; 0x3800
 8002e56:	687b      	ldr	r3, [r7, #4]
 8002e58:	691b      	ldr	r3, [r3, #16]
 8002e5a:	00db      	lsls	r3, r3, #3
 8002e5c:	490e      	ldr	r1, [pc, #56]	; (8002e98 <HAL_RCC_ClockConfig+0x1c4>)
 8002e5e:	4313      	orrs	r3, r2
 8002e60:	604b      	str	r3, [r1, #4]
  }

  /* Update the SystemCoreClock global variable */
  SystemCoreClock = HAL_RCC_GetSysClockFreq() >> AHBPrescTable[(RCC->CFGR & RCC_CFGR_HPRE) >> RCC_CFGR_HPRE_Pos];
 8002e62:	f000 f821 	bl	8002ea8 <HAL_RCC_GetSysClockFreq>
 8002e66:	4602      	mov	r2, r0
 8002e68:	4b0b      	ldr	r3, [pc, #44]	; (8002e98 <HAL_RCC_ClockConfig+0x1c4>)
 8002e6a:	685b      	ldr	r3, [r3, #4]
 8002e6c:	091b      	lsrs	r3, r3, #4
 8002e6e:	f003 030f 	and.w	r3, r3, #15
 8002e72:	490a      	ldr	r1, [pc, #40]	; (8002e9c <HAL_RCC_ClockConfig+0x1c8>)
 8002e74:	5ccb      	ldrb	r3, [r1, r3]
 8002e76:	fa22 f303 	lsr.w	r3, r2, r3
 8002e7a:	4a09      	ldr	r2, [pc, #36]	; (8002ea0 <HAL_RCC_ClockConfig+0x1cc>)
 8002e7c:	6013      	str	r3, [r2, #0]

  /* Configure the source of time base considering new system clocks settings*/
  HAL_InitTick(uwTickPrio);
 8002e7e:	4b09      	ldr	r3, [pc, #36]	; (8002ea4 <HAL_RCC_ClockConfig+0x1d0>)
 8002e80:	681b      	ldr	r3, [r3, #0]
 8002e82:	4618      	mov	r0, r3
 8002e84:	f7fe fa5c 	bl	8001340 <HAL_InitTick>

  return HAL_OK;
 8002e88:	2300      	movs	r3, #0
}
 8002e8a:	4618      	mov	r0, r3
 8002e8c:	3710      	adds	r7, #16
 8002e8e:	46bd      	mov	sp, r7
 8002e90:	bd80      	pop	{r7, pc}
 8002e92:	bf00      	nop
 8002e94:	40022000 	.word	0x40022000
 8002e98:	40021000 	.word	0x40021000
 8002e9c:	08007a3c 	.word	0x08007a3c
 8002ea0:	20000010 	.word	0x20000010
 8002ea4:	20000014 	.word	0x20000014

08002ea8 <HAL_RCC_GetSysClockFreq>:
  *         right SYSCLK value. Otherwise, any configuration based on this function will be incorrect.
  *
  * @retval SYSCLK frequency
  */
uint32_t HAL_RCC_GetSysClockFreq(void)
{
 8002ea8:	b490      	push	{r4, r7}
 8002eaa:	b08a      	sub	sp, #40	; 0x28
 8002eac:	af00      	add	r7, sp, #0
#if defined(RCC_CFGR2_PREDIV1SRC)
  const uint8_t aPLLMULFactorTable[14] = {0, 0, 4, 5, 6, 7, 8, 9, 0, 0, 0, 0, 0, 13};
  const uint8_t aPredivFactorTable[16] = {1, 2, 3, 4, 5, 6, 7, 8, 9, 10, 11, 12, 13, 14, 15, 16};
#else
  const uint8_t aPLLMULFactorTable[16] = {2, 3, 4, 5, 6, 7, 8, 9, 10, 11, 12, 13, 14, 15, 16, 16};
 8002eae:	4b29      	ldr	r3, [pc, #164]	; (8002f54 <HAL_RCC_GetSysClockFreq+0xac>)
 8002eb0:	1d3c      	adds	r4, r7, #4
 8002eb2:	cb0f      	ldmia	r3, {r0, r1, r2, r3}
 8002eb4:	e884 000f 	stmia.w	r4, {r0, r1, r2, r3}
#if defined(RCC_CFGR2_PREDIV1)
  const uint8_t aPredivFactorTable[16] = {1, 2, 3, 4, 5, 6, 7, 8, 9, 10, 11, 12, 13, 14, 15, 16};
#else
  const uint8_t aPredivFactorTable[2] = {1, 2};
 8002eb8:	f240 2301 	movw	r3, #513	; 0x201
 8002ebc:	803b      	strh	r3, [r7, #0]
#endif /*RCC_CFGR2_PREDIV1*/

#endif
  uint32_t tmpreg = 0U, prediv = 0U, pllclk = 0U, pllmul = 0U;
 8002ebe:	2300      	movs	r3, #0
 8002ec0:	61fb      	str	r3, [r7, #28]
 8002ec2:	2300      	movs	r3, #0
 8002ec4:	61bb      	str	r3, [r7, #24]
 8002ec6:	2300      	movs	r3, #0
 8002ec8:	627b      	str	r3, [r7, #36]	; 0x24
 8002eca:	2300      	movs	r3, #0
 8002ecc:	617b      	str	r3, [r7, #20]
  uint32_t sysclockfreq = 0U;
 8002ece:	2300      	movs	r3, #0
 8002ed0:	623b      	str	r3, [r7, #32]
#if defined(RCC_CFGR2_PREDIV1SRC)
  uint32_t prediv2 = 0U, pll2mul = 0U;
#endif /*RCC_CFGR2_PREDIV1SRC*/

  tmpreg = RCC->CFGR;
 8002ed2:	4b21      	ldr	r3, [pc, #132]	; (8002f58 <HAL_RCC_GetSysClockFreq+0xb0>)
 8002ed4:	685b      	ldr	r3, [r3, #4]
 8002ed6:	61fb      	str	r3, [r7, #28]

  /* Get SYSCLK source -------------------------------------------------------*/
  switch (tmpreg & RCC_CFGR_SWS)
 8002ed8:	69fb      	ldr	r3, [r7, #28]
 8002eda:	f003 030c 	and.w	r3, r3, #12
 8002ede:	2b04      	cmp	r3, #4
 8002ee0:	d002      	beq.n	8002ee8 <HAL_RCC_GetSysClockFreq+0x40>
 8002ee2:	2b08      	cmp	r3, #8
 8002ee4:	d003      	beq.n	8002eee <HAL_RCC_GetSysClockFreq+0x46>
 8002ee6:	e02b      	b.n	8002f40 <HAL_RCC_GetSysClockFreq+0x98>
  {
    case RCC_SYSCLKSOURCE_STATUS_HSE:  /* HSE used as system clock */
    {
      sysclockfreq = HSE_VALUE;
 8002ee8:	4b1c      	ldr	r3, [pc, #112]	; (8002f5c <HAL_RCC_GetSysClockFreq+0xb4>)
 8002eea:	623b      	str	r3, [r7, #32]
      break;
 8002eec:	e02b      	b.n	8002f46 <HAL_RCC_GetSysClockFreq+0x9e>
    }
    case RCC_SYSCLKSOURCE_STATUS_PLLCLK:  /* PLL used as system clock */
    {
      pllmul = aPLLMULFactorTable[(uint32_t)(tmpreg & RCC_CFGR_PLLMULL) >> RCC_CFGR_PLLMULL_Pos];
 8002eee:	69fb      	ldr	r3, [r7, #28]
 8002ef0:	0c9b      	lsrs	r3, r3, #18
 8002ef2:	f003 030f 	and.w	r3, r3, #15
 8002ef6:	3328      	adds	r3, #40	; 0x28
 8002ef8:	443b      	add	r3, r7
 8002efa:	f813 3c24 	ldrb.w	r3, [r3, #-36]
 8002efe:	617b      	str	r3, [r7, #20]
      if ((tmpreg & RCC_CFGR_PLLSRC) != RCC_PLLSOURCE_HSI_DIV2)
 8002f00:	69fb      	ldr	r3, [r7, #28]
 8002f02:	f403 3380 	and.w	r3, r3, #65536	; 0x10000
 8002f06:	2b00      	cmp	r3, #0
 8002f08:	d012      	beq.n	8002f30 <HAL_RCC_GetSysClockFreq+0x88>
      {
#if defined(RCC_CFGR2_PREDIV1)
        prediv = aPredivFactorTable[(uint32_t)(RCC->CFGR2 & RCC_CFGR2_PREDIV1) >> RCC_CFGR2_PREDIV1_Pos];
#else
        prediv = aPredivFactorTable[(uint32_t)(RCC->CFGR & RCC_CFGR_PLLXTPRE) >> RCC_CFGR_PLLXTPRE_Pos];
 8002f0a:	4b13      	ldr	r3, [pc, #76]	; (8002f58 <HAL_RCC_GetSysClockFreq+0xb0>)
 8002f0c:	685b      	ldr	r3, [r3, #4]
 8002f0e:	0c5b      	lsrs	r3, r3, #17
 8002f10:	f003 0301 	and.w	r3, r3, #1
 8002f14:	3328      	adds	r3, #40	; 0x28
 8002f16:	443b      	add	r3, r7
 8002f18:	f813 3c28 	ldrb.w	r3, [r3, #-40]
 8002f1c:	61bb      	str	r3, [r7, #24]
        {
          pllclk = pllclk / 2;
        }
#else
        /* HSE used as PLL clock source : PLLCLK = HSE/PREDIV1 * PLLMUL */
        pllclk = (uint32_t)((HSE_VALUE  * pllmul) / prediv);
 8002f1e:	697b      	ldr	r3, [r7, #20]
 8002f20:	4a0e      	ldr	r2, [pc, #56]	; (8002f5c <HAL_RCC_GetSysClockFreq+0xb4>)
 8002f22:	fb03 f202 	mul.w	r2, r3, r2
 8002f26:	69bb      	ldr	r3, [r7, #24]
 8002f28:	fbb2 f3f3 	udiv	r3, r2, r3
 8002f2c:	627b      	str	r3, [r7, #36]	; 0x24
 8002f2e:	e004      	b.n	8002f3a <HAL_RCC_GetSysClockFreq+0x92>
#endif /*RCC_CFGR2_PREDIV1SRC*/
      }
      else
      {
        /* HSI used as PLL clock source : PLLCLK = HSI/2 * PLLMUL */
        pllclk = (uint32_t)((HSI_VALUE >> 1) * pllmul);
 8002f30:	697b      	ldr	r3, [r7, #20]
 8002f32:	4a0b      	ldr	r2, [pc, #44]	; (8002f60 <HAL_RCC_GetSysClockFreq+0xb8>)
 8002f34:	fb02 f303 	mul.w	r3, r2, r3
 8002f38:	627b      	str	r3, [r7, #36]	; 0x24
      }
      sysclockfreq = pllclk;
 8002f3a:	6a7b      	ldr	r3, [r7, #36]	; 0x24
 8002f3c:	623b      	str	r3, [r7, #32]
      break;
 8002f3e:	e002      	b.n	8002f46 <HAL_RCC_GetSysClockFreq+0x9e>
    }
    case RCC_SYSCLKSOURCE_STATUS_HSI:  /* HSI used as system clock source */
    default: /* HSI used as system clock */
    {
      sysclockfreq = HSI_VALUE;
 8002f40:	4b06      	ldr	r3, [pc, #24]	; (8002f5c <HAL_RCC_GetSysClockFreq+0xb4>)
 8002f42:	623b      	str	r3, [r7, #32]
      break;
 8002f44:	bf00      	nop
    }
  }
  return sysclockfreq;
 8002f46:	6a3b      	ldr	r3, [r7, #32]
}
 8002f48:	4618      	mov	r0, r3
 8002f4a:	3728      	adds	r7, #40	; 0x28
 8002f4c:	46bd      	mov	sp, r7
 8002f4e:	bc90      	pop	{r4, r7}
 8002f50:	4770      	bx	lr
 8002f52:	bf00      	nop
 8002f54:	08007a2c 	.word	0x08007a2c
 8002f58:	40021000 	.word	0x40021000
 8002f5c:	007a1200 	.word	0x007a1200
 8002f60:	003d0900 	.word	0x003d0900

08002f64 <HAL_RCC_GetHCLKFreq>:
  * @note   The SystemCoreClock CMSIS variable is used to store System Clock Frequency
  *         and updated within this function
  * @retval HCLK frequency
  */
uint32_t HAL_RCC_GetHCLKFreq(void)
{
 8002f64:	b480      	push	{r7}
 8002f66:	af00      	add	r7, sp, #0
  return SystemCoreClock;
 8002f68:	4b02      	ldr	r3, [pc, #8]	; (8002f74 <HAL_RCC_GetHCLKFreq+0x10>)
 8002f6a:	681b      	ldr	r3, [r3, #0]
}
 8002f6c:	4618      	mov	r0, r3
 8002f6e:	46bd      	mov	sp, r7
 8002f70:	bc80      	pop	{r7}
 8002f72:	4770      	bx	lr
 8002f74:	20000010 	.word	0x20000010

08002f78 <HAL_RCC_GetPCLK1Freq>:
  * @note   Each time PCLK1 changes, this function must be called to update the
  *         right PCLK1 value. Otherwise, any configuration based on this function will be incorrect.
  * @retval PCLK1 frequency
  */
uint32_t HAL_RCC_GetPCLK1Freq(void)
{
 8002f78:	b580      	push	{r7, lr}
 8002f7a:	af00      	add	r7, sp, #0
  /* Get HCLK source and Compute PCLK1 frequency ---------------------------*/
  return (HAL_RCC_GetHCLKFreq() >> APBPrescTable[(RCC->CFGR & RCC_CFGR_PPRE1) >> RCC_CFGR_PPRE1_Pos]);
 8002f7c:	f7ff fff2 	bl	8002f64 <HAL_RCC_GetHCLKFreq>
 8002f80:	4602      	mov	r2, r0
 8002f82:	4b05      	ldr	r3, [pc, #20]	; (8002f98 <HAL_RCC_GetPCLK1Freq+0x20>)
 8002f84:	685b      	ldr	r3, [r3, #4]
 8002f86:	0a1b      	lsrs	r3, r3, #8
 8002f88:	f003 0307 	and.w	r3, r3, #7
 8002f8c:	4903      	ldr	r1, [pc, #12]	; (8002f9c <HAL_RCC_GetPCLK1Freq+0x24>)
 8002f8e:	5ccb      	ldrb	r3, [r1, r3]
 8002f90:	fa22 f303 	lsr.w	r3, r2, r3
}
 8002f94:	4618      	mov	r0, r3
 8002f96:	bd80      	pop	{r7, pc}
 8002f98:	40021000 	.word	0x40021000
 8002f9c:	08007a4c 	.word	0x08007a4c

08002fa0 <RCC_Delay>:
  * @brief  This function provides delay (in milliseconds) based on CPU cycles method.
  * @param  mdelay: specifies the delay time length, in milliseconds.
  * @retval None
  */
static void RCC_Delay(uint32_t mdelay)
{
 8002fa0:	b480      	push	{r7}
 8002fa2:	b085      	sub	sp, #20
 8002fa4:	af00      	add	r7, sp, #0
 8002fa6:	6078      	str	r0, [r7, #4]
  __IO uint32_t Delay = mdelay * (SystemCoreClock / 8U / 1000U);
 8002fa8:	4b0a      	ldr	r3, [pc, #40]	; (8002fd4 <RCC_Delay+0x34>)
 8002faa:	681b      	ldr	r3, [r3, #0]
 8002fac:	4a0a      	ldr	r2, [pc, #40]	; (8002fd8 <RCC_Delay+0x38>)
 8002fae:	fba2 2303 	umull	r2, r3, r2, r3
 8002fb2:	0a5b      	lsrs	r3, r3, #9
 8002fb4:	687a      	ldr	r2, [r7, #4]
 8002fb6:	fb02 f303 	mul.w	r3, r2, r3
 8002fba:	60fb      	str	r3, [r7, #12]
  do
  {
    __NOP();
 8002fbc:	bf00      	nop
  }
  while (Delay --);
 8002fbe:	68fb      	ldr	r3, [r7, #12]
 8002fc0:	1e5a      	subs	r2, r3, #1
 8002fc2:	60fa      	str	r2, [r7, #12]
 8002fc4:	2b00      	cmp	r3, #0
 8002fc6:	d1f9      	bne.n	8002fbc <RCC_Delay+0x1c>
}
 8002fc8:	bf00      	nop
 8002fca:	bf00      	nop
 8002fcc:	3714      	adds	r7, #20
 8002fce:	46bd      	mov	sp, r7
 8002fd0:	bc80      	pop	{r7}
 8002fd2:	4770      	bx	lr
 8002fd4:	20000010 	.word	0x20000010
 8002fd8:	10624dd3 	.word	0x10624dd3

08002fdc <HAL_RCCEx_PeriphCLKConfig>:
  *         manually disable it.
  *
  * @retval HAL status
  */
HAL_StatusTypeDef HAL_RCCEx_PeriphCLKConfig(RCC_PeriphCLKInitTypeDef  *PeriphClkInit)
{
 8002fdc:	b580      	push	{r7, lr}
 8002fde:	b086      	sub	sp, #24
 8002fe0:	af00      	add	r7, sp, #0
 8002fe2:	6078      	str	r0, [r7, #4]
  uint32_t tickstart = 0U, temp_reg = 0U;
 8002fe4:	2300      	movs	r3, #0
 8002fe6:	613b      	str	r3, [r7, #16]
 8002fe8:	2300      	movs	r3, #0
 8002fea:	60fb      	str	r3, [r7, #12]

  /* Check the parameters */
  assert_param(IS_RCC_PERIPHCLOCK(PeriphClkInit->PeriphClockSelection));

  /*------------------------------- RTC/LCD Configuration ------------------------*/
  if ((((PeriphClkInit->PeriphClockSelection) & RCC_PERIPHCLK_RTC) == RCC_PERIPHCLK_RTC))
 8002fec:	687b      	ldr	r3, [r7, #4]
 8002fee:	681b      	ldr	r3, [r3, #0]
 8002ff0:	f003 0301 	and.w	r3, r3, #1
 8002ff4:	2b00      	cmp	r3, #0
 8002ff6:	d07d      	beq.n	80030f4 <HAL_RCCEx_PeriphCLKConfig+0x118>
  {
    FlagStatus pwrclkchanged = RESET;
 8002ff8:	2300      	movs	r3, #0
 8002ffa:	75fb      	strb	r3, [r7, #23]
    assert_param(IS_RCC_RTCCLKSOURCE(PeriphClkInit->RTCClockSelection));

    /* As soon as function is called to change RTC clock source, activation of the
       power domain is done. */
    /* Requires to enable write access to Backup Domain of necessary */
    if (__HAL_RCC_PWR_IS_CLK_DISABLED())
 8002ffc:	4b4f      	ldr	r3, [pc, #316]	; (800313c <HAL_RCCEx_PeriphCLKConfig+0x160>)
 8002ffe:	69db      	ldr	r3, [r3, #28]
 8003000:	f003 5380 	and.w	r3, r3, #268435456	; 0x10000000
 8003004:	2b00      	cmp	r3, #0
 8003006:	d10d      	bne.n	8003024 <HAL_RCCEx_PeriphCLKConfig+0x48>
    {
      __HAL_RCC_PWR_CLK_ENABLE();
 8003008:	4b4c      	ldr	r3, [pc, #304]	; (800313c <HAL_RCCEx_PeriphCLKConfig+0x160>)
 800300a:	69db      	ldr	r3, [r3, #28]
 800300c:	4a4b      	ldr	r2, [pc, #300]	; (800313c <HAL_RCCEx_PeriphCLKConfig+0x160>)
 800300e:	f043 5380 	orr.w	r3, r3, #268435456	; 0x10000000
 8003012:	61d3      	str	r3, [r2, #28]
 8003014:	4b49      	ldr	r3, [pc, #292]	; (800313c <HAL_RCCEx_PeriphCLKConfig+0x160>)
 8003016:	69db      	ldr	r3, [r3, #28]
 8003018:	f003 5380 	and.w	r3, r3, #268435456	; 0x10000000
 800301c:	60bb      	str	r3, [r7, #8]
 800301e:	68bb      	ldr	r3, [r7, #8]
      pwrclkchanged = SET;
 8003020:	2301      	movs	r3, #1
 8003022:	75fb      	strb	r3, [r7, #23]
    }

    if (HAL_IS_BIT_CLR(PWR->CR, PWR_CR_DBP))
 8003024:	4b46      	ldr	r3, [pc, #280]	; (8003140 <HAL_RCCEx_PeriphCLKConfig+0x164>)
 8003026:	681b      	ldr	r3, [r3, #0]
 8003028:	f403 7380 	and.w	r3, r3, #256	; 0x100
 800302c:	2b00      	cmp	r3, #0
 800302e:	d118      	bne.n	8003062 <HAL_RCCEx_PeriphCLKConfig+0x86>
    {
      /* Enable write access to Backup domain */
      SET_BIT(PWR->CR, PWR_CR_DBP);
 8003030:	4b43      	ldr	r3, [pc, #268]	; (8003140 <HAL_RCCEx_PeriphCLKConfig+0x164>)
 8003032:	681b      	ldr	r3, [r3, #0]
 8003034:	4a42      	ldr	r2, [pc, #264]	; (8003140 <HAL_RCCEx_PeriphCLKConfig+0x164>)
 8003036:	f443 7380 	orr.w	r3, r3, #256	; 0x100
 800303a:	6013      	str	r3, [r2, #0]

      /* Wait for Backup domain Write protection disable */
      tickstart = HAL_GetTick();
 800303c:	f7fe f9c2 	bl	80013c4 <HAL_GetTick>
 8003040:	6138      	str	r0, [r7, #16]

      while (HAL_IS_BIT_CLR(PWR->CR, PWR_CR_DBP))
 8003042:	e008      	b.n	8003056 <HAL_RCCEx_PeriphCLKConfig+0x7a>
      {
        if ((HAL_GetTick() - tickstart) > RCC_DBP_TIMEOUT_VALUE)
 8003044:	f7fe f9be 	bl	80013c4 <HAL_GetTick>
 8003048:	4602      	mov	r2, r0
 800304a:	693b      	ldr	r3, [r7, #16]
 800304c:	1ad3      	subs	r3, r2, r3
 800304e:	2b64      	cmp	r3, #100	; 0x64
 8003050:	d901      	bls.n	8003056 <HAL_RCCEx_PeriphCLKConfig+0x7a>
        {
          return HAL_TIMEOUT;
 8003052:	2303      	movs	r3, #3
 8003054:	e06d      	b.n	8003132 <HAL_RCCEx_PeriphCLKConfig+0x156>
      while (HAL_IS_BIT_CLR(PWR->CR, PWR_CR_DBP))
 8003056:	4b3a      	ldr	r3, [pc, #232]	; (8003140 <HAL_RCCEx_PeriphCLKConfig+0x164>)
 8003058:	681b      	ldr	r3, [r3, #0]
 800305a:	f403 7380 	and.w	r3, r3, #256	; 0x100
 800305e:	2b00      	cmp	r3, #0
 8003060:	d0f0      	beq.n	8003044 <HAL_RCCEx_PeriphCLKConfig+0x68>
        }
      }
    }

    /* Reset the Backup domain only if the RTC Clock source selection is modified from reset value */
    temp_reg = (RCC->BDCR & RCC_BDCR_RTCSEL);
 8003062:	4b36      	ldr	r3, [pc, #216]	; (800313c <HAL_RCCEx_PeriphCLKConfig+0x160>)
 8003064:	6a1b      	ldr	r3, [r3, #32]
 8003066:	f403 7340 	and.w	r3, r3, #768	; 0x300
 800306a:	60fb      	str	r3, [r7, #12]
    if ((temp_reg != 0x00000000U) && (temp_reg != (PeriphClkInit->RTCClockSelection & RCC_BDCR_RTCSEL)))
 800306c:	68fb      	ldr	r3, [r7, #12]
 800306e:	2b00      	cmp	r3, #0
 8003070:	d02e      	beq.n	80030d0 <HAL_RCCEx_PeriphCLKConfig+0xf4>
 8003072:	687b      	ldr	r3, [r7, #4]
 8003074:	685b      	ldr	r3, [r3, #4]
 8003076:	f403 7340 	and.w	r3, r3, #768	; 0x300
 800307a:	68fa      	ldr	r2, [r7, #12]
 800307c:	429a      	cmp	r2, r3
 800307e:	d027      	beq.n	80030d0 <HAL_RCCEx_PeriphCLKConfig+0xf4>
    {
      /* Store the content of BDCR register before the reset of Backup Domain */
      temp_reg = (RCC->BDCR & ~(RCC_BDCR_RTCSEL));
 8003080:	4b2e      	ldr	r3, [pc, #184]	; (800313c <HAL_RCCEx_PeriphCLKConfig+0x160>)
 8003082:	6a1b      	ldr	r3, [r3, #32]
 8003084:	f423 7340 	bic.w	r3, r3, #768	; 0x300
 8003088:	60fb      	str	r3, [r7, #12]
      /* RTC Clock selection can be changed only if the Backup Domain is reset */
      __HAL_RCC_BACKUPRESET_FORCE();
 800308a:	4b2e      	ldr	r3, [pc, #184]	; (8003144 <HAL_RCCEx_PeriphCLKConfig+0x168>)
 800308c:	2201      	movs	r2, #1
 800308e:	601a      	str	r2, [r3, #0]
      __HAL_RCC_BACKUPRESET_RELEASE();
 8003090:	4b2c      	ldr	r3, [pc, #176]	; (8003144 <HAL_RCCEx_PeriphCLKConfig+0x168>)
 8003092:	2200      	movs	r2, #0
 8003094:	601a      	str	r2, [r3, #0]
      /* Restore the Content of BDCR register */
      RCC->BDCR = temp_reg;
 8003096:	4a29      	ldr	r2, [pc, #164]	; (800313c <HAL_RCCEx_PeriphCLKConfig+0x160>)
 8003098:	68fb      	ldr	r3, [r7, #12]
 800309a:	6213      	str	r3, [r2, #32]

      /* Wait for LSERDY if LSE was enabled */
      if (HAL_IS_BIT_SET(temp_reg, RCC_BDCR_LSEON))
 800309c:	68fb      	ldr	r3, [r7, #12]
 800309e:	f003 0301 	and.w	r3, r3, #1
 80030a2:	2b00      	cmp	r3, #0
 80030a4:	d014      	beq.n	80030d0 <HAL_RCCEx_PeriphCLKConfig+0xf4>
      {
        /* Get Start Tick */
        tickstart = HAL_GetTick();
 80030a6:	f7fe f98d 	bl	80013c4 <HAL_GetTick>
 80030aa:	6138      	str	r0, [r7, #16]

        /* Wait till LSE is ready */
        while (__HAL_RCC_GET_FLAG(RCC_FLAG_LSERDY) == RESET)
 80030ac:	e00a      	b.n	80030c4 <HAL_RCCEx_PeriphCLKConfig+0xe8>
        {
          if ((HAL_GetTick() - tickstart) > RCC_LSE_TIMEOUT_VALUE)
 80030ae:	f7fe f989 	bl	80013c4 <HAL_GetTick>
 80030b2:	4602      	mov	r2, r0
 80030b4:	693b      	ldr	r3, [r7, #16]
 80030b6:	1ad3      	subs	r3, r2, r3
 80030b8:	f241 3288 	movw	r2, #5000	; 0x1388
 80030bc:	4293      	cmp	r3, r2
 80030be:	d901      	bls.n	80030c4 <HAL_RCCEx_PeriphCLKConfig+0xe8>
          {
            return HAL_TIMEOUT;
 80030c0:	2303      	movs	r3, #3
 80030c2:	e036      	b.n	8003132 <HAL_RCCEx_PeriphCLKConfig+0x156>
        while (__HAL_RCC_GET_FLAG(RCC_FLAG_LSERDY) == RESET)
 80030c4:	4b1d      	ldr	r3, [pc, #116]	; (800313c <HAL_RCCEx_PeriphCLKConfig+0x160>)
 80030c6:	6a1b      	ldr	r3, [r3, #32]
 80030c8:	f003 0302 	and.w	r3, r3, #2
 80030cc:	2b00      	cmp	r3, #0
 80030ce:	d0ee      	beq.n	80030ae <HAL_RCCEx_PeriphCLKConfig+0xd2>
          }
        }
      }
    }
    __HAL_RCC_RTC_CONFIG(PeriphClkInit->RTCClockSelection);
 80030d0:	4b1a      	ldr	r3, [pc, #104]	; (800313c <HAL_RCCEx_PeriphCLKConfig+0x160>)
 80030d2:	6a1b      	ldr	r3, [r3, #32]
 80030d4:	f423 7240 	bic.w	r2, r3, #768	; 0x300
 80030d8:	687b      	ldr	r3, [r7, #4]
 80030da:	685b      	ldr	r3, [r3, #4]
 80030dc:	4917      	ldr	r1, [pc, #92]	; (800313c <HAL_RCCEx_PeriphCLKConfig+0x160>)
 80030de:	4313      	orrs	r3, r2
 80030e0:	620b      	str	r3, [r1, #32]

    /* Require to disable power clock if necessary */
    if (pwrclkchanged == SET)
 80030e2:	7dfb      	ldrb	r3, [r7, #23]
 80030e4:	2b01      	cmp	r3, #1
 80030e6:	d105      	bne.n	80030f4 <HAL_RCCEx_PeriphCLKConfig+0x118>
    {
      __HAL_RCC_PWR_CLK_DISABLE();
 80030e8:	4b14      	ldr	r3, [pc, #80]	; (800313c <HAL_RCCEx_PeriphCLKConfig+0x160>)
 80030ea:	69db      	ldr	r3, [r3, #28]
 80030ec:	4a13      	ldr	r2, [pc, #76]	; (800313c <HAL_RCCEx_PeriphCLKConfig+0x160>)
 80030ee:	f023 5380 	bic.w	r3, r3, #268435456	; 0x10000000
 80030f2:	61d3      	str	r3, [r2, #28]
    }
  }

  /*------------------------------ ADC clock Configuration ------------------*/
  if (((PeriphClkInit->PeriphClockSelection) & RCC_PERIPHCLK_ADC) == RCC_PERIPHCLK_ADC)
 80030f4:	687b      	ldr	r3, [r7, #4]
 80030f6:	681b      	ldr	r3, [r3, #0]
 80030f8:	f003 0302 	and.w	r3, r3, #2
 80030fc:	2b00      	cmp	r3, #0
 80030fe:	d008      	beq.n	8003112 <HAL_RCCEx_PeriphCLKConfig+0x136>
  {
    /* Check the parameters */
    assert_param(IS_RCC_ADCPLLCLK_DIV(PeriphClkInit->AdcClockSelection));

    /* Configure the ADC clock source */
    __HAL_RCC_ADC_CONFIG(PeriphClkInit->AdcClockSelection);
 8003100:	4b0e      	ldr	r3, [pc, #56]	; (800313c <HAL_RCCEx_PeriphCLKConfig+0x160>)
 8003102:	685b      	ldr	r3, [r3, #4]
 8003104:	f423 4240 	bic.w	r2, r3, #49152	; 0xc000
 8003108:	687b      	ldr	r3, [r7, #4]
 800310a:	689b      	ldr	r3, [r3, #8]
 800310c:	490b      	ldr	r1, [pc, #44]	; (800313c <HAL_RCCEx_PeriphCLKConfig+0x160>)
 800310e:	4313      	orrs	r3, r2
 8003110:	604b      	str	r3, [r1, #4]

#if defined(STM32F102x6) || defined(STM32F102xB) || defined(STM32F103x6)\
 || defined(STM32F103xB) || defined(STM32F103xE) || defined(STM32F103xG)\
 || defined(STM32F105xC) || defined(STM32F107xC)
  /*------------------------------ USB clock Configuration ------------------*/
  if (((PeriphClkInit->PeriphClockSelection) & RCC_PERIPHCLK_USB) == RCC_PERIPHCLK_USB)
 8003112:	687b      	ldr	r3, [r7, #4]
 8003114:	681b      	ldr	r3, [r3, #0]
 8003116:	f003 0310 	and.w	r3, r3, #16
 800311a:	2b00      	cmp	r3, #0
 800311c:	d008      	beq.n	8003130 <HAL_RCCEx_PeriphCLKConfig+0x154>
  {
    /* Check the parameters */
    assert_param(IS_RCC_USBPLLCLK_DIV(PeriphClkInit->UsbClockSelection));

    /* Configure the USB clock source */
    __HAL_RCC_USB_CONFIG(PeriphClkInit->UsbClockSelection);
 800311e:	4b07      	ldr	r3, [pc, #28]	; (800313c <HAL_RCCEx_PeriphCLKConfig+0x160>)
 8003120:	685b      	ldr	r3, [r3, #4]
 8003122:	f423 0280 	bic.w	r2, r3, #4194304	; 0x400000
 8003126:	687b      	ldr	r3, [r7, #4]
 8003128:	68db      	ldr	r3, [r3, #12]
 800312a:	4904      	ldr	r1, [pc, #16]	; (800313c <HAL_RCCEx_PeriphCLKConfig+0x160>)
 800312c:	4313      	orrs	r3, r2
 800312e:	604b      	str	r3, [r1, #4]
  }
#endif /* STM32F102x6 || STM32F102xB || STM32F103x6 || STM32F103xB || STM32F103xE || STM32F103xG || STM32F105xC || STM32F107xC */

  return HAL_OK;
 8003130:	2300      	movs	r3, #0
}
 8003132:	4618      	mov	r0, r3
 8003134:	3718      	adds	r7, #24
 8003136:	46bd      	mov	sp, r7
 8003138:	bd80      	pop	{r7, pc}
 800313a:	bf00      	nop
 800313c:	40021000 	.word	0x40021000
 8003140:	40007000 	.word	0x40007000
 8003144:	42420440 	.word	0x42420440

08003148 <__errno>:
 8003148:	4b01      	ldr	r3, [pc, #4]	; (8003150 <__errno+0x8>)
 800314a:	6818      	ldr	r0, [r3, #0]
 800314c:	4770      	bx	lr
 800314e:	bf00      	nop
 8003150:	2000001c 	.word	0x2000001c

08003154 <__libc_init_array>:
 8003154:	b570      	push	{r4, r5, r6, lr}
 8003156:	2600      	movs	r6, #0
 8003158:	4d0c      	ldr	r5, [pc, #48]	; (800318c <__libc_init_array+0x38>)
 800315a:	4c0d      	ldr	r4, [pc, #52]	; (8003190 <__libc_init_array+0x3c>)
 800315c:	1b64      	subs	r4, r4, r5
 800315e:	10a4      	asrs	r4, r4, #2
 8003160:	42a6      	cmp	r6, r4
 8003162:	d109      	bne.n	8003178 <__libc_init_array+0x24>
 8003164:	f004 fc52 	bl	8007a0c <_init>
 8003168:	2600      	movs	r6, #0
 800316a:	4d0a      	ldr	r5, [pc, #40]	; (8003194 <__libc_init_array+0x40>)
 800316c:	4c0a      	ldr	r4, [pc, #40]	; (8003198 <__libc_init_array+0x44>)
 800316e:	1b64      	subs	r4, r4, r5
 8003170:	10a4      	asrs	r4, r4, #2
 8003172:	42a6      	cmp	r6, r4
 8003174:	d105      	bne.n	8003182 <__libc_init_array+0x2e>
 8003176:	bd70      	pop	{r4, r5, r6, pc}
 8003178:	f855 3b04 	ldr.w	r3, [r5], #4
 800317c:	4798      	blx	r3
 800317e:	3601      	adds	r6, #1
 8003180:	e7ee      	b.n	8003160 <__libc_init_array+0xc>
 8003182:	f855 3b04 	ldr.w	r3, [r5], #4
 8003186:	4798      	blx	r3
 8003188:	3601      	adds	r6, #1
 800318a:	e7f2      	b.n	8003172 <__libc_init_array+0x1e>
 800318c:	08007efc 	.word	0x08007efc
 8003190:	08007efc 	.word	0x08007efc
 8003194:	08007efc 	.word	0x08007efc
 8003198:	08007f00 	.word	0x08007f00

0800319c <memset>:
 800319c:	4603      	mov	r3, r0
 800319e:	4402      	add	r2, r0
 80031a0:	4293      	cmp	r3, r2
 80031a2:	d100      	bne.n	80031a6 <memset+0xa>
 80031a4:	4770      	bx	lr
 80031a6:	f803 1b01 	strb.w	r1, [r3], #1
 80031aa:	e7f9      	b.n	80031a0 <memset+0x4>

080031ac <__cvt>:
 80031ac:	2b00      	cmp	r3, #0
 80031ae:	e92d 47f0 	stmdb	sp!, {r4, r5, r6, r7, r8, r9, sl, lr}
 80031b2:	461f      	mov	r7, r3
 80031b4:	bfbb      	ittet	lt
 80031b6:	f103 4300 	addlt.w	r3, r3, #2147483648	; 0x80000000
 80031ba:	461f      	movlt	r7, r3
 80031bc:	2300      	movge	r3, #0
 80031be:	232d      	movlt	r3, #45	; 0x2d
 80031c0:	b088      	sub	sp, #32
 80031c2:	4614      	mov	r4, r2
 80031c4:	9a12      	ldr	r2, [sp, #72]	; 0x48
 80031c6:	9d10      	ldr	r5, [sp, #64]	; 0x40
 80031c8:	7013      	strb	r3, [r2, #0]
 80031ca:	9b14      	ldr	r3, [sp, #80]	; 0x50
 80031cc:	f8dd a04c 	ldr.w	sl, [sp, #76]	; 0x4c
 80031d0:	f023 0820 	bic.w	r8, r3, #32
 80031d4:	f1b8 0f46 	cmp.w	r8, #70	; 0x46
 80031d8:	d005      	beq.n	80031e6 <__cvt+0x3a>
 80031da:	f1b8 0f45 	cmp.w	r8, #69	; 0x45
 80031de:	d100      	bne.n	80031e2 <__cvt+0x36>
 80031e0:	3501      	adds	r5, #1
 80031e2:	2302      	movs	r3, #2
 80031e4:	e000      	b.n	80031e8 <__cvt+0x3c>
 80031e6:	2303      	movs	r3, #3
 80031e8:	aa07      	add	r2, sp, #28
 80031ea:	9204      	str	r2, [sp, #16]
 80031ec:	aa06      	add	r2, sp, #24
 80031ee:	e9cd a202 	strd	sl, r2, [sp, #8]
 80031f2:	e9cd 3500 	strd	r3, r5, [sp]
 80031f6:	4622      	mov	r2, r4
 80031f8:	463b      	mov	r3, r7
 80031fa:	f001 fd85 	bl	8004d08 <_dtoa_r>
 80031fe:	f1b8 0f47 	cmp.w	r8, #71	; 0x47
 8003202:	4606      	mov	r6, r0
 8003204:	d102      	bne.n	800320c <__cvt+0x60>
 8003206:	9b11      	ldr	r3, [sp, #68]	; 0x44
 8003208:	07db      	lsls	r3, r3, #31
 800320a:	d522      	bpl.n	8003252 <__cvt+0xa6>
 800320c:	f1b8 0f46 	cmp.w	r8, #70	; 0x46
 8003210:	eb06 0905 	add.w	r9, r6, r5
 8003214:	d110      	bne.n	8003238 <__cvt+0x8c>
 8003216:	7833      	ldrb	r3, [r6, #0]
 8003218:	2b30      	cmp	r3, #48	; 0x30
 800321a:	d10a      	bne.n	8003232 <__cvt+0x86>
 800321c:	2200      	movs	r2, #0
 800321e:	2300      	movs	r3, #0
 8003220:	4620      	mov	r0, r4
 8003222:	4639      	mov	r1, r7
 8003224:	f7fd fbc0 	bl	80009a8 <__aeabi_dcmpeq>
 8003228:	b918      	cbnz	r0, 8003232 <__cvt+0x86>
 800322a:	f1c5 0501 	rsb	r5, r5, #1
 800322e:	f8ca 5000 	str.w	r5, [sl]
 8003232:	f8da 3000 	ldr.w	r3, [sl]
 8003236:	4499      	add	r9, r3
 8003238:	2200      	movs	r2, #0
 800323a:	2300      	movs	r3, #0
 800323c:	4620      	mov	r0, r4
 800323e:	4639      	mov	r1, r7
 8003240:	f7fd fbb2 	bl	80009a8 <__aeabi_dcmpeq>
 8003244:	b108      	cbz	r0, 800324a <__cvt+0x9e>
 8003246:	f8cd 901c 	str.w	r9, [sp, #28]
 800324a:	2230      	movs	r2, #48	; 0x30
 800324c:	9b07      	ldr	r3, [sp, #28]
 800324e:	454b      	cmp	r3, r9
 8003250:	d307      	bcc.n	8003262 <__cvt+0xb6>
 8003252:	4630      	mov	r0, r6
 8003254:	9b07      	ldr	r3, [sp, #28]
 8003256:	9a15      	ldr	r2, [sp, #84]	; 0x54
 8003258:	1b9b      	subs	r3, r3, r6
 800325a:	6013      	str	r3, [r2, #0]
 800325c:	b008      	add	sp, #32
 800325e:	e8bd 87f0 	ldmia.w	sp!, {r4, r5, r6, r7, r8, r9, sl, pc}
 8003262:	1c59      	adds	r1, r3, #1
 8003264:	9107      	str	r1, [sp, #28]
 8003266:	701a      	strb	r2, [r3, #0]
 8003268:	e7f0      	b.n	800324c <__cvt+0xa0>

0800326a <__exponent>:
 800326a:	4603      	mov	r3, r0
 800326c:	b5f7      	push	{r0, r1, r2, r4, r5, r6, r7, lr}
 800326e:	2900      	cmp	r1, #0
 8003270:	f803 2b02 	strb.w	r2, [r3], #2
 8003274:	bfb6      	itet	lt
 8003276:	222d      	movlt	r2, #45	; 0x2d
 8003278:	222b      	movge	r2, #43	; 0x2b
 800327a:	4249      	neglt	r1, r1
 800327c:	2909      	cmp	r1, #9
 800327e:	7042      	strb	r2, [r0, #1]
 8003280:	dd2b      	ble.n	80032da <__exponent+0x70>
 8003282:	f10d 0407 	add.w	r4, sp, #7
 8003286:	46a4      	mov	ip, r4
 8003288:	270a      	movs	r7, #10
 800328a:	fb91 f6f7 	sdiv	r6, r1, r7
 800328e:	460a      	mov	r2, r1
 8003290:	46a6      	mov	lr, r4
 8003292:	fb07 1516 	mls	r5, r7, r6, r1
 8003296:	2a63      	cmp	r2, #99	; 0x63
 8003298:	f105 0530 	add.w	r5, r5, #48	; 0x30
 800329c:	4631      	mov	r1, r6
 800329e:	f104 34ff 	add.w	r4, r4, #4294967295
 80032a2:	f80e 5c01 	strb.w	r5, [lr, #-1]
 80032a6:	dcf0      	bgt.n	800328a <__exponent+0x20>
 80032a8:	3130      	adds	r1, #48	; 0x30
 80032aa:	f1ae 0502 	sub.w	r5, lr, #2
 80032ae:	f804 1c01 	strb.w	r1, [r4, #-1]
 80032b2:	4629      	mov	r1, r5
 80032b4:	1c44      	adds	r4, r0, #1
 80032b6:	4561      	cmp	r1, ip
 80032b8:	d30a      	bcc.n	80032d0 <__exponent+0x66>
 80032ba:	f10d 0209 	add.w	r2, sp, #9
 80032be:	eba2 020e 	sub.w	r2, r2, lr
 80032c2:	4565      	cmp	r5, ip
 80032c4:	bf88      	it	hi
 80032c6:	2200      	movhi	r2, #0
 80032c8:	4413      	add	r3, r2
 80032ca:	1a18      	subs	r0, r3, r0
 80032cc:	b003      	add	sp, #12
 80032ce:	bdf0      	pop	{r4, r5, r6, r7, pc}
 80032d0:	f811 2b01 	ldrb.w	r2, [r1], #1
 80032d4:	f804 2f01 	strb.w	r2, [r4, #1]!
 80032d8:	e7ed      	b.n	80032b6 <__exponent+0x4c>
 80032da:	2330      	movs	r3, #48	; 0x30
 80032dc:	3130      	adds	r1, #48	; 0x30
 80032de:	7083      	strb	r3, [r0, #2]
 80032e0:	70c1      	strb	r1, [r0, #3]
 80032e2:	1d03      	adds	r3, r0, #4
 80032e4:	e7f1      	b.n	80032ca <__exponent+0x60>
	...

080032e8 <_printf_float>:
 80032e8:	e92d 4ff0 	stmdb	sp!, {r4, r5, r6, r7, r8, r9, sl, fp, lr}
 80032ec:	b091      	sub	sp, #68	; 0x44
 80032ee:	460c      	mov	r4, r1
 80032f0:	f8dd 8068 	ldr.w	r8, [sp, #104]	; 0x68
 80032f4:	4616      	mov	r6, r2
 80032f6:	461f      	mov	r7, r3
 80032f8:	4605      	mov	r5, r0
 80032fa:	f002 fe59 	bl	8005fb0 <_localeconv_r>
 80032fe:	6803      	ldr	r3, [r0, #0]
 8003300:	4618      	mov	r0, r3
 8003302:	9309      	str	r3, [sp, #36]	; 0x24
 8003304:	f7fc ff24 	bl	8000150 <strlen>
 8003308:	2300      	movs	r3, #0
 800330a:	930e      	str	r3, [sp, #56]	; 0x38
 800330c:	f8d8 3000 	ldr.w	r3, [r8]
 8003310:	900a      	str	r0, [sp, #40]	; 0x28
 8003312:	3307      	adds	r3, #7
 8003314:	f023 0307 	bic.w	r3, r3, #7
 8003318:	f103 0208 	add.w	r2, r3, #8
 800331c:	f894 9018 	ldrb.w	r9, [r4, #24]
 8003320:	f8d4 b000 	ldr.w	fp, [r4]
 8003324:	f8c8 2000 	str.w	r2, [r8]
 8003328:	e9d3 2300 	ldrd	r2, r3, [r3]
 800332c:	e9c4 2312 	strd	r2, r3, [r4, #72]	; 0x48
 8003330:	e9d4 8a12 	ldrd	r8, sl, [r4, #72]	; 0x48
 8003334:	f02a 4300 	bic.w	r3, sl, #2147483648	; 0x80000000
 8003338:	930b      	str	r3, [sp, #44]	; 0x2c
 800333a:	f04f 32ff 	mov.w	r2, #4294967295
 800333e:	4640      	mov	r0, r8
 8003340:	4b9c      	ldr	r3, [pc, #624]	; (80035b4 <_printf_float+0x2cc>)
 8003342:	990b      	ldr	r1, [sp, #44]	; 0x2c
 8003344:	f7fd fb62 	bl	8000a0c <__aeabi_dcmpun>
 8003348:	bb70      	cbnz	r0, 80033a8 <_printf_float+0xc0>
 800334a:	f04f 32ff 	mov.w	r2, #4294967295
 800334e:	4640      	mov	r0, r8
 8003350:	4b98      	ldr	r3, [pc, #608]	; (80035b4 <_printf_float+0x2cc>)
 8003352:	990b      	ldr	r1, [sp, #44]	; 0x2c
 8003354:	f7fd fb3c 	bl	80009d0 <__aeabi_dcmple>
 8003358:	bb30      	cbnz	r0, 80033a8 <_printf_float+0xc0>
 800335a:	2200      	movs	r2, #0
 800335c:	2300      	movs	r3, #0
 800335e:	4640      	mov	r0, r8
 8003360:	4651      	mov	r1, sl
 8003362:	f7fd fb2b 	bl	80009bc <__aeabi_dcmplt>
 8003366:	b110      	cbz	r0, 800336e <_printf_float+0x86>
 8003368:	232d      	movs	r3, #45	; 0x2d
 800336a:	f884 3043 	strb.w	r3, [r4, #67]	; 0x43
 800336e:	4b92      	ldr	r3, [pc, #584]	; (80035b8 <_printf_float+0x2d0>)
 8003370:	4892      	ldr	r0, [pc, #584]	; (80035bc <_printf_float+0x2d4>)
 8003372:	f1b9 0f47 	cmp.w	r9, #71	; 0x47
 8003376:	bf94      	ite	ls
 8003378:	4698      	movls	r8, r3
 800337a:	4680      	movhi	r8, r0
 800337c:	2303      	movs	r3, #3
 800337e:	f04f 0a00 	mov.w	sl, #0
 8003382:	6123      	str	r3, [r4, #16]
 8003384:	f02b 0304 	bic.w	r3, fp, #4
 8003388:	6023      	str	r3, [r4, #0]
 800338a:	4633      	mov	r3, r6
 800338c:	4621      	mov	r1, r4
 800338e:	4628      	mov	r0, r5
 8003390:	9700      	str	r7, [sp, #0]
 8003392:	aa0f      	add	r2, sp, #60	; 0x3c
 8003394:	f000 f9d4 	bl	8003740 <_printf_common>
 8003398:	3001      	adds	r0, #1
 800339a:	f040 8090 	bne.w	80034be <_printf_float+0x1d6>
 800339e:	f04f 30ff 	mov.w	r0, #4294967295
 80033a2:	b011      	add	sp, #68	; 0x44
 80033a4:	e8bd 8ff0 	ldmia.w	sp!, {r4, r5, r6, r7, r8, r9, sl, fp, pc}
 80033a8:	4642      	mov	r2, r8
 80033aa:	4653      	mov	r3, sl
 80033ac:	4640      	mov	r0, r8
 80033ae:	4651      	mov	r1, sl
 80033b0:	f7fd fb2c 	bl	8000a0c <__aeabi_dcmpun>
 80033b4:	b148      	cbz	r0, 80033ca <_printf_float+0xe2>
 80033b6:	f1ba 0f00 	cmp.w	sl, #0
 80033ba:	bfb8      	it	lt
 80033bc:	232d      	movlt	r3, #45	; 0x2d
 80033be:	4880      	ldr	r0, [pc, #512]	; (80035c0 <_printf_float+0x2d8>)
 80033c0:	bfb8      	it	lt
 80033c2:	f884 3043 	strblt.w	r3, [r4, #67]	; 0x43
 80033c6:	4b7f      	ldr	r3, [pc, #508]	; (80035c4 <_printf_float+0x2dc>)
 80033c8:	e7d3      	b.n	8003372 <_printf_float+0x8a>
 80033ca:	6863      	ldr	r3, [r4, #4]
 80033cc:	f009 01df 	and.w	r1, r9, #223	; 0xdf
 80033d0:	1c5a      	adds	r2, r3, #1
 80033d2:	d142      	bne.n	800345a <_printf_float+0x172>
 80033d4:	2306      	movs	r3, #6
 80033d6:	6063      	str	r3, [r4, #4]
 80033d8:	2200      	movs	r2, #0
 80033da:	9206      	str	r2, [sp, #24]
 80033dc:	aa0e      	add	r2, sp, #56	; 0x38
 80033de:	e9cd 9204 	strd	r9, r2, [sp, #16]
 80033e2:	aa0d      	add	r2, sp, #52	; 0x34
 80033e4:	f44b 6380 	orr.w	r3, fp, #1024	; 0x400
 80033e8:	9203      	str	r2, [sp, #12]
 80033ea:	f10d 0233 	add.w	r2, sp, #51	; 0x33
 80033ee:	e9cd 3201 	strd	r3, r2, [sp, #4]
 80033f2:	6023      	str	r3, [r4, #0]
 80033f4:	6863      	ldr	r3, [r4, #4]
 80033f6:	4642      	mov	r2, r8
 80033f8:	9300      	str	r3, [sp, #0]
 80033fa:	4628      	mov	r0, r5
 80033fc:	4653      	mov	r3, sl
 80033fe:	910b      	str	r1, [sp, #44]	; 0x2c
 8003400:	f7ff fed4 	bl	80031ac <__cvt>
 8003404:	990b      	ldr	r1, [sp, #44]	; 0x2c
 8003406:	4680      	mov	r8, r0
 8003408:	2947      	cmp	r1, #71	; 0x47
 800340a:	990d      	ldr	r1, [sp, #52]	; 0x34
 800340c:	d108      	bne.n	8003420 <_printf_float+0x138>
 800340e:	1cc8      	adds	r0, r1, #3
 8003410:	db02      	blt.n	8003418 <_printf_float+0x130>
 8003412:	6863      	ldr	r3, [r4, #4]
 8003414:	4299      	cmp	r1, r3
 8003416:	dd40      	ble.n	800349a <_printf_float+0x1b2>
 8003418:	f1a9 0902 	sub.w	r9, r9, #2
 800341c:	fa5f f989 	uxtb.w	r9, r9
 8003420:	f1b9 0f65 	cmp.w	r9, #101	; 0x65
 8003424:	d81f      	bhi.n	8003466 <_printf_float+0x17e>
 8003426:	464a      	mov	r2, r9
 8003428:	3901      	subs	r1, #1
 800342a:	f104 0050 	add.w	r0, r4, #80	; 0x50
 800342e:	910d      	str	r1, [sp, #52]	; 0x34
 8003430:	f7ff ff1b 	bl	800326a <__exponent>
 8003434:	9a0e      	ldr	r2, [sp, #56]	; 0x38
 8003436:	4682      	mov	sl, r0
 8003438:	1813      	adds	r3, r2, r0
 800343a:	2a01      	cmp	r2, #1
 800343c:	6123      	str	r3, [r4, #16]
 800343e:	dc02      	bgt.n	8003446 <_printf_float+0x15e>
 8003440:	6822      	ldr	r2, [r4, #0]
 8003442:	07d2      	lsls	r2, r2, #31
 8003444:	d501      	bpl.n	800344a <_printf_float+0x162>
 8003446:	3301      	adds	r3, #1
 8003448:	6123      	str	r3, [r4, #16]
 800344a:	f89d 3033 	ldrb.w	r3, [sp, #51]	; 0x33
 800344e:	2b00      	cmp	r3, #0
 8003450:	d09b      	beq.n	800338a <_printf_float+0xa2>
 8003452:	232d      	movs	r3, #45	; 0x2d
 8003454:	f884 3043 	strb.w	r3, [r4, #67]	; 0x43
 8003458:	e797      	b.n	800338a <_printf_float+0xa2>
 800345a:	2947      	cmp	r1, #71	; 0x47
 800345c:	d1bc      	bne.n	80033d8 <_printf_float+0xf0>
 800345e:	2b00      	cmp	r3, #0
 8003460:	d1ba      	bne.n	80033d8 <_printf_float+0xf0>
 8003462:	2301      	movs	r3, #1
 8003464:	e7b7      	b.n	80033d6 <_printf_float+0xee>
 8003466:	f1b9 0f66 	cmp.w	r9, #102	; 0x66
 800346a:	d118      	bne.n	800349e <_printf_float+0x1b6>
 800346c:	2900      	cmp	r1, #0
 800346e:	6863      	ldr	r3, [r4, #4]
 8003470:	dd0b      	ble.n	800348a <_printf_float+0x1a2>
 8003472:	6121      	str	r1, [r4, #16]
 8003474:	b913      	cbnz	r3, 800347c <_printf_float+0x194>
 8003476:	6822      	ldr	r2, [r4, #0]
 8003478:	07d0      	lsls	r0, r2, #31
 800347a:	d502      	bpl.n	8003482 <_printf_float+0x19a>
 800347c:	3301      	adds	r3, #1
 800347e:	440b      	add	r3, r1
 8003480:	6123      	str	r3, [r4, #16]
 8003482:	f04f 0a00 	mov.w	sl, #0
 8003486:	65a1      	str	r1, [r4, #88]	; 0x58
 8003488:	e7df      	b.n	800344a <_printf_float+0x162>
 800348a:	b913      	cbnz	r3, 8003492 <_printf_float+0x1aa>
 800348c:	6822      	ldr	r2, [r4, #0]
 800348e:	07d2      	lsls	r2, r2, #31
 8003490:	d501      	bpl.n	8003496 <_printf_float+0x1ae>
 8003492:	3302      	adds	r3, #2
 8003494:	e7f4      	b.n	8003480 <_printf_float+0x198>
 8003496:	2301      	movs	r3, #1
 8003498:	e7f2      	b.n	8003480 <_printf_float+0x198>
 800349a:	f04f 0967 	mov.w	r9, #103	; 0x67
 800349e:	9b0e      	ldr	r3, [sp, #56]	; 0x38
 80034a0:	4299      	cmp	r1, r3
 80034a2:	db05      	blt.n	80034b0 <_printf_float+0x1c8>
 80034a4:	6823      	ldr	r3, [r4, #0]
 80034a6:	6121      	str	r1, [r4, #16]
 80034a8:	07d8      	lsls	r0, r3, #31
 80034aa:	d5ea      	bpl.n	8003482 <_printf_float+0x19a>
 80034ac:	1c4b      	adds	r3, r1, #1
 80034ae:	e7e7      	b.n	8003480 <_printf_float+0x198>
 80034b0:	2900      	cmp	r1, #0
 80034b2:	bfcc      	ite	gt
 80034b4:	2201      	movgt	r2, #1
 80034b6:	f1c1 0202 	rsble	r2, r1, #2
 80034ba:	4413      	add	r3, r2
 80034bc:	e7e0      	b.n	8003480 <_printf_float+0x198>
 80034be:	6823      	ldr	r3, [r4, #0]
 80034c0:	055a      	lsls	r2, r3, #21
 80034c2:	d407      	bmi.n	80034d4 <_printf_float+0x1ec>
 80034c4:	6923      	ldr	r3, [r4, #16]
 80034c6:	4642      	mov	r2, r8
 80034c8:	4631      	mov	r1, r6
 80034ca:	4628      	mov	r0, r5
 80034cc:	47b8      	blx	r7
 80034ce:	3001      	adds	r0, #1
 80034d0:	d12b      	bne.n	800352a <_printf_float+0x242>
 80034d2:	e764      	b.n	800339e <_printf_float+0xb6>
 80034d4:	f1b9 0f65 	cmp.w	r9, #101	; 0x65
 80034d8:	f240 80dd 	bls.w	8003696 <_printf_float+0x3ae>
 80034dc:	e9d4 0112 	ldrd	r0, r1, [r4, #72]	; 0x48
 80034e0:	2200      	movs	r2, #0
 80034e2:	2300      	movs	r3, #0
 80034e4:	f7fd fa60 	bl	80009a8 <__aeabi_dcmpeq>
 80034e8:	2800      	cmp	r0, #0
 80034ea:	d033      	beq.n	8003554 <_printf_float+0x26c>
 80034ec:	2301      	movs	r3, #1
 80034ee:	4631      	mov	r1, r6
 80034f0:	4628      	mov	r0, r5
 80034f2:	4a35      	ldr	r2, [pc, #212]	; (80035c8 <_printf_float+0x2e0>)
 80034f4:	47b8      	blx	r7
 80034f6:	3001      	adds	r0, #1
 80034f8:	f43f af51 	beq.w	800339e <_printf_float+0xb6>
 80034fc:	e9dd 230d 	ldrd	r2, r3, [sp, #52]	; 0x34
 8003500:	429a      	cmp	r2, r3
 8003502:	db02      	blt.n	800350a <_printf_float+0x222>
 8003504:	6823      	ldr	r3, [r4, #0]
 8003506:	07d8      	lsls	r0, r3, #31
 8003508:	d50f      	bpl.n	800352a <_printf_float+0x242>
 800350a:	e9dd 2309 	ldrd	r2, r3, [sp, #36]	; 0x24
 800350e:	4631      	mov	r1, r6
 8003510:	4628      	mov	r0, r5
 8003512:	47b8      	blx	r7
 8003514:	3001      	adds	r0, #1
 8003516:	f43f af42 	beq.w	800339e <_printf_float+0xb6>
 800351a:	f04f 0800 	mov.w	r8, #0
 800351e:	f104 091a 	add.w	r9, r4, #26
 8003522:	9b0e      	ldr	r3, [sp, #56]	; 0x38
 8003524:	3b01      	subs	r3, #1
 8003526:	4543      	cmp	r3, r8
 8003528:	dc09      	bgt.n	800353e <_printf_float+0x256>
 800352a:	6823      	ldr	r3, [r4, #0]
 800352c:	079b      	lsls	r3, r3, #30
 800352e:	f100 8102 	bmi.w	8003736 <_printf_float+0x44e>
 8003532:	68e0      	ldr	r0, [r4, #12]
 8003534:	9b0f      	ldr	r3, [sp, #60]	; 0x3c
 8003536:	4298      	cmp	r0, r3
 8003538:	bfb8      	it	lt
 800353a:	4618      	movlt	r0, r3
 800353c:	e731      	b.n	80033a2 <_printf_float+0xba>
 800353e:	2301      	movs	r3, #1
 8003540:	464a      	mov	r2, r9
 8003542:	4631      	mov	r1, r6
 8003544:	4628      	mov	r0, r5
 8003546:	47b8      	blx	r7
 8003548:	3001      	adds	r0, #1
 800354a:	f43f af28 	beq.w	800339e <_printf_float+0xb6>
 800354e:	f108 0801 	add.w	r8, r8, #1
 8003552:	e7e6      	b.n	8003522 <_printf_float+0x23a>
 8003554:	9b0d      	ldr	r3, [sp, #52]	; 0x34
 8003556:	2b00      	cmp	r3, #0
 8003558:	dc38      	bgt.n	80035cc <_printf_float+0x2e4>
 800355a:	2301      	movs	r3, #1
 800355c:	4631      	mov	r1, r6
 800355e:	4628      	mov	r0, r5
 8003560:	4a19      	ldr	r2, [pc, #100]	; (80035c8 <_printf_float+0x2e0>)
 8003562:	47b8      	blx	r7
 8003564:	3001      	adds	r0, #1
 8003566:	f43f af1a 	beq.w	800339e <_printf_float+0xb6>
 800356a:	e9dd 230d 	ldrd	r2, r3, [sp, #52]	; 0x34
 800356e:	4313      	orrs	r3, r2
 8003570:	d102      	bne.n	8003578 <_printf_float+0x290>
 8003572:	6823      	ldr	r3, [r4, #0]
 8003574:	07d9      	lsls	r1, r3, #31
 8003576:	d5d8      	bpl.n	800352a <_printf_float+0x242>
 8003578:	e9dd 2309 	ldrd	r2, r3, [sp, #36]	; 0x24
 800357c:	4631      	mov	r1, r6
 800357e:	4628      	mov	r0, r5
 8003580:	47b8      	blx	r7
 8003582:	3001      	adds	r0, #1
 8003584:	f43f af0b 	beq.w	800339e <_printf_float+0xb6>
 8003588:	f04f 0900 	mov.w	r9, #0
 800358c:	f104 0a1a 	add.w	sl, r4, #26
 8003590:	9b0d      	ldr	r3, [sp, #52]	; 0x34
 8003592:	425b      	negs	r3, r3
 8003594:	454b      	cmp	r3, r9
 8003596:	dc01      	bgt.n	800359c <_printf_float+0x2b4>
 8003598:	9b0e      	ldr	r3, [sp, #56]	; 0x38
 800359a:	e794      	b.n	80034c6 <_printf_float+0x1de>
 800359c:	2301      	movs	r3, #1
 800359e:	4652      	mov	r2, sl
 80035a0:	4631      	mov	r1, r6
 80035a2:	4628      	mov	r0, r5
 80035a4:	47b8      	blx	r7
 80035a6:	3001      	adds	r0, #1
 80035a8:	f43f aef9 	beq.w	800339e <_printf_float+0xb6>
 80035ac:	f109 0901 	add.w	r9, r9, #1
 80035b0:	e7ee      	b.n	8003590 <_printf_float+0x2a8>
 80035b2:	bf00      	nop
 80035b4:	7fefffff 	.word	0x7fefffff
 80035b8:	08007a58 	.word	0x08007a58
 80035bc:	08007a5c 	.word	0x08007a5c
 80035c0:	08007a64 	.word	0x08007a64
 80035c4:	08007a60 	.word	0x08007a60
 80035c8:	08007a68 	.word	0x08007a68
 80035cc:	9a0e      	ldr	r2, [sp, #56]	; 0x38
 80035ce:	6da3      	ldr	r3, [r4, #88]	; 0x58
 80035d0:	429a      	cmp	r2, r3
 80035d2:	bfa8      	it	ge
 80035d4:	461a      	movge	r2, r3
 80035d6:	2a00      	cmp	r2, #0
 80035d8:	4691      	mov	r9, r2
 80035da:	dc37      	bgt.n	800364c <_printf_float+0x364>
 80035dc:	f04f 0b00 	mov.w	fp, #0
 80035e0:	ea29 79e9 	bic.w	r9, r9, r9, asr #31
 80035e4:	f104 021a 	add.w	r2, r4, #26
 80035e8:	f8d4 a058 	ldr.w	sl, [r4, #88]	; 0x58
 80035ec:	ebaa 0309 	sub.w	r3, sl, r9
 80035f0:	455b      	cmp	r3, fp
 80035f2:	dc33      	bgt.n	800365c <_printf_float+0x374>
 80035f4:	e9dd 230d 	ldrd	r2, r3, [sp, #52]	; 0x34
 80035f8:	429a      	cmp	r2, r3
 80035fa:	db3b      	blt.n	8003674 <_printf_float+0x38c>
 80035fc:	6823      	ldr	r3, [r4, #0]
 80035fe:	07da      	lsls	r2, r3, #31
 8003600:	d438      	bmi.n	8003674 <_printf_float+0x38c>
 8003602:	9b0e      	ldr	r3, [sp, #56]	; 0x38
 8003604:	990d      	ldr	r1, [sp, #52]	; 0x34
 8003606:	eba3 020a 	sub.w	r2, r3, sl
 800360a:	eba3 0901 	sub.w	r9, r3, r1
 800360e:	4591      	cmp	r9, r2
 8003610:	bfa8      	it	ge
 8003612:	4691      	movge	r9, r2
 8003614:	f1b9 0f00 	cmp.w	r9, #0
 8003618:	dc34      	bgt.n	8003684 <_printf_float+0x39c>
 800361a:	f04f 0800 	mov.w	r8, #0
 800361e:	ea29 79e9 	bic.w	r9, r9, r9, asr #31
 8003622:	f104 0a1a 	add.w	sl, r4, #26
 8003626:	e9dd 230d 	ldrd	r2, r3, [sp, #52]	; 0x34
 800362a:	1a9b      	subs	r3, r3, r2
 800362c:	eba3 0309 	sub.w	r3, r3, r9
 8003630:	4543      	cmp	r3, r8
 8003632:	f77f af7a 	ble.w	800352a <_printf_float+0x242>
 8003636:	2301      	movs	r3, #1
 8003638:	4652      	mov	r2, sl
 800363a:	4631      	mov	r1, r6
 800363c:	4628      	mov	r0, r5
 800363e:	47b8      	blx	r7
 8003640:	3001      	adds	r0, #1
 8003642:	f43f aeac 	beq.w	800339e <_printf_float+0xb6>
 8003646:	f108 0801 	add.w	r8, r8, #1
 800364a:	e7ec      	b.n	8003626 <_printf_float+0x33e>
 800364c:	4613      	mov	r3, r2
 800364e:	4631      	mov	r1, r6
 8003650:	4642      	mov	r2, r8
 8003652:	4628      	mov	r0, r5
 8003654:	47b8      	blx	r7
 8003656:	3001      	adds	r0, #1
 8003658:	d1c0      	bne.n	80035dc <_printf_float+0x2f4>
 800365a:	e6a0      	b.n	800339e <_printf_float+0xb6>
 800365c:	2301      	movs	r3, #1
 800365e:	4631      	mov	r1, r6
 8003660:	4628      	mov	r0, r5
 8003662:	920b      	str	r2, [sp, #44]	; 0x2c
 8003664:	47b8      	blx	r7
 8003666:	3001      	adds	r0, #1
 8003668:	f43f ae99 	beq.w	800339e <_printf_float+0xb6>
 800366c:	9a0b      	ldr	r2, [sp, #44]	; 0x2c
 800366e:	f10b 0b01 	add.w	fp, fp, #1
 8003672:	e7b9      	b.n	80035e8 <_printf_float+0x300>
 8003674:	4631      	mov	r1, r6
 8003676:	e9dd 2309 	ldrd	r2, r3, [sp, #36]	; 0x24
 800367a:	4628      	mov	r0, r5
 800367c:	47b8      	blx	r7
 800367e:	3001      	adds	r0, #1
 8003680:	d1bf      	bne.n	8003602 <_printf_float+0x31a>
 8003682:	e68c      	b.n	800339e <_printf_float+0xb6>
 8003684:	464b      	mov	r3, r9
 8003686:	4631      	mov	r1, r6
 8003688:	4628      	mov	r0, r5
 800368a:	eb08 020a 	add.w	r2, r8, sl
 800368e:	47b8      	blx	r7
 8003690:	3001      	adds	r0, #1
 8003692:	d1c2      	bne.n	800361a <_printf_float+0x332>
 8003694:	e683      	b.n	800339e <_printf_float+0xb6>
 8003696:	9a0e      	ldr	r2, [sp, #56]	; 0x38
 8003698:	2a01      	cmp	r2, #1
 800369a:	dc01      	bgt.n	80036a0 <_printf_float+0x3b8>
 800369c:	07db      	lsls	r3, r3, #31
 800369e:	d537      	bpl.n	8003710 <_printf_float+0x428>
 80036a0:	2301      	movs	r3, #1
 80036a2:	4642      	mov	r2, r8
 80036a4:	4631      	mov	r1, r6
 80036a6:	4628      	mov	r0, r5
 80036a8:	47b8      	blx	r7
 80036aa:	3001      	adds	r0, #1
 80036ac:	f43f ae77 	beq.w	800339e <_printf_float+0xb6>
 80036b0:	e9dd 2309 	ldrd	r2, r3, [sp, #36]	; 0x24
 80036b4:	4631      	mov	r1, r6
 80036b6:	4628      	mov	r0, r5
 80036b8:	47b8      	blx	r7
 80036ba:	3001      	adds	r0, #1
 80036bc:	f43f ae6f 	beq.w	800339e <_printf_float+0xb6>
 80036c0:	e9d4 0112 	ldrd	r0, r1, [r4, #72]	; 0x48
 80036c4:	2200      	movs	r2, #0
 80036c6:	2300      	movs	r3, #0
 80036c8:	f7fd f96e 	bl	80009a8 <__aeabi_dcmpeq>
 80036cc:	b9d8      	cbnz	r0, 8003706 <_printf_float+0x41e>
 80036ce:	9b0e      	ldr	r3, [sp, #56]	; 0x38
 80036d0:	f108 0201 	add.w	r2, r8, #1
 80036d4:	3b01      	subs	r3, #1
 80036d6:	4631      	mov	r1, r6
 80036d8:	4628      	mov	r0, r5
 80036da:	47b8      	blx	r7
 80036dc:	3001      	adds	r0, #1
 80036de:	d10e      	bne.n	80036fe <_printf_float+0x416>
 80036e0:	e65d      	b.n	800339e <_printf_float+0xb6>
 80036e2:	2301      	movs	r3, #1
 80036e4:	464a      	mov	r2, r9
 80036e6:	4631      	mov	r1, r6
 80036e8:	4628      	mov	r0, r5
 80036ea:	47b8      	blx	r7
 80036ec:	3001      	adds	r0, #1
 80036ee:	f43f ae56 	beq.w	800339e <_printf_float+0xb6>
 80036f2:	f108 0801 	add.w	r8, r8, #1
 80036f6:	9b0e      	ldr	r3, [sp, #56]	; 0x38
 80036f8:	3b01      	subs	r3, #1
 80036fa:	4543      	cmp	r3, r8
 80036fc:	dcf1      	bgt.n	80036e2 <_printf_float+0x3fa>
 80036fe:	4653      	mov	r3, sl
 8003700:	f104 0250 	add.w	r2, r4, #80	; 0x50
 8003704:	e6e0      	b.n	80034c8 <_printf_float+0x1e0>
 8003706:	f04f 0800 	mov.w	r8, #0
 800370a:	f104 091a 	add.w	r9, r4, #26
 800370e:	e7f2      	b.n	80036f6 <_printf_float+0x40e>
 8003710:	2301      	movs	r3, #1
 8003712:	4642      	mov	r2, r8
 8003714:	e7df      	b.n	80036d6 <_printf_float+0x3ee>
 8003716:	2301      	movs	r3, #1
 8003718:	464a      	mov	r2, r9
 800371a:	4631      	mov	r1, r6
 800371c:	4628      	mov	r0, r5
 800371e:	47b8      	blx	r7
 8003720:	3001      	adds	r0, #1
 8003722:	f43f ae3c 	beq.w	800339e <_printf_float+0xb6>
 8003726:	f108 0801 	add.w	r8, r8, #1
 800372a:	68e3      	ldr	r3, [r4, #12]
 800372c:	990f      	ldr	r1, [sp, #60]	; 0x3c
 800372e:	1a5b      	subs	r3, r3, r1
 8003730:	4543      	cmp	r3, r8
 8003732:	dcf0      	bgt.n	8003716 <_printf_float+0x42e>
 8003734:	e6fd      	b.n	8003532 <_printf_float+0x24a>
 8003736:	f04f 0800 	mov.w	r8, #0
 800373a:	f104 0919 	add.w	r9, r4, #25
 800373e:	e7f4      	b.n	800372a <_printf_float+0x442>

08003740 <_printf_common>:
 8003740:	e92d 47f0 	stmdb	sp!, {r4, r5, r6, r7, r8, r9, sl, lr}
 8003744:	4616      	mov	r6, r2
 8003746:	4699      	mov	r9, r3
 8003748:	688a      	ldr	r2, [r1, #8]
 800374a:	690b      	ldr	r3, [r1, #16]
 800374c:	4607      	mov	r7, r0
 800374e:	4293      	cmp	r3, r2
 8003750:	bfb8      	it	lt
 8003752:	4613      	movlt	r3, r2
 8003754:	6033      	str	r3, [r6, #0]
 8003756:	f891 2043 	ldrb.w	r2, [r1, #67]	; 0x43
 800375a:	460c      	mov	r4, r1
 800375c:	f8dd 8020 	ldr.w	r8, [sp, #32]
 8003760:	b10a      	cbz	r2, 8003766 <_printf_common+0x26>
 8003762:	3301      	adds	r3, #1
 8003764:	6033      	str	r3, [r6, #0]
 8003766:	6823      	ldr	r3, [r4, #0]
 8003768:	0699      	lsls	r1, r3, #26
 800376a:	bf42      	ittt	mi
 800376c:	6833      	ldrmi	r3, [r6, #0]
 800376e:	3302      	addmi	r3, #2
 8003770:	6033      	strmi	r3, [r6, #0]
 8003772:	6825      	ldr	r5, [r4, #0]
 8003774:	f015 0506 	ands.w	r5, r5, #6
 8003778:	d106      	bne.n	8003788 <_printf_common+0x48>
 800377a:	f104 0a19 	add.w	sl, r4, #25
 800377e:	68e3      	ldr	r3, [r4, #12]
 8003780:	6832      	ldr	r2, [r6, #0]
 8003782:	1a9b      	subs	r3, r3, r2
 8003784:	42ab      	cmp	r3, r5
 8003786:	dc28      	bgt.n	80037da <_printf_common+0x9a>
 8003788:	f894 2043 	ldrb.w	r2, [r4, #67]	; 0x43
 800378c:	1e13      	subs	r3, r2, #0
 800378e:	6822      	ldr	r2, [r4, #0]
 8003790:	bf18      	it	ne
 8003792:	2301      	movne	r3, #1
 8003794:	0692      	lsls	r2, r2, #26
 8003796:	d42d      	bmi.n	80037f4 <_printf_common+0xb4>
 8003798:	4649      	mov	r1, r9
 800379a:	4638      	mov	r0, r7
 800379c:	f104 0243 	add.w	r2, r4, #67	; 0x43
 80037a0:	47c0      	blx	r8
 80037a2:	3001      	adds	r0, #1
 80037a4:	d020      	beq.n	80037e8 <_printf_common+0xa8>
 80037a6:	6823      	ldr	r3, [r4, #0]
 80037a8:	68e5      	ldr	r5, [r4, #12]
 80037aa:	f003 0306 	and.w	r3, r3, #6
 80037ae:	2b04      	cmp	r3, #4
 80037b0:	bf18      	it	ne
 80037b2:	2500      	movne	r5, #0
 80037b4:	6832      	ldr	r2, [r6, #0]
 80037b6:	f04f 0600 	mov.w	r6, #0
 80037ba:	68a3      	ldr	r3, [r4, #8]
 80037bc:	bf08      	it	eq
 80037be:	1aad      	subeq	r5, r5, r2
 80037c0:	6922      	ldr	r2, [r4, #16]
 80037c2:	bf08      	it	eq
 80037c4:	ea25 75e5 	biceq.w	r5, r5, r5, asr #31
 80037c8:	4293      	cmp	r3, r2
 80037ca:	bfc4      	itt	gt
 80037cc:	1a9b      	subgt	r3, r3, r2
 80037ce:	18ed      	addgt	r5, r5, r3
 80037d0:	341a      	adds	r4, #26
 80037d2:	42b5      	cmp	r5, r6
 80037d4:	d11a      	bne.n	800380c <_printf_common+0xcc>
 80037d6:	2000      	movs	r0, #0
 80037d8:	e008      	b.n	80037ec <_printf_common+0xac>
 80037da:	2301      	movs	r3, #1
 80037dc:	4652      	mov	r2, sl
 80037de:	4649      	mov	r1, r9
 80037e0:	4638      	mov	r0, r7
 80037e2:	47c0      	blx	r8
 80037e4:	3001      	adds	r0, #1
 80037e6:	d103      	bne.n	80037f0 <_printf_common+0xb0>
 80037e8:	f04f 30ff 	mov.w	r0, #4294967295
 80037ec:	e8bd 87f0 	ldmia.w	sp!, {r4, r5, r6, r7, r8, r9, sl, pc}
 80037f0:	3501      	adds	r5, #1
 80037f2:	e7c4      	b.n	800377e <_printf_common+0x3e>
 80037f4:	2030      	movs	r0, #48	; 0x30
 80037f6:	18e1      	adds	r1, r4, r3
 80037f8:	f881 0043 	strb.w	r0, [r1, #67]	; 0x43
 80037fc:	1c5a      	adds	r2, r3, #1
 80037fe:	f894 1045 	ldrb.w	r1, [r4, #69]	; 0x45
 8003802:	4422      	add	r2, r4
 8003804:	3302      	adds	r3, #2
 8003806:	f882 1043 	strb.w	r1, [r2, #67]	; 0x43
 800380a:	e7c5      	b.n	8003798 <_printf_common+0x58>
 800380c:	2301      	movs	r3, #1
 800380e:	4622      	mov	r2, r4
 8003810:	4649      	mov	r1, r9
 8003812:	4638      	mov	r0, r7
 8003814:	47c0      	blx	r8
 8003816:	3001      	adds	r0, #1
 8003818:	d0e6      	beq.n	80037e8 <_printf_common+0xa8>
 800381a:	3601      	adds	r6, #1
 800381c:	e7d9      	b.n	80037d2 <_printf_common+0x92>
	...

08003820 <_printf_i>:
 8003820:	e92d 47ff 	stmdb	sp!, {r0, r1, r2, r3, r4, r5, r6, r7, r8, r9, sl, lr}
 8003824:	7e0f      	ldrb	r7, [r1, #24]
 8003826:	4691      	mov	r9, r2
 8003828:	2f78      	cmp	r7, #120	; 0x78
 800382a:	4680      	mov	r8, r0
 800382c:	460c      	mov	r4, r1
 800382e:	469a      	mov	sl, r3
 8003830:	9d0c      	ldr	r5, [sp, #48]	; 0x30
 8003832:	f101 0243 	add.w	r2, r1, #67	; 0x43
 8003836:	d807      	bhi.n	8003848 <_printf_i+0x28>
 8003838:	2f62      	cmp	r7, #98	; 0x62
 800383a:	d80a      	bhi.n	8003852 <_printf_i+0x32>
 800383c:	2f00      	cmp	r7, #0
 800383e:	f000 80d9 	beq.w	80039f4 <_printf_i+0x1d4>
 8003842:	2f58      	cmp	r7, #88	; 0x58
 8003844:	f000 80a4 	beq.w	8003990 <_printf_i+0x170>
 8003848:	f104 0542 	add.w	r5, r4, #66	; 0x42
 800384c:	f884 7042 	strb.w	r7, [r4, #66]	; 0x42
 8003850:	e03a      	b.n	80038c8 <_printf_i+0xa8>
 8003852:	f1a7 0363 	sub.w	r3, r7, #99	; 0x63
 8003856:	2b15      	cmp	r3, #21
 8003858:	d8f6      	bhi.n	8003848 <_printf_i+0x28>
 800385a:	a101      	add	r1, pc, #4	; (adr r1, 8003860 <_printf_i+0x40>)
 800385c:	f851 f023 	ldr.w	pc, [r1, r3, lsl #2]
 8003860:	080038b9 	.word	0x080038b9
 8003864:	080038cd 	.word	0x080038cd
 8003868:	08003849 	.word	0x08003849
 800386c:	08003849 	.word	0x08003849
 8003870:	08003849 	.word	0x08003849
 8003874:	08003849 	.word	0x08003849
 8003878:	080038cd 	.word	0x080038cd
 800387c:	08003849 	.word	0x08003849
 8003880:	08003849 	.word	0x08003849
 8003884:	08003849 	.word	0x08003849
 8003888:	08003849 	.word	0x08003849
 800388c:	080039db 	.word	0x080039db
 8003890:	080038fd 	.word	0x080038fd
 8003894:	080039bd 	.word	0x080039bd
 8003898:	08003849 	.word	0x08003849
 800389c:	08003849 	.word	0x08003849
 80038a0:	080039fd 	.word	0x080039fd
 80038a4:	08003849 	.word	0x08003849
 80038a8:	080038fd 	.word	0x080038fd
 80038ac:	08003849 	.word	0x08003849
 80038b0:	08003849 	.word	0x08003849
 80038b4:	080039c5 	.word	0x080039c5
 80038b8:	682b      	ldr	r3, [r5, #0]
 80038ba:	1d1a      	adds	r2, r3, #4
 80038bc:	681b      	ldr	r3, [r3, #0]
 80038be:	602a      	str	r2, [r5, #0]
 80038c0:	f104 0542 	add.w	r5, r4, #66	; 0x42
 80038c4:	f884 3042 	strb.w	r3, [r4, #66]	; 0x42
 80038c8:	2301      	movs	r3, #1
 80038ca:	e0a4      	b.n	8003a16 <_printf_i+0x1f6>
 80038cc:	6820      	ldr	r0, [r4, #0]
 80038ce:	6829      	ldr	r1, [r5, #0]
 80038d0:	0606      	lsls	r6, r0, #24
 80038d2:	f101 0304 	add.w	r3, r1, #4
 80038d6:	d50a      	bpl.n	80038ee <_printf_i+0xce>
 80038d8:	680e      	ldr	r6, [r1, #0]
 80038da:	602b      	str	r3, [r5, #0]
 80038dc:	2e00      	cmp	r6, #0
 80038de:	da03      	bge.n	80038e8 <_printf_i+0xc8>
 80038e0:	232d      	movs	r3, #45	; 0x2d
 80038e2:	4276      	negs	r6, r6
 80038e4:	f884 3043 	strb.w	r3, [r4, #67]	; 0x43
 80038e8:	230a      	movs	r3, #10
 80038ea:	485e      	ldr	r0, [pc, #376]	; (8003a64 <_printf_i+0x244>)
 80038ec:	e019      	b.n	8003922 <_printf_i+0x102>
 80038ee:	680e      	ldr	r6, [r1, #0]
 80038f0:	f010 0f40 	tst.w	r0, #64	; 0x40
 80038f4:	602b      	str	r3, [r5, #0]
 80038f6:	bf18      	it	ne
 80038f8:	b236      	sxthne	r6, r6
 80038fa:	e7ef      	b.n	80038dc <_printf_i+0xbc>
 80038fc:	682b      	ldr	r3, [r5, #0]
 80038fe:	6820      	ldr	r0, [r4, #0]
 8003900:	1d19      	adds	r1, r3, #4
 8003902:	6029      	str	r1, [r5, #0]
 8003904:	0601      	lsls	r1, r0, #24
 8003906:	d501      	bpl.n	800390c <_printf_i+0xec>
 8003908:	681e      	ldr	r6, [r3, #0]
 800390a:	e002      	b.n	8003912 <_printf_i+0xf2>
 800390c:	0646      	lsls	r6, r0, #25
 800390e:	d5fb      	bpl.n	8003908 <_printf_i+0xe8>
 8003910:	881e      	ldrh	r6, [r3, #0]
 8003912:	2f6f      	cmp	r7, #111	; 0x6f
 8003914:	bf0c      	ite	eq
 8003916:	2308      	moveq	r3, #8
 8003918:	230a      	movne	r3, #10
 800391a:	4852      	ldr	r0, [pc, #328]	; (8003a64 <_printf_i+0x244>)
 800391c:	2100      	movs	r1, #0
 800391e:	f884 1043 	strb.w	r1, [r4, #67]	; 0x43
 8003922:	6865      	ldr	r5, [r4, #4]
 8003924:	2d00      	cmp	r5, #0
 8003926:	bfa8      	it	ge
 8003928:	6821      	ldrge	r1, [r4, #0]
 800392a:	60a5      	str	r5, [r4, #8]
 800392c:	bfa4      	itt	ge
 800392e:	f021 0104 	bicge.w	r1, r1, #4
 8003932:	6021      	strge	r1, [r4, #0]
 8003934:	b90e      	cbnz	r6, 800393a <_printf_i+0x11a>
 8003936:	2d00      	cmp	r5, #0
 8003938:	d04d      	beq.n	80039d6 <_printf_i+0x1b6>
 800393a:	4615      	mov	r5, r2
 800393c:	fbb6 f1f3 	udiv	r1, r6, r3
 8003940:	fb03 6711 	mls	r7, r3, r1, r6
 8003944:	5dc7      	ldrb	r7, [r0, r7]
 8003946:	f805 7d01 	strb.w	r7, [r5, #-1]!
 800394a:	4637      	mov	r7, r6
 800394c:	42bb      	cmp	r3, r7
 800394e:	460e      	mov	r6, r1
 8003950:	d9f4      	bls.n	800393c <_printf_i+0x11c>
 8003952:	2b08      	cmp	r3, #8
 8003954:	d10b      	bne.n	800396e <_printf_i+0x14e>
 8003956:	6823      	ldr	r3, [r4, #0]
 8003958:	07de      	lsls	r6, r3, #31
 800395a:	d508      	bpl.n	800396e <_printf_i+0x14e>
 800395c:	6923      	ldr	r3, [r4, #16]
 800395e:	6861      	ldr	r1, [r4, #4]
 8003960:	4299      	cmp	r1, r3
 8003962:	bfde      	ittt	le
 8003964:	2330      	movle	r3, #48	; 0x30
 8003966:	f805 3c01 	strble.w	r3, [r5, #-1]
 800396a:	f105 35ff 	addle.w	r5, r5, #4294967295
 800396e:	1b52      	subs	r2, r2, r5
 8003970:	6122      	str	r2, [r4, #16]
 8003972:	464b      	mov	r3, r9
 8003974:	4621      	mov	r1, r4
 8003976:	4640      	mov	r0, r8
 8003978:	f8cd a000 	str.w	sl, [sp]
 800397c:	aa03      	add	r2, sp, #12
 800397e:	f7ff fedf 	bl	8003740 <_printf_common>
 8003982:	3001      	adds	r0, #1
 8003984:	d14c      	bne.n	8003a20 <_printf_i+0x200>
 8003986:	f04f 30ff 	mov.w	r0, #4294967295
 800398a:	b004      	add	sp, #16
 800398c:	e8bd 87f0 	ldmia.w	sp!, {r4, r5, r6, r7, r8, r9, sl, pc}
 8003990:	4834      	ldr	r0, [pc, #208]	; (8003a64 <_printf_i+0x244>)
 8003992:	f881 7045 	strb.w	r7, [r1, #69]	; 0x45
 8003996:	6829      	ldr	r1, [r5, #0]
 8003998:	6823      	ldr	r3, [r4, #0]
 800399a:	f851 6b04 	ldr.w	r6, [r1], #4
 800399e:	6029      	str	r1, [r5, #0]
 80039a0:	061d      	lsls	r5, r3, #24
 80039a2:	d514      	bpl.n	80039ce <_printf_i+0x1ae>
 80039a4:	07df      	lsls	r7, r3, #31
 80039a6:	bf44      	itt	mi
 80039a8:	f043 0320 	orrmi.w	r3, r3, #32
 80039ac:	6023      	strmi	r3, [r4, #0]
 80039ae:	b91e      	cbnz	r6, 80039b8 <_printf_i+0x198>
 80039b0:	6823      	ldr	r3, [r4, #0]
 80039b2:	f023 0320 	bic.w	r3, r3, #32
 80039b6:	6023      	str	r3, [r4, #0]
 80039b8:	2310      	movs	r3, #16
 80039ba:	e7af      	b.n	800391c <_printf_i+0xfc>
 80039bc:	6823      	ldr	r3, [r4, #0]
 80039be:	f043 0320 	orr.w	r3, r3, #32
 80039c2:	6023      	str	r3, [r4, #0]
 80039c4:	2378      	movs	r3, #120	; 0x78
 80039c6:	4828      	ldr	r0, [pc, #160]	; (8003a68 <_printf_i+0x248>)
 80039c8:	f884 3045 	strb.w	r3, [r4, #69]	; 0x45
 80039cc:	e7e3      	b.n	8003996 <_printf_i+0x176>
 80039ce:	0659      	lsls	r1, r3, #25
 80039d0:	bf48      	it	mi
 80039d2:	b2b6      	uxthmi	r6, r6
 80039d4:	e7e6      	b.n	80039a4 <_printf_i+0x184>
 80039d6:	4615      	mov	r5, r2
 80039d8:	e7bb      	b.n	8003952 <_printf_i+0x132>
 80039da:	682b      	ldr	r3, [r5, #0]
 80039dc:	6826      	ldr	r6, [r4, #0]
 80039de:	1d18      	adds	r0, r3, #4
 80039e0:	6961      	ldr	r1, [r4, #20]
 80039e2:	6028      	str	r0, [r5, #0]
 80039e4:	0635      	lsls	r5, r6, #24
 80039e6:	681b      	ldr	r3, [r3, #0]
 80039e8:	d501      	bpl.n	80039ee <_printf_i+0x1ce>
 80039ea:	6019      	str	r1, [r3, #0]
 80039ec:	e002      	b.n	80039f4 <_printf_i+0x1d4>
 80039ee:	0670      	lsls	r0, r6, #25
 80039f0:	d5fb      	bpl.n	80039ea <_printf_i+0x1ca>
 80039f2:	8019      	strh	r1, [r3, #0]
 80039f4:	2300      	movs	r3, #0
 80039f6:	4615      	mov	r5, r2
 80039f8:	6123      	str	r3, [r4, #16]
 80039fa:	e7ba      	b.n	8003972 <_printf_i+0x152>
 80039fc:	682b      	ldr	r3, [r5, #0]
 80039fe:	2100      	movs	r1, #0
 8003a00:	1d1a      	adds	r2, r3, #4
 8003a02:	602a      	str	r2, [r5, #0]
 8003a04:	681d      	ldr	r5, [r3, #0]
 8003a06:	6862      	ldr	r2, [r4, #4]
 8003a08:	4628      	mov	r0, r5
 8003a0a:	f002 faef 	bl	8005fec <memchr>
 8003a0e:	b108      	cbz	r0, 8003a14 <_printf_i+0x1f4>
 8003a10:	1b40      	subs	r0, r0, r5
 8003a12:	6060      	str	r0, [r4, #4]
 8003a14:	6863      	ldr	r3, [r4, #4]
 8003a16:	6123      	str	r3, [r4, #16]
 8003a18:	2300      	movs	r3, #0
 8003a1a:	f884 3043 	strb.w	r3, [r4, #67]	; 0x43
 8003a1e:	e7a8      	b.n	8003972 <_printf_i+0x152>
 8003a20:	462a      	mov	r2, r5
 8003a22:	4649      	mov	r1, r9
 8003a24:	4640      	mov	r0, r8
 8003a26:	6923      	ldr	r3, [r4, #16]
 8003a28:	47d0      	blx	sl
 8003a2a:	3001      	adds	r0, #1
 8003a2c:	d0ab      	beq.n	8003986 <_printf_i+0x166>
 8003a2e:	6823      	ldr	r3, [r4, #0]
 8003a30:	079b      	lsls	r3, r3, #30
 8003a32:	d413      	bmi.n	8003a5c <_printf_i+0x23c>
 8003a34:	68e0      	ldr	r0, [r4, #12]
 8003a36:	9b03      	ldr	r3, [sp, #12]
 8003a38:	4298      	cmp	r0, r3
 8003a3a:	bfb8      	it	lt
 8003a3c:	4618      	movlt	r0, r3
 8003a3e:	e7a4      	b.n	800398a <_printf_i+0x16a>
 8003a40:	2301      	movs	r3, #1
 8003a42:	4632      	mov	r2, r6
 8003a44:	4649      	mov	r1, r9
 8003a46:	4640      	mov	r0, r8
 8003a48:	47d0      	blx	sl
 8003a4a:	3001      	adds	r0, #1
 8003a4c:	d09b      	beq.n	8003986 <_printf_i+0x166>
 8003a4e:	3501      	adds	r5, #1
 8003a50:	68e3      	ldr	r3, [r4, #12]
 8003a52:	9903      	ldr	r1, [sp, #12]
 8003a54:	1a5b      	subs	r3, r3, r1
 8003a56:	42ab      	cmp	r3, r5
 8003a58:	dcf2      	bgt.n	8003a40 <_printf_i+0x220>
 8003a5a:	e7eb      	b.n	8003a34 <_printf_i+0x214>
 8003a5c:	2500      	movs	r5, #0
 8003a5e:	f104 0619 	add.w	r6, r4, #25
 8003a62:	e7f5      	b.n	8003a50 <_printf_i+0x230>
 8003a64:	08007a6a 	.word	0x08007a6a
 8003a68:	08007a7b 	.word	0x08007a7b

08003a6c <_scanf_float>:
 8003a6c:	e92d 4ff0 	stmdb	sp!, {r4, r5, r6, r7, r8, r9, sl, fp, lr}
 8003a70:	b087      	sub	sp, #28
 8003a72:	9303      	str	r3, [sp, #12]
 8003a74:	688b      	ldr	r3, [r1, #8]
 8003a76:	4617      	mov	r7, r2
 8003a78:	1e5a      	subs	r2, r3, #1
 8003a7a:	f5b2 7fae 	cmp.w	r2, #348	; 0x15c
 8003a7e:	bf85      	ittet	hi
 8003a80:	f46f 75ae 	mvnhi.w	r5, #348	; 0x15c
 8003a84:	195b      	addhi	r3, r3, r5
 8003a86:	2300      	movls	r3, #0
 8003a88:	9302      	strhi	r3, [sp, #8]
 8003a8a:	bf88      	it	hi
 8003a8c:	f240 135d 	movwhi	r3, #349	; 0x15d
 8003a90:	468b      	mov	fp, r1
 8003a92:	f04f 0500 	mov.w	r5, #0
 8003a96:	bf8c      	ite	hi
 8003a98:	608b      	strhi	r3, [r1, #8]
 8003a9a:	9302      	strls	r3, [sp, #8]
 8003a9c:	680b      	ldr	r3, [r1, #0]
 8003a9e:	4680      	mov	r8, r0
 8003aa0:	f443 63f0 	orr.w	r3, r3, #1920	; 0x780
 8003aa4:	f84b 3b1c 	str.w	r3, [fp], #28
 8003aa8:	460c      	mov	r4, r1
 8003aaa:	465e      	mov	r6, fp
 8003aac:	46aa      	mov	sl, r5
 8003aae:	46a9      	mov	r9, r5
 8003ab0:	e9cd 5504 	strd	r5, r5, [sp, #16]
 8003ab4:	9501      	str	r5, [sp, #4]
 8003ab6:	68a2      	ldr	r2, [r4, #8]
 8003ab8:	b152      	cbz	r2, 8003ad0 <_scanf_float+0x64>
 8003aba:	683b      	ldr	r3, [r7, #0]
 8003abc:	781b      	ldrb	r3, [r3, #0]
 8003abe:	2b4e      	cmp	r3, #78	; 0x4e
 8003ac0:	d864      	bhi.n	8003b8c <_scanf_float+0x120>
 8003ac2:	2b40      	cmp	r3, #64	; 0x40
 8003ac4:	d83c      	bhi.n	8003b40 <_scanf_float+0xd4>
 8003ac6:	f1a3 012b 	sub.w	r1, r3, #43	; 0x2b
 8003aca:	b2c8      	uxtb	r0, r1
 8003acc:	280e      	cmp	r0, #14
 8003ace:	d93a      	bls.n	8003b46 <_scanf_float+0xda>
 8003ad0:	f1b9 0f00 	cmp.w	r9, #0
 8003ad4:	d003      	beq.n	8003ade <_scanf_float+0x72>
 8003ad6:	6823      	ldr	r3, [r4, #0]
 8003ad8:	f423 7380 	bic.w	r3, r3, #256	; 0x100
 8003adc:	6023      	str	r3, [r4, #0]
 8003ade:	f10a 3aff 	add.w	sl, sl, #4294967295
 8003ae2:	f1ba 0f01 	cmp.w	sl, #1
 8003ae6:	f200 8113 	bhi.w	8003d10 <_scanf_float+0x2a4>
 8003aea:	455e      	cmp	r6, fp
 8003aec:	f200 8105 	bhi.w	8003cfa <_scanf_float+0x28e>
 8003af0:	2501      	movs	r5, #1
 8003af2:	4628      	mov	r0, r5
 8003af4:	b007      	add	sp, #28
 8003af6:	e8bd 8ff0 	ldmia.w	sp!, {r4, r5, r6, r7, r8, r9, sl, fp, pc}
 8003afa:	f1a3 0261 	sub.w	r2, r3, #97	; 0x61
 8003afe:	2a0d      	cmp	r2, #13
 8003b00:	d8e6      	bhi.n	8003ad0 <_scanf_float+0x64>
 8003b02:	a101      	add	r1, pc, #4	; (adr r1, 8003b08 <_scanf_float+0x9c>)
 8003b04:	f851 f022 	ldr.w	pc, [r1, r2, lsl #2]
 8003b08:	08003c47 	.word	0x08003c47
 8003b0c:	08003ad1 	.word	0x08003ad1
 8003b10:	08003ad1 	.word	0x08003ad1
 8003b14:	08003ad1 	.word	0x08003ad1
 8003b18:	08003ca7 	.word	0x08003ca7
 8003b1c:	08003c7f 	.word	0x08003c7f
 8003b20:	08003ad1 	.word	0x08003ad1
 8003b24:	08003ad1 	.word	0x08003ad1
 8003b28:	08003c55 	.word	0x08003c55
 8003b2c:	08003ad1 	.word	0x08003ad1
 8003b30:	08003ad1 	.word	0x08003ad1
 8003b34:	08003ad1 	.word	0x08003ad1
 8003b38:	08003ad1 	.word	0x08003ad1
 8003b3c:	08003c0d 	.word	0x08003c0d
 8003b40:	f1a3 0241 	sub.w	r2, r3, #65	; 0x41
 8003b44:	e7db      	b.n	8003afe <_scanf_float+0x92>
 8003b46:	290e      	cmp	r1, #14
 8003b48:	d8c2      	bhi.n	8003ad0 <_scanf_float+0x64>
 8003b4a:	a001      	add	r0, pc, #4	; (adr r0, 8003b50 <_scanf_float+0xe4>)
 8003b4c:	f850 f021 	ldr.w	pc, [r0, r1, lsl #2]
 8003b50:	08003bff 	.word	0x08003bff
 8003b54:	08003ad1 	.word	0x08003ad1
 8003b58:	08003bff 	.word	0x08003bff
 8003b5c:	08003c93 	.word	0x08003c93
 8003b60:	08003ad1 	.word	0x08003ad1
 8003b64:	08003bad 	.word	0x08003bad
 8003b68:	08003be9 	.word	0x08003be9
 8003b6c:	08003be9 	.word	0x08003be9
 8003b70:	08003be9 	.word	0x08003be9
 8003b74:	08003be9 	.word	0x08003be9
 8003b78:	08003be9 	.word	0x08003be9
 8003b7c:	08003be9 	.word	0x08003be9
 8003b80:	08003be9 	.word	0x08003be9
 8003b84:	08003be9 	.word	0x08003be9
 8003b88:	08003be9 	.word	0x08003be9
 8003b8c:	2b6e      	cmp	r3, #110	; 0x6e
 8003b8e:	d809      	bhi.n	8003ba4 <_scanf_float+0x138>
 8003b90:	2b60      	cmp	r3, #96	; 0x60
 8003b92:	d8b2      	bhi.n	8003afa <_scanf_float+0x8e>
 8003b94:	2b54      	cmp	r3, #84	; 0x54
 8003b96:	d077      	beq.n	8003c88 <_scanf_float+0x21c>
 8003b98:	2b59      	cmp	r3, #89	; 0x59
 8003b9a:	d199      	bne.n	8003ad0 <_scanf_float+0x64>
 8003b9c:	2d07      	cmp	r5, #7
 8003b9e:	d197      	bne.n	8003ad0 <_scanf_float+0x64>
 8003ba0:	2508      	movs	r5, #8
 8003ba2:	e029      	b.n	8003bf8 <_scanf_float+0x18c>
 8003ba4:	2b74      	cmp	r3, #116	; 0x74
 8003ba6:	d06f      	beq.n	8003c88 <_scanf_float+0x21c>
 8003ba8:	2b79      	cmp	r3, #121	; 0x79
 8003baa:	e7f6      	b.n	8003b9a <_scanf_float+0x12e>
 8003bac:	6821      	ldr	r1, [r4, #0]
 8003bae:	05c8      	lsls	r0, r1, #23
 8003bb0:	d51a      	bpl.n	8003be8 <_scanf_float+0x17c>
 8003bb2:	9b02      	ldr	r3, [sp, #8]
 8003bb4:	f021 0180 	bic.w	r1, r1, #128	; 0x80
 8003bb8:	6021      	str	r1, [r4, #0]
 8003bba:	f109 0901 	add.w	r9, r9, #1
 8003bbe:	b11b      	cbz	r3, 8003bc8 <_scanf_float+0x15c>
 8003bc0:	3b01      	subs	r3, #1
 8003bc2:	3201      	adds	r2, #1
 8003bc4:	9302      	str	r3, [sp, #8]
 8003bc6:	60a2      	str	r2, [r4, #8]
 8003bc8:	68a3      	ldr	r3, [r4, #8]
 8003bca:	3b01      	subs	r3, #1
 8003bcc:	60a3      	str	r3, [r4, #8]
 8003bce:	6923      	ldr	r3, [r4, #16]
 8003bd0:	3301      	adds	r3, #1
 8003bd2:	6123      	str	r3, [r4, #16]
 8003bd4:	687b      	ldr	r3, [r7, #4]
 8003bd6:	3b01      	subs	r3, #1
 8003bd8:	2b00      	cmp	r3, #0
 8003bda:	607b      	str	r3, [r7, #4]
 8003bdc:	f340 8084 	ble.w	8003ce8 <_scanf_float+0x27c>
 8003be0:	683b      	ldr	r3, [r7, #0]
 8003be2:	3301      	adds	r3, #1
 8003be4:	603b      	str	r3, [r7, #0]
 8003be6:	e766      	b.n	8003ab6 <_scanf_float+0x4a>
 8003be8:	eb1a 0f05 	cmn.w	sl, r5
 8003bec:	f47f af70 	bne.w	8003ad0 <_scanf_float+0x64>
 8003bf0:	6822      	ldr	r2, [r4, #0]
 8003bf2:	f422 72c0 	bic.w	r2, r2, #384	; 0x180
 8003bf6:	6022      	str	r2, [r4, #0]
 8003bf8:	f806 3b01 	strb.w	r3, [r6], #1
 8003bfc:	e7e4      	b.n	8003bc8 <_scanf_float+0x15c>
 8003bfe:	6822      	ldr	r2, [r4, #0]
 8003c00:	0610      	lsls	r0, r2, #24
 8003c02:	f57f af65 	bpl.w	8003ad0 <_scanf_float+0x64>
 8003c06:	f022 0280 	bic.w	r2, r2, #128	; 0x80
 8003c0a:	e7f4      	b.n	8003bf6 <_scanf_float+0x18a>
 8003c0c:	f1ba 0f00 	cmp.w	sl, #0
 8003c10:	d10e      	bne.n	8003c30 <_scanf_float+0x1c4>
 8003c12:	f1b9 0f00 	cmp.w	r9, #0
 8003c16:	d10e      	bne.n	8003c36 <_scanf_float+0x1ca>
 8003c18:	6822      	ldr	r2, [r4, #0]
 8003c1a:	f402 61e0 	and.w	r1, r2, #1792	; 0x700
 8003c1e:	f5b1 6fe0 	cmp.w	r1, #1792	; 0x700
 8003c22:	d108      	bne.n	8003c36 <_scanf_float+0x1ca>
 8003c24:	f422 62f0 	bic.w	r2, r2, #1920	; 0x780
 8003c28:	f04f 0a01 	mov.w	sl, #1
 8003c2c:	6022      	str	r2, [r4, #0]
 8003c2e:	e7e3      	b.n	8003bf8 <_scanf_float+0x18c>
 8003c30:	f1ba 0f02 	cmp.w	sl, #2
 8003c34:	d055      	beq.n	8003ce2 <_scanf_float+0x276>
 8003c36:	2d01      	cmp	r5, #1
 8003c38:	d002      	beq.n	8003c40 <_scanf_float+0x1d4>
 8003c3a:	2d04      	cmp	r5, #4
 8003c3c:	f47f af48 	bne.w	8003ad0 <_scanf_float+0x64>
 8003c40:	3501      	adds	r5, #1
 8003c42:	b2ed      	uxtb	r5, r5
 8003c44:	e7d8      	b.n	8003bf8 <_scanf_float+0x18c>
 8003c46:	f1ba 0f01 	cmp.w	sl, #1
 8003c4a:	f47f af41 	bne.w	8003ad0 <_scanf_float+0x64>
 8003c4e:	f04f 0a02 	mov.w	sl, #2
 8003c52:	e7d1      	b.n	8003bf8 <_scanf_float+0x18c>
 8003c54:	b97d      	cbnz	r5, 8003c76 <_scanf_float+0x20a>
 8003c56:	f1b9 0f00 	cmp.w	r9, #0
 8003c5a:	f47f af3c 	bne.w	8003ad6 <_scanf_float+0x6a>
 8003c5e:	6822      	ldr	r2, [r4, #0]
 8003c60:	f402 61e0 	and.w	r1, r2, #1792	; 0x700
 8003c64:	f5b1 6fe0 	cmp.w	r1, #1792	; 0x700
 8003c68:	f47f af39 	bne.w	8003ade <_scanf_float+0x72>
 8003c6c:	f422 62f0 	bic.w	r2, r2, #1920	; 0x780
 8003c70:	2501      	movs	r5, #1
 8003c72:	6022      	str	r2, [r4, #0]
 8003c74:	e7c0      	b.n	8003bf8 <_scanf_float+0x18c>
 8003c76:	2d03      	cmp	r5, #3
 8003c78:	d0e2      	beq.n	8003c40 <_scanf_float+0x1d4>
 8003c7a:	2d05      	cmp	r5, #5
 8003c7c:	e7de      	b.n	8003c3c <_scanf_float+0x1d0>
 8003c7e:	2d02      	cmp	r5, #2
 8003c80:	f47f af26 	bne.w	8003ad0 <_scanf_float+0x64>
 8003c84:	2503      	movs	r5, #3
 8003c86:	e7b7      	b.n	8003bf8 <_scanf_float+0x18c>
 8003c88:	2d06      	cmp	r5, #6
 8003c8a:	f47f af21 	bne.w	8003ad0 <_scanf_float+0x64>
 8003c8e:	2507      	movs	r5, #7
 8003c90:	e7b2      	b.n	8003bf8 <_scanf_float+0x18c>
 8003c92:	6822      	ldr	r2, [r4, #0]
 8003c94:	0591      	lsls	r1, r2, #22
 8003c96:	f57f af1b 	bpl.w	8003ad0 <_scanf_float+0x64>
 8003c9a:	f422 7220 	bic.w	r2, r2, #640	; 0x280
 8003c9e:	6022      	str	r2, [r4, #0]
 8003ca0:	f8cd 9004 	str.w	r9, [sp, #4]
 8003ca4:	e7a8      	b.n	8003bf8 <_scanf_float+0x18c>
 8003ca6:	6822      	ldr	r2, [r4, #0]
 8003ca8:	f402 61a0 	and.w	r1, r2, #1280	; 0x500
 8003cac:	f5b1 6f80 	cmp.w	r1, #1024	; 0x400
 8003cb0:	d006      	beq.n	8003cc0 <_scanf_float+0x254>
 8003cb2:	0550      	lsls	r0, r2, #21
 8003cb4:	f57f af0c 	bpl.w	8003ad0 <_scanf_float+0x64>
 8003cb8:	f1b9 0f00 	cmp.w	r9, #0
 8003cbc:	f43f af0f 	beq.w	8003ade <_scanf_float+0x72>
 8003cc0:	0591      	lsls	r1, r2, #22
 8003cc2:	bf58      	it	pl
 8003cc4:	9901      	ldrpl	r1, [sp, #4]
 8003cc6:	f422 62f0 	bic.w	r2, r2, #1920	; 0x780
 8003cca:	bf58      	it	pl
 8003ccc:	eba9 0101 	subpl.w	r1, r9, r1
 8003cd0:	f442 72c0 	orr.w	r2, r2, #384	; 0x180
 8003cd4:	f04f 0900 	mov.w	r9, #0
 8003cd8:	bf58      	it	pl
 8003cda:	e9cd 1604 	strdpl	r1, r6, [sp, #16]
 8003cde:	6022      	str	r2, [r4, #0]
 8003ce0:	e78a      	b.n	8003bf8 <_scanf_float+0x18c>
 8003ce2:	f04f 0a03 	mov.w	sl, #3
 8003ce6:	e787      	b.n	8003bf8 <_scanf_float+0x18c>
 8003ce8:	4639      	mov	r1, r7
 8003cea:	4640      	mov	r0, r8
 8003cec:	f8d4 3180 	ldr.w	r3, [r4, #384]	; 0x180
 8003cf0:	4798      	blx	r3
 8003cf2:	2800      	cmp	r0, #0
 8003cf4:	f43f aedf 	beq.w	8003ab6 <_scanf_float+0x4a>
 8003cf8:	e6ea      	b.n	8003ad0 <_scanf_float+0x64>
 8003cfa:	f8d4 317c 	ldr.w	r3, [r4, #380]	; 0x17c
 8003cfe:	463a      	mov	r2, r7
 8003d00:	4640      	mov	r0, r8
 8003d02:	f816 1d01 	ldrb.w	r1, [r6, #-1]!
 8003d06:	4798      	blx	r3
 8003d08:	6923      	ldr	r3, [r4, #16]
 8003d0a:	3b01      	subs	r3, #1
 8003d0c:	6123      	str	r3, [r4, #16]
 8003d0e:	e6ec      	b.n	8003aea <_scanf_float+0x7e>
 8003d10:	1e6b      	subs	r3, r5, #1
 8003d12:	2b06      	cmp	r3, #6
 8003d14:	d825      	bhi.n	8003d62 <_scanf_float+0x2f6>
 8003d16:	2d02      	cmp	r5, #2
 8003d18:	d836      	bhi.n	8003d88 <_scanf_float+0x31c>
 8003d1a:	455e      	cmp	r6, fp
 8003d1c:	f67f aee8 	bls.w	8003af0 <_scanf_float+0x84>
 8003d20:	f8d4 317c 	ldr.w	r3, [r4, #380]	; 0x17c
 8003d24:	463a      	mov	r2, r7
 8003d26:	4640      	mov	r0, r8
 8003d28:	f816 1d01 	ldrb.w	r1, [r6, #-1]!
 8003d2c:	4798      	blx	r3
 8003d2e:	6923      	ldr	r3, [r4, #16]
 8003d30:	3b01      	subs	r3, #1
 8003d32:	6123      	str	r3, [r4, #16]
 8003d34:	e7f1      	b.n	8003d1a <_scanf_float+0x2ae>
 8003d36:	9802      	ldr	r0, [sp, #8]
 8003d38:	f8d4 317c 	ldr.w	r3, [r4, #380]	; 0x17c
 8003d3c:	f810 1d01 	ldrb.w	r1, [r0, #-1]!
 8003d40:	463a      	mov	r2, r7
 8003d42:	9002      	str	r0, [sp, #8]
 8003d44:	4640      	mov	r0, r8
 8003d46:	4798      	blx	r3
 8003d48:	6923      	ldr	r3, [r4, #16]
 8003d4a:	3b01      	subs	r3, #1
 8003d4c:	6123      	str	r3, [r4, #16]
 8003d4e:	f10a 3aff 	add.w	sl, sl, #4294967295
 8003d52:	fa5f fa8a 	uxtb.w	sl, sl
 8003d56:	f1ba 0f02 	cmp.w	sl, #2
 8003d5a:	d1ec      	bne.n	8003d36 <_scanf_float+0x2ca>
 8003d5c:	3d03      	subs	r5, #3
 8003d5e:	b2ed      	uxtb	r5, r5
 8003d60:	1b76      	subs	r6, r6, r5
 8003d62:	6823      	ldr	r3, [r4, #0]
 8003d64:	05da      	lsls	r2, r3, #23
 8003d66:	d52f      	bpl.n	8003dc8 <_scanf_float+0x35c>
 8003d68:	055b      	lsls	r3, r3, #21
 8003d6a:	d510      	bpl.n	8003d8e <_scanf_float+0x322>
 8003d6c:	455e      	cmp	r6, fp
 8003d6e:	f67f aebf 	bls.w	8003af0 <_scanf_float+0x84>
 8003d72:	f8d4 317c 	ldr.w	r3, [r4, #380]	; 0x17c
 8003d76:	463a      	mov	r2, r7
 8003d78:	4640      	mov	r0, r8
 8003d7a:	f816 1d01 	ldrb.w	r1, [r6, #-1]!
 8003d7e:	4798      	blx	r3
 8003d80:	6923      	ldr	r3, [r4, #16]
 8003d82:	3b01      	subs	r3, #1
 8003d84:	6123      	str	r3, [r4, #16]
 8003d86:	e7f1      	b.n	8003d6c <_scanf_float+0x300>
 8003d88:	46aa      	mov	sl, r5
 8003d8a:	9602      	str	r6, [sp, #8]
 8003d8c:	e7df      	b.n	8003d4e <_scanf_float+0x2e2>
 8003d8e:	f816 1c01 	ldrb.w	r1, [r6, #-1]
 8003d92:	6923      	ldr	r3, [r4, #16]
 8003d94:	2965      	cmp	r1, #101	; 0x65
 8003d96:	f103 33ff 	add.w	r3, r3, #4294967295
 8003d9a:	f106 35ff 	add.w	r5, r6, #4294967295
 8003d9e:	6123      	str	r3, [r4, #16]
 8003da0:	d00c      	beq.n	8003dbc <_scanf_float+0x350>
 8003da2:	2945      	cmp	r1, #69	; 0x45
 8003da4:	d00a      	beq.n	8003dbc <_scanf_float+0x350>
 8003da6:	f8d4 317c 	ldr.w	r3, [r4, #380]	; 0x17c
 8003daa:	463a      	mov	r2, r7
 8003dac:	4640      	mov	r0, r8
 8003dae:	4798      	blx	r3
 8003db0:	6923      	ldr	r3, [r4, #16]
 8003db2:	f816 1c02 	ldrb.w	r1, [r6, #-2]
 8003db6:	3b01      	subs	r3, #1
 8003db8:	1eb5      	subs	r5, r6, #2
 8003dba:	6123      	str	r3, [r4, #16]
 8003dbc:	463a      	mov	r2, r7
 8003dbe:	4640      	mov	r0, r8
 8003dc0:	f8d4 317c 	ldr.w	r3, [r4, #380]	; 0x17c
 8003dc4:	4798      	blx	r3
 8003dc6:	462e      	mov	r6, r5
 8003dc8:	6825      	ldr	r5, [r4, #0]
 8003dca:	f015 0510 	ands.w	r5, r5, #16
 8003dce:	d155      	bne.n	8003e7c <_scanf_float+0x410>
 8003dd0:	7035      	strb	r5, [r6, #0]
 8003dd2:	6823      	ldr	r3, [r4, #0]
 8003dd4:	f403 63c0 	and.w	r3, r3, #1536	; 0x600
 8003dd8:	f5b3 6f80 	cmp.w	r3, #1024	; 0x400
 8003ddc:	d11b      	bne.n	8003e16 <_scanf_float+0x3aa>
 8003dde:	9b01      	ldr	r3, [sp, #4]
 8003de0:	454b      	cmp	r3, r9
 8003de2:	eba3 0209 	sub.w	r2, r3, r9
 8003de6:	d123      	bne.n	8003e30 <_scanf_float+0x3c4>
 8003de8:	2200      	movs	r2, #0
 8003dea:	4659      	mov	r1, fp
 8003dec:	4640      	mov	r0, r8
 8003dee:	f000 fe7b 	bl	8004ae8 <_strtod_r>
 8003df2:	6822      	ldr	r2, [r4, #0]
 8003df4:	9b03      	ldr	r3, [sp, #12]
 8003df6:	f012 0f02 	tst.w	r2, #2
 8003dfa:	4606      	mov	r6, r0
 8003dfc:	460f      	mov	r7, r1
 8003dfe:	681b      	ldr	r3, [r3, #0]
 8003e00:	d021      	beq.n	8003e46 <_scanf_float+0x3da>
 8003e02:	1d1a      	adds	r2, r3, #4
 8003e04:	9903      	ldr	r1, [sp, #12]
 8003e06:	600a      	str	r2, [r1, #0]
 8003e08:	681b      	ldr	r3, [r3, #0]
 8003e0a:	e9c3 6700 	strd	r6, r7, [r3]
 8003e0e:	68e3      	ldr	r3, [r4, #12]
 8003e10:	3301      	adds	r3, #1
 8003e12:	60e3      	str	r3, [r4, #12]
 8003e14:	e66d      	b.n	8003af2 <_scanf_float+0x86>
 8003e16:	9b04      	ldr	r3, [sp, #16]
 8003e18:	2b00      	cmp	r3, #0
 8003e1a:	d0e5      	beq.n	8003de8 <_scanf_float+0x37c>
 8003e1c:	9905      	ldr	r1, [sp, #20]
 8003e1e:	230a      	movs	r3, #10
 8003e20:	462a      	mov	r2, r5
 8003e22:	4640      	mov	r0, r8
 8003e24:	3101      	adds	r1, #1
 8003e26:	f000 fee1 	bl	8004bec <_strtol_r>
 8003e2a:	9b04      	ldr	r3, [sp, #16]
 8003e2c:	9e05      	ldr	r6, [sp, #20]
 8003e2e:	1ac2      	subs	r2, r0, r3
 8003e30:	f204 136f 	addw	r3, r4, #367	; 0x16f
 8003e34:	429e      	cmp	r6, r3
 8003e36:	bf28      	it	cs
 8003e38:	f504 76b7 	addcs.w	r6, r4, #366	; 0x16e
 8003e3c:	4630      	mov	r0, r6
 8003e3e:	4910      	ldr	r1, [pc, #64]	; (8003e80 <_scanf_float+0x414>)
 8003e40:	f000 f826 	bl	8003e90 <siprintf>
 8003e44:	e7d0      	b.n	8003de8 <_scanf_float+0x37c>
 8003e46:	f012 0f04 	tst.w	r2, #4
 8003e4a:	f103 0204 	add.w	r2, r3, #4
 8003e4e:	d1d9      	bne.n	8003e04 <_scanf_float+0x398>
 8003e50:	f8dd c00c 	ldr.w	ip, [sp, #12]
 8003e54:	f8cc 2000 	str.w	r2, [ip]
 8003e58:	f8d3 8000 	ldr.w	r8, [r3]
 8003e5c:	4602      	mov	r2, r0
 8003e5e:	460b      	mov	r3, r1
 8003e60:	f7fc fdd4 	bl	8000a0c <__aeabi_dcmpun>
 8003e64:	b128      	cbz	r0, 8003e72 <_scanf_float+0x406>
 8003e66:	4807      	ldr	r0, [pc, #28]	; (8003e84 <_scanf_float+0x418>)
 8003e68:	f000 f80e 	bl	8003e88 <nanf>
 8003e6c:	f8c8 0000 	str.w	r0, [r8]
 8003e70:	e7cd      	b.n	8003e0e <_scanf_float+0x3a2>
 8003e72:	4630      	mov	r0, r6
 8003e74:	4639      	mov	r1, r7
 8003e76:	f7fc fe27 	bl	8000ac8 <__aeabi_d2f>
 8003e7a:	e7f7      	b.n	8003e6c <_scanf_float+0x400>
 8003e7c:	2500      	movs	r5, #0
 8003e7e:	e638      	b.n	8003af2 <_scanf_float+0x86>
 8003e80:	08007a8c 	.word	0x08007a8c
 8003e84:	08007e98 	.word	0x08007e98

08003e88 <nanf>:
 8003e88:	4800      	ldr	r0, [pc, #0]	; (8003e8c <nanf+0x4>)
 8003e8a:	4770      	bx	lr
 8003e8c:	7fc00000 	.word	0x7fc00000

08003e90 <siprintf>:
 8003e90:	b40e      	push	{r1, r2, r3}
 8003e92:	f06f 4100 	mvn.w	r1, #2147483648	; 0x80000000
 8003e96:	b500      	push	{lr}
 8003e98:	b09c      	sub	sp, #112	; 0x70
 8003e9a:	ab1d      	add	r3, sp, #116	; 0x74
 8003e9c:	9002      	str	r0, [sp, #8]
 8003e9e:	9006      	str	r0, [sp, #24]
 8003ea0:	9107      	str	r1, [sp, #28]
 8003ea2:	9104      	str	r1, [sp, #16]
 8003ea4:	4808      	ldr	r0, [pc, #32]	; (8003ec8 <siprintf+0x38>)
 8003ea6:	4909      	ldr	r1, [pc, #36]	; (8003ecc <siprintf+0x3c>)
 8003ea8:	f853 2b04 	ldr.w	r2, [r3], #4
 8003eac:	9105      	str	r1, [sp, #20]
 8003eae:	6800      	ldr	r0, [r0, #0]
 8003eb0:	a902      	add	r1, sp, #8
 8003eb2:	9301      	str	r3, [sp, #4]
 8003eb4:	f002 feba 	bl	8006c2c <_svfiprintf_r>
 8003eb8:	2200      	movs	r2, #0
 8003eba:	9b02      	ldr	r3, [sp, #8]
 8003ebc:	701a      	strb	r2, [r3, #0]
 8003ebe:	b01c      	add	sp, #112	; 0x70
 8003ec0:	f85d eb04 	ldr.w	lr, [sp], #4
 8003ec4:	b003      	add	sp, #12
 8003ec6:	4770      	bx	lr
 8003ec8:	2000001c 	.word	0x2000001c
 8003ecc:	ffff0208 	.word	0xffff0208

08003ed0 <sulp>:
 8003ed0:	e92d 41f0 	stmdb	sp!, {r4, r5, r6, r7, r8, lr}
 8003ed4:	460f      	mov	r7, r1
 8003ed6:	4690      	mov	r8, r2
 8003ed8:	f002 fc14 	bl	8006704 <__ulp>
 8003edc:	4604      	mov	r4, r0
 8003ede:	460d      	mov	r5, r1
 8003ee0:	f1b8 0f00 	cmp.w	r8, #0
 8003ee4:	d011      	beq.n	8003f0a <sulp+0x3a>
 8003ee6:	f3c7 530a 	ubfx	r3, r7, #20, #11
 8003eea:	f1c3 036b 	rsb	r3, r3, #107	; 0x6b
 8003eee:	2b00      	cmp	r3, #0
 8003ef0:	dd0b      	ble.n	8003f0a <sulp+0x3a>
 8003ef2:	2400      	movs	r4, #0
 8003ef4:	051b      	lsls	r3, r3, #20
 8003ef6:	f103 557f 	add.w	r5, r3, #1069547520	; 0x3fc00000
 8003efa:	f505 1540 	add.w	r5, r5, #3145728	; 0x300000
 8003efe:	4622      	mov	r2, r4
 8003f00:	462b      	mov	r3, r5
 8003f02:	f7fc fae9 	bl	80004d8 <__aeabi_dmul>
 8003f06:	4604      	mov	r4, r0
 8003f08:	460d      	mov	r5, r1
 8003f0a:	4620      	mov	r0, r4
 8003f0c:	4629      	mov	r1, r5
 8003f0e:	e8bd 81f0 	ldmia.w	sp!, {r4, r5, r6, r7, r8, pc}
 8003f12:	0000      	movs	r0, r0
 8003f14:	0000      	movs	r0, r0
	...

08003f18 <_strtod_l>:
 8003f18:	e92d 4ff0 	stmdb	sp!, {r4, r5, r6, r7, r8, r9, sl, fp, lr}
 8003f1c:	469b      	mov	fp, r3
 8003f1e:	2300      	movs	r3, #0
 8003f20:	b09f      	sub	sp, #124	; 0x7c
 8003f22:	931a      	str	r3, [sp, #104]	; 0x68
 8003f24:	4b9e      	ldr	r3, [pc, #632]	; (80041a0 <_strtod_l+0x288>)
 8003f26:	4682      	mov	sl, r0
 8003f28:	681f      	ldr	r7, [r3, #0]
 8003f2a:	460e      	mov	r6, r1
 8003f2c:	4638      	mov	r0, r7
 8003f2e:	9215      	str	r2, [sp, #84]	; 0x54
 8003f30:	f7fc f90e 	bl	8000150 <strlen>
 8003f34:	f04f 0800 	mov.w	r8, #0
 8003f38:	4604      	mov	r4, r0
 8003f3a:	f04f 0900 	mov.w	r9, #0
 8003f3e:	9619      	str	r6, [sp, #100]	; 0x64
 8003f40:	9b19      	ldr	r3, [sp, #100]	; 0x64
 8003f42:	781a      	ldrb	r2, [r3, #0]
 8003f44:	2a2b      	cmp	r2, #43	; 0x2b
 8003f46:	d04c      	beq.n	8003fe2 <_strtod_l+0xca>
 8003f48:	d83a      	bhi.n	8003fc0 <_strtod_l+0xa8>
 8003f4a:	2a0d      	cmp	r2, #13
 8003f4c:	d833      	bhi.n	8003fb6 <_strtod_l+0x9e>
 8003f4e:	2a08      	cmp	r2, #8
 8003f50:	d833      	bhi.n	8003fba <_strtod_l+0xa2>
 8003f52:	2a00      	cmp	r2, #0
 8003f54:	d03d      	beq.n	8003fd2 <_strtod_l+0xba>
 8003f56:	2300      	movs	r3, #0
 8003f58:	930a      	str	r3, [sp, #40]	; 0x28
 8003f5a:	9d19      	ldr	r5, [sp, #100]	; 0x64
 8003f5c:	782b      	ldrb	r3, [r5, #0]
 8003f5e:	2b30      	cmp	r3, #48	; 0x30
 8003f60:	f040 80aa 	bne.w	80040b8 <_strtod_l+0x1a0>
 8003f64:	786b      	ldrb	r3, [r5, #1]
 8003f66:	f003 03df 	and.w	r3, r3, #223	; 0xdf
 8003f6a:	2b58      	cmp	r3, #88	; 0x58
 8003f6c:	d166      	bne.n	800403c <_strtod_l+0x124>
 8003f6e:	9b0a      	ldr	r3, [sp, #40]	; 0x28
 8003f70:	4650      	mov	r0, sl
 8003f72:	9301      	str	r3, [sp, #4]
 8003f74:	ab1a      	add	r3, sp, #104	; 0x68
 8003f76:	9300      	str	r3, [sp, #0]
 8003f78:	4a8a      	ldr	r2, [pc, #552]	; (80041a4 <_strtod_l+0x28c>)
 8003f7a:	f8cd b008 	str.w	fp, [sp, #8]
 8003f7e:	ab1b      	add	r3, sp, #108	; 0x6c
 8003f80:	a919      	add	r1, sp, #100	; 0x64
 8003f82:	f001 fd17 	bl	80059b4 <__gethex>
 8003f86:	f010 0607 	ands.w	r6, r0, #7
 8003f8a:	4604      	mov	r4, r0
 8003f8c:	d005      	beq.n	8003f9a <_strtod_l+0x82>
 8003f8e:	2e06      	cmp	r6, #6
 8003f90:	d129      	bne.n	8003fe6 <_strtod_l+0xce>
 8003f92:	2300      	movs	r3, #0
 8003f94:	3501      	adds	r5, #1
 8003f96:	9519      	str	r5, [sp, #100]	; 0x64
 8003f98:	930a      	str	r3, [sp, #40]	; 0x28
 8003f9a:	9b15      	ldr	r3, [sp, #84]	; 0x54
 8003f9c:	2b00      	cmp	r3, #0
 8003f9e:	f040 858a 	bne.w	8004ab6 <_strtod_l+0xb9e>
 8003fa2:	9b0a      	ldr	r3, [sp, #40]	; 0x28
 8003fa4:	b1d3      	cbz	r3, 8003fdc <_strtod_l+0xc4>
 8003fa6:	4642      	mov	r2, r8
 8003fa8:	f109 4300 	add.w	r3, r9, #2147483648	; 0x80000000
 8003fac:	4610      	mov	r0, r2
 8003fae:	4619      	mov	r1, r3
 8003fb0:	b01f      	add	sp, #124	; 0x7c
 8003fb2:	e8bd 8ff0 	ldmia.w	sp!, {r4, r5, r6, r7, r8, r9, sl, fp, pc}
 8003fb6:	2a20      	cmp	r2, #32
 8003fb8:	d1cd      	bne.n	8003f56 <_strtod_l+0x3e>
 8003fba:	3301      	adds	r3, #1
 8003fbc:	9319      	str	r3, [sp, #100]	; 0x64
 8003fbe:	e7bf      	b.n	8003f40 <_strtod_l+0x28>
 8003fc0:	2a2d      	cmp	r2, #45	; 0x2d
 8003fc2:	d1c8      	bne.n	8003f56 <_strtod_l+0x3e>
 8003fc4:	2201      	movs	r2, #1
 8003fc6:	920a      	str	r2, [sp, #40]	; 0x28
 8003fc8:	1c5a      	adds	r2, r3, #1
 8003fca:	9219      	str	r2, [sp, #100]	; 0x64
 8003fcc:	785b      	ldrb	r3, [r3, #1]
 8003fce:	2b00      	cmp	r3, #0
 8003fd0:	d1c3      	bne.n	8003f5a <_strtod_l+0x42>
 8003fd2:	9b15      	ldr	r3, [sp, #84]	; 0x54
 8003fd4:	9619      	str	r6, [sp, #100]	; 0x64
 8003fd6:	2b00      	cmp	r3, #0
 8003fd8:	f040 856b 	bne.w	8004ab2 <_strtod_l+0xb9a>
 8003fdc:	4642      	mov	r2, r8
 8003fde:	464b      	mov	r3, r9
 8003fe0:	e7e4      	b.n	8003fac <_strtod_l+0x94>
 8003fe2:	2200      	movs	r2, #0
 8003fe4:	e7ef      	b.n	8003fc6 <_strtod_l+0xae>
 8003fe6:	9a1a      	ldr	r2, [sp, #104]	; 0x68
 8003fe8:	b13a      	cbz	r2, 8003ffa <_strtod_l+0xe2>
 8003fea:	2135      	movs	r1, #53	; 0x35
 8003fec:	a81c      	add	r0, sp, #112	; 0x70
 8003fee:	f002 fc8d 	bl	800690c <__copybits>
 8003ff2:	4650      	mov	r0, sl
 8003ff4:	991a      	ldr	r1, [sp, #104]	; 0x68
 8003ff6:	f002 f855 	bl	80060a4 <_Bfree>
 8003ffa:	3e01      	subs	r6, #1
 8003ffc:	2e04      	cmp	r6, #4
 8003ffe:	d806      	bhi.n	800400e <_strtod_l+0xf6>
 8004000:	e8df f006 	tbb	[pc, r6]
 8004004:	1714030a 	.word	0x1714030a
 8004008:	0a          	.byte	0x0a
 8004009:	00          	.byte	0x00
 800400a:	e9dd 891c 	ldrd	r8, r9, [sp, #112]	; 0x70
 800400e:	0721      	lsls	r1, r4, #28
 8004010:	d5c3      	bpl.n	8003f9a <_strtod_l+0x82>
 8004012:	f049 4900 	orr.w	r9, r9, #2147483648	; 0x80000000
 8004016:	e7c0      	b.n	8003f9a <_strtod_l+0x82>
 8004018:	9a1b      	ldr	r2, [sp, #108]	; 0x6c
 800401a:	e9dd 831c 	ldrd	r8, r3, [sp, #112]	; 0x70
 800401e:	f202 4233 	addw	r2, r2, #1075	; 0x433
 8004022:	f423 1380 	bic.w	r3, r3, #1048576	; 0x100000
 8004026:	ea43 5902 	orr.w	r9, r3, r2, lsl #20
 800402a:	e7f0      	b.n	800400e <_strtod_l+0xf6>
 800402c:	f8df 9178 	ldr.w	r9, [pc, #376]	; 80041a8 <_strtod_l+0x290>
 8004030:	e7ed      	b.n	800400e <_strtod_l+0xf6>
 8004032:	f06f 4900 	mvn.w	r9, #2147483648	; 0x80000000
 8004036:	f04f 38ff 	mov.w	r8, #4294967295
 800403a:	e7e8      	b.n	800400e <_strtod_l+0xf6>
 800403c:	9b19      	ldr	r3, [sp, #100]	; 0x64
 800403e:	1c5a      	adds	r2, r3, #1
 8004040:	9219      	str	r2, [sp, #100]	; 0x64
 8004042:	785b      	ldrb	r3, [r3, #1]
 8004044:	2b30      	cmp	r3, #48	; 0x30
 8004046:	d0f9      	beq.n	800403c <_strtod_l+0x124>
 8004048:	2b00      	cmp	r3, #0
 800404a:	d0a6      	beq.n	8003f9a <_strtod_l+0x82>
 800404c:	2301      	movs	r3, #1
 800404e:	9307      	str	r3, [sp, #28]
 8004050:	9b19      	ldr	r3, [sp, #100]	; 0x64
 8004052:	220a      	movs	r2, #10
 8004054:	9308      	str	r3, [sp, #32]
 8004056:	2300      	movs	r3, #0
 8004058:	469b      	mov	fp, r3
 800405a:	e9cd 3305 	strd	r3, r3, [sp, #20]
 800405e:	9819      	ldr	r0, [sp, #100]	; 0x64
 8004060:	7805      	ldrb	r5, [r0, #0]
 8004062:	f1a5 0330 	sub.w	r3, r5, #48	; 0x30
 8004066:	b2d9      	uxtb	r1, r3
 8004068:	2909      	cmp	r1, #9
 800406a:	d927      	bls.n	80040bc <_strtod_l+0x1a4>
 800406c:	4622      	mov	r2, r4
 800406e:	4639      	mov	r1, r7
 8004070:	f002 fef2 	bl	8006e58 <strncmp>
 8004074:	2800      	cmp	r0, #0
 8004076:	d033      	beq.n	80040e0 <_strtod_l+0x1c8>
 8004078:	2000      	movs	r0, #0
 800407a:	462a      	mov	r2, r5
 800407c:	465c      	mov	r4, fp
 800407e:	4603      	mov	r3, r0
 8004080:	9004      	str	r0, [sp, #16]
 8004082:	2a65      	cmp	r2, #101	; 0x65
 8004084:	d001      	beq.n	800408a <_strtod_l+0x172>
 8004086:	2a45      	cmp	r2, #69	; 0x45
 8004088:	d114      	bne.n	80040b4 <_strtod_l+0x19c>
 800408a:	b91c      	cbnz	r4, 8004094 <_strtod_l+0x17c>
 800408c:	9a07      	ldr	r2, [sp, #28]
 800408e:	4302      	orrs	r2, r0
 8004090:	d09f      	beq.n	8003fd2 <_strtod_l+0xba>
 8004092:	2400      	movs	r4, #0
 8004094:	9e19      	ldr	r6, [sp, #100]	; 0x64
 8004096:	1c72      	adds	r2, r6, #1
 8004098:	9219      	str	r2, [sp, #100]	; 0x64
 800409a:	7872      	ldrb	r2, [r6, #1]
 800409c:	2a2b      	cmp	r2, #43	; 0x2b
 800409e:	d079      	beq.n	8004194 <_strtod_l+0x27c>
 80040a0:	2a2d      	cmp	r2, #45	; 0x2d
 80040a2:	f000 8083 	beq.w	80041ac <_strtod_l+0x294>
 80040a6:	2700      	movs	r7, #0
 80040a8:	f1a2 0130 	sub.w	r1, r2, #48	; 0x30
 80040ac:	2909      	cmp	r1, #9
 80040ae:	f240 8083 	bls.w	80041b8 <_strtod_l+0x2a0>
 80040b2:	9619      	str	r6, [sp, #100]	; 0x64
 80040b4:	2500      	movs	r5, #0
 80040b6:	e09f      	b.n	80041f8 <_strtod_l+0x2e0>
 80040b8:	2300      	movs	r3, #0
 80040ba:	e7c8      	b.n	800404e <_strtod_l+0x136>
 80040bc:	f1bb 0f08 	cmp.w	fp, #8
 80040c0:	bfd5      	itete	le
 80040c2:	9906      	ldrle	r1, [sp, #24]
 80040c4:	9905      	ldrgt	r1, [sp, #20]
 80040c6:	fb02 3301 	mlale	r3, r2, r1, r3
 80040ca:	fb02 3301 	mlagt	r3, r2, r1, r3
 80040ce:	f100 0001 	add.w	r0, r0, #1
 80040d2:	bfd4      	ite	le
 80040d4:	9306      	strle	r3, [sp, #24]
 80040d6:	9305      	strgt	r3, [sp, #20]
 80040d8:	f10b 0b01 	add.w	fp, fp, #1
 80040dc:	9019      	str	r0, [sp, #100]	; 0x64
 80040de:	e7be      	b.n	800405e <_strtod_l+0x146>
 80040e0:	9b19      	ldr	r3, [sp, #100]	; 0x64
 80040e2:	191a      	adds	r2, r3, r4
 80040e4:	9219      	str	r2, [sp, #100]	; 0x64
 80040e6:	5d1a      	ldrb	r2, [r3, r4]
 80040e8:	f1bb 0f00 	cmp.w	fp, #0
 80040ec:	d036      	beq.n	800415c <_strtod_l+0x244>
 80040ee:	465c      	mov	r4, fp
 80040f0:	9004      	str	r0, [sp, #16]
 80040f2:	f1a2 0330 	sub.w	r3, r2, #48	; 0x30
 80040f6:	2b09      	cmp	r3, #9
 80040f8:	d912      	bls.n	8004120 <_strtod_l+0x208>
 80040fa:	2301      	movs	r3, #1
 80040fc:	e7c1      	b.n	8004082 <_strtod_l+0x16a>
 80040fe:	9b19      	ldr	r3, [sp, #100]	; 0x64
 8004100:	3001      	adds	r0, #1
 8004102:	1c5a      	adds	r2, r3, #1
 8004104:	9219      	str	r2, [sp, #100]	; 0x64
 8004106:	785a      	ldrb	r2, [r3, #1]
 8004108:	2a30      	cmp	r2, #48	; 0x30
 800410a:	d0f8      	beq.n	80040fe <_strtod_l+0x1e6>
 800410c:	f1a2 0331 	sub.w	r3, r2, #49	; 0x31
 8004110:	2b08      	cmp	r3, #8
 8004112:	f200 84d5 	bhi.w	8004ac0 <_strtod_l+0xba8>
 8004116:	9004      	str	r0, [sp, #16]
 8004118:	2000      	movs	r0, #0
 800411a:	4604      	mov	r4, r0
 800411c:	9b19      	ldr	r3, [sp, #100]	; 0x64
 800411e:	9308      	str	r3, [sp, #32]
 8004120:	3a30      	subs	r2, #48	; 0x30
 8004122:	f100 0301 	add.w	r3, r0, #1
 8004126:	d013      	beq.n	8004150 <_strtod_l+0x238>
 8004128:	9904      	ldr	r1, [sp, #16]
 800412a:	1905      	adds	r5, r0, r4
 800412c:	4419      	add	r1, r3
 800412e:	9104      	str	r1, [sp, #16]
 8004130:	4623      	mov	r3, r4
 8004132:	210a      	movs	r1, #10
 8004134:	42ab      	cmp	r3, r5
 8004136:	d113      	bne.n	8004160 <_strtod_l+0x248>
 8004138:	1823      	adds	r3, r4, r0
 800413a:	2b08      	cmp	r3, #8
 800413c:	f104 0401 	add.w	r4, r4, #1
 8004140:	4404      	add	r4, r0
 8004142:	dc1b      	bgt.n	800417c <_strtod_l+0x264>
 8004144:	230a      	movs	r3, #10
 8004146:	9906      	ldr	r1, [sp, #24]
 8004148:	fb03 2301 	mla	r3, r3, r1, r2
 800414c:	9306      	str	r3, [sp, #24]
 800414e:	2300      	movs	r3, #0
 8004150:	9a19      	ldr	r2, [sp, #100]	; 0x64
 8004152:	4618      	mov	r0, r3
 8004154:	1c51      	adds	r1, r2, #1
 8004156:	9119      	str	r1, [sp, #100]	; 0x64
 8004158:	7852      	ldrb	r2, [r2, #1]
 800415a:	e7ca      	b.n	80040f2 <_strtod_l+0x1da>
 800415c:	4658      	mov	r0, fp
 800415e:	e7d3      	b.n	8004108 <_strtod_l+0x1f0>
 8004160:	2b08      	cmp	r3, #8
 8004162:	dc04      	bgt.n	800416e <_strtod_l+0x256>
 8004164:	9f06      	ldr	r7, [sp, #24]
 8004166:	434f      	muls	r7, r1
 8004168:	9706      	str	r7, [sp, #24]
 800416a:	3301      	adds	r3, #1
 800416c:	e7e2      	b.n	8004134 <_strtod_l+0x21c>
 800416e:	1c5f      	adds	r7, r3, #1
 8004170:	2f10      	cmp	r7, #16
 8004172:	bfde      	ittt	le
 8004174:	9f05      	ldrle	r7, [sp, #20]
 8004176:	434f      	mulle	r7, r1
 8004178:	9705      	strle	r7, [sp, #20]
 800417a:	e7f6      	b.n	800416a <_strtod_l+0x252>
 800417c:	2c10      	cmp	r4, #16
 800417e:	bfdf      	itttt	le
 8004180:	230a      	movle	r3, #10
 8004182:	9905      	ldrle	r1, [sp, #20]
 8004184:	fb03 2301 	mlale	r3, r3, r1, r2
 8004188:	9305      	strle	r3, [sp, #20]
 800418a:	e7e0      	b.n	800414e <_strtod_l+0x236>
 800418c:	2300      	movs	r3, #0
 800418e:	9304      	str	r3, [sp, #16]
 8004190:	2301      	movs	r3, #1
 8004192:	e77b      	b.n	800408c <_strtod_l+0x174>
 8004194:	2700      	movs	r7, #0
 8004196:	1cb2      	adds	r2, r6, #2
 8004198:	9219      	str	r2, [sp, #100]	; 0x64
 800419a:	78b2      	ldrb	r2, [r6, #2]
 800419c:	e784      	b.n	80040a8 <_strtod_l+0x190>
 800419e:	bf00      	nop
 80041a0:	08007ce0 	.word	0x08007ce0
 80041a4:	08007a94 	.word	0x08007a94
 80041a8:	7ff00000 	.word	0x7ff00000
 80041ac:	2701      	movs	r7, #1
 80041ae:	e7f2      	b.n	8004196 <_strtod_l+0x27e>
 80041b0:	9a19      	ldr	r2, [sp, #100]	; 0x64
 80041b2:	1c51      	adds	r1, r2, #1
 80041b4:	9119      	str	r1, [sp, #100]	; 0x64
 80041b6:	7852      	ldrb	r2, [r2, #1]
 80041b8:	2a30      	cmp	r2, #48	; 0x30
 80041ba:	d0f9      	beq.n	80041b0 <_strtod_l+0x298>
 80041bc:	f1a2 0131 	sub.w	r1, r2, #49	; 0x31
 80041c0:	2908      	cmp	r1, #8
 80041c2:	f63f af77 	bhi.w	80040b4 <_strtod_l+0x19c>
 80041c6:	f04f 0e0a 	mov.w	lr, #10
 80041ca:	f1a2 0c30 	sub.w	ip, r2, #48	; 0x30
 80041ce:	9a19      	ldr	r2, [sp, #100]	; 0x64
 80041d0:	9209      	str	r2, [sp, #36]	; 0x24
 80041d2:	9a19      	ldr	r2, [sp, #100]	; 0x64
 80041d4:	1c51      	adds	r1, r2, #1
 80041d6:	9119      	str	r1, [sp, #100]	; 0x64
 80041d8:	7852      	ldrb	r2, [r2, #1]
 80041da:	f1a2 0530 	sub.w	r5, r2, #48	; 0x30
 80041de:	2d09      	cmp	r5, #9
 80041e0:	d935      	bls.n	800424e <_strtod_l+0x336>
 80041e2:	9d09      	ldr	r5, [sp, #36]	; 0x24
 80041e4:	1b49      	subs	r1, r1, r5
 80041e6:	2908      	cmp	r1, #8
 80041e8:	f644 651f 	movw	r5, #19999	; 0x4e1f
 80041ec:	dc02      	bgt.n	80041f4 <_strtod_l+0x2dc>
 80041ee:	4565      	cmp	r5, ip
 80041f0:	bfa8      	it	ge
 80041f2:	4665      	movge	r5, ip
 80041f4:	b107      	cbz	r7, 80041f8 <_strtod_l+0x2e0>
 80041f6:	426d      	negs	r5, r5
 80041f8:	2c00      	cmp	r4, #0
 80041fa:	d14c      	bne.n	8004296 <_strtod_l+0x37e>
 80041fc:	9907      	ldr	r1, [sp, #28]
 80041fe:	4301      	orrs	r1, r0
 8004200:	f47f aecb 	bne.w	8003f9a <_strtod_l+0x82>
 8004204:	2b00      	cmp	r3, #0
 8004206:	f47f aee4 	bne.w	8003fd2 <_strtod_l+0xba>
 800420a:	2a69      	cmp	r2, #105	; 0x69
 800420c:	d026      	beq.n	800425c <_strtod_l+0x344>
 800420e:	dc23      	bgt.n	8004258 <_strtod_l+0x340>
 8004210:	2a49      	cmp	r2, #73	; 0x49
 8004212:	d023      	beq.n	800425c <_strtod_l+0x344>
 8004214:	2a4e      	cmp	r2, #78	; 0x4e
 8004216:	f47f aedc 	bne.w	8003fd2 <_strtod_l+0xba>
 800421a:	499d      	ldr	r1, [pc, #628]	; (8004490 <_strtod_l+0x578>)
 800421c:	a819      	add	r0, sp, #100	; 0x64
 800421e:	f001 fe17 	bl	8005e50 <__match>
 8004222:	2800      	cmp	r0, #0
 8004224:	f43f aed5 	beq.w	8003fd2 <_strtod_l+0xba>
 8004228:	9b19      	ldr	r3, [sp, #100]	; 0x64
 800422a:	781b      	ldrb	r3, [r3, #0]
 800422c:	2b28      	cmp	r3, #40	; 0x28
 800422e:	d12c      	bne.n	800428a <_strtod_l+0x372>
 8004230:	4998      	ldr	r1, [pc, #608]	; (8004494 <_strtod_l+0x57c>)
 8004232:	aa1c      	add	r2, sp, #112	; 0x70
 8004234:	a819      	add	r0, sp, #100	; 0x64
 8004236:	f001 fe1f 	bl	8005e78 <__hexnan>
 800423a:	2805      	cmp	r0, #5
 800423c:	d125      	bne.n	800428a <_strtod_l+0x372>
 800423e:	9b1d      	ldr	r3, [sp, #116]	; 0x74
 8004240:	f8dd 8070 	ldr.w	r8, [sp, #112]	; 0x70
 8004244:	f043 49ff 	orr.w	r9, r3, #2139095040	; 0x7f800000
 8004248:	f449 09e0 	orr.w	r9, r9, #7340032	; 0x700000
 800424c:	e6a5      	b.n	8003f9a <_strtod_l+0x82>
 800424e:	fb0e 2c0c 	mla	ip, lr, ip, r2
 8004252:	f1ac 0c30 	sub.w	ip, ip, #48	; 0x30
 8004256:	e7bc      	b.n	80041d2 <_strtod_l+0x2ba>
 8004258:	2a6e      	cmp	r2, #110	; 0x6e
 800425a:	e7dc      	b.n	8004216 <_strtod_l+0x2fe>
 800425c:	498e      	ldr	r1, [pc, #568]	; (8004498 <_strtod_l+0x580>)
 800425e:	a819      	add	r0, sp, #100	; 0x64
 8004260:	f001 fdf6 	bl	8005e50 <__match>
 8004264:	2800      	cmp	r0, #0
 8004266:	f43f aeb4 	beq.w	8003fd2 <_strtod_l+0xba>
 800426a:	9b19      	ldr	r3, [sp, #100]	; 0x64
 800426c:	498b      	ldr	r1, [pc, #556]	; (800449c <_strtod_l+0x584>)
 800426e:	3b01      	subs	r3, #1
 8004270:	a819      	add	r0, sp, #100	; 0x64
 8004272:	9319      	str	r3, [sp, #100]	; 0x64
 8004274:	f001 fdec 	bl	8005e50 <__match>
 8004278:	b910      	cbnz	r0, 8004280 <_strtod_l+0x368>
 800427a:	9b19      	ldr	r3, [sp, #100]	; 0x64
 800427c:	3301      	adds	r3, #1
 800427e:	9319      	str	r3, [sp, #100]	; 0x64
 8004280:	f04f 0800 	mov.w	r8, #0
 8004284:	f8df 9218 	ldr.w	r9, [pc, #536]	; 80044a0 <_strtod_l+0x588>
 8004288:	e687      	b.n	8003f9a <_strtod_l+0x82>
 800428a:	4886      	ldr	r0, [pc, #536]	; (80044a4 <_strtod_l+0x58c>)
 800428c:	f002 fdce 	bl	8006e2c <nan>
 8004290:	4680      	mov	r8, r0
 8004292:	4689      	mov	r9, r1
 8004294:	e681      	b.n	8003f9a <_strtod_l+0x82>
 8004296:	9b04      	ldr	r3, [sp, #16]
 8004298:	f1bb 0f00 	cmp.w	fp, #0
 800429c:	bf08      	it	eq
 800429e:	46a3      	moveq	fp, r4
 80042a0:	1aeb      	subs	r3, r5, r3
 80042a2:	2c10      	cmp	r4, #16
 80042a4:	9806      	ldr	r0, [sp, #24]
 80042a6:	4626      	mov	r6, r4
 80042a8:	9307      	str	r3, [sp, #28]
 80042aa:	bfa8      	it	ge
 80042ac:	2610      	movge	r6, #16
 80042ae:	f7fc f899 	bl	80003e4 <__aeabi_ui2d>
 80042b2:	2c09      	cmp	r4, #9
 80042b4:	4680      	mov	r8, r0
 80042b6:	4689      	mov	r9, r1
 80042b8:	dd13      	ble.n	80042e2 <_strtod_l+0x3ca>
 80042ba:	4b7b      	ldr	r3, [pc, #492]	; (80044a8 <_strtod_l+0x590>)
 80042bc:	eb03 03c6 	add.w	r3, r3, r6, lsl #3
 80042c0:	e953 2312 	ldrd	r2, r3, [r3, #-72]	; 0x48
 80042c4:	f7fc f908 	bl	80004d8 <__aeabi_dmul>
 80042c8:	4680      	mov	r8, r0
 80042ca:	9805      	ldr	r0, [sp, #20]
 80042cc:	4689      	mov	r9, r1
 80042ce:	f7fc f889 	bl	80003e4 <__aeabi_ui2d>
 80042d2:	4602      	mov	r2, r0
 80042d4:	460b      	mov	r3, r1
 80042d6:	4640      	mov	r0, r8
 80042d8:	4649      	mov	r1, r9
 80042da:	f7fb ff47 	bl	800016c <__adddf3>
 80042de:	4680      	mov	r8, r0
 80042e0:	4689      	mov	r9, r1
 80042e2:	2c0f      	cmp	r4, #15
 80042e4:	dc36      	bgt.n	8004354 <_strtod_l+0x43c>
 80042e6:	9b07      	ldr	r3, [sp, #28]
 80042e8:	2b00      	cmp	r3, #0
 80042ea:	f43f ae56 	beq.w	8003f9a <_strtod_l+0x82>
 80042ee:	dd22      	ble.n	8004336 <_strtod_l+0x41e>
 80042f0:	2b16      	cmp	r3, #22
 80042f2:	dc09      	bgt.n	8004308 <_strtod_l+0x3f0>
 80042f4:	496c      	ldr	r1, [pc, #432]	; (80044a8 <_strtod_l+0x590>)
 80042f6:	4642      	mov	r2, r8
 80042f8:	eb01 01c3 	add.w	r1, r1, r3, lsl #3
 80042fc:	464b      	mov	r3, r9
 80042fe:	e9d1 0100 	ldrd	r0, r1, [r1]
 8004302:	f7fc f8e9 	bl	80004d8 <__aeabi_dmul>
 8004306:	e7c3      	b.n	8004290 <_strtod_l+0x378>
 8004308:	9a07      	ldr	r2, [sp, #28]
 800430a:	f1c4 0325 	rsb	r3, r4, #37	; 0x25
 800430e:	4293      	cmp	r3, r2
 8004310:	db20      	blt.n	8004354 <_strtod_l+0x43c>
 8004312:	4d65      	ldr	r5, [pc, #404]	; (80044a8 <_strtod_l+0x590>)
 8004314:	f1c4 040f 	rsb	r4, r4, #15
 8004318:	eb05 01c4 	add.w	r1, r5, r4, lsl #3
 800431c:	4642      	mov	r2, r8
 800431e:	e9d1 0100 	ldrd	r0, r1, [r1]
 8004322:	464b      	mov	r3, r9
 8004324:	f7fc f8d8 	bl	80004d8 <__aeabi_dmul>
 8004328:	9b07      	ldr	r3, [sp, #28]
 800432a:	1b1c      	subs	r4, r3, r4
 800432c:	eb05 05c4 	add.w	r5, r5, r4, lsl #3
 8004330:	e9d5 2300 	ldrd	r2, r3, [r5]
 8004334:	e7e5      	b.n	8004302 <_strtod_l+0x3ea>
 8004336:	9b07      	ldr	r3, [sp, #28]
 8004338:	3316      	adds	r3, #22
 800433a:	db0b      	blt.n	8004354 <_strtod_l+0x43c>
 800433c:	9b04      	ldr	r3, [sp, #16]
 800433e:	4640      	mov	r0, r8
 8004340:	1b5d      	subs	r5, r3, r5
 8004342:	4b59      	ldr	r3, [pc, #356]	; (80044a8 <_strtod_l+0x590>)
 8004344:	4649      	mov	r1, r9
 8004346:	eb03 05c5 	add.w	r5, r3, r5, lsl #3
 800434a:	e9d5 2300 	ldrd	r2, r3, [r5]
 800434e:	f7fc f9ed 	bl	800072c <__aeabi_ddiv>
 8004352:	e79d      	b.n	8004290 <_strtod_l+0x378>
 8004354:	9b07      	ldr	r3, [sp, #28]
 8004356:	1ba6      	subs	r6, r4, r6
 8004358:	441e      	add	r6, r3
 800435a:	2e00      	cmp	r6, #0
 800435c:	dd74      	ble.n	8004448 <_strtod_l+0x530>
 800435e:	f016 030f 	ands.w	r3, r6, #15
 8004362:	d00a      	beq.n	800437a <_strtod_l+0x462>
 8004364:	4950      	ldr	r1, [pc, #320]	; (80044a8 <_strtod_l+0x590>)
 8004366:	4642      	mov	r2, r8
 8004368:	eb01 01c3 	add.w	r1, r1, r3, lsl #3
 800436c:	e9d1 0100 	ldrd	r0, r1, [r1]
 8004370:	464b      	mov	r3, r9
 8004372:	f7fc f8b1 	bl	80004d8 <__aeabi_dmul>
 8004376:	4680      	mov	r8, r0
 8004378:	4689      	mov	r9, r1
 800437a:	f036 060f 	bics.w	r6, r6, #15
 800437e:	d052      	beq.n	8004426 <_strtod_l+0x50e>
 8004380:	f5b6 7f9a 	cmp.w	r6, #308	; 0x134
 8004384:	dd27      	ble.n	80043d6 <_strtod_l+0x4be>
 8004386:	f04f 0b00 	mov.w	fp, #0
 800438a:	f8cd b010 	str.w	fp, [sp, #16]
 800438e:	f8cd b020 	str.w	fp, [sp, #32]
 8004392:	f8cd b018 	str.w	fp, [sp, #24]
 8004396:	2322      	movs	r3, #34	; 0x22
 8004398:	f04f 0800 	mov.w	r8, #0
 800439c:	f8df 9100 	ldr.w	r9, [pc, #256]	; 80044a0 <_strtod_l+0x588>
 80043a0:	f8ca 3000 	str.w	r3, [sl]
 80043a4:	9b08      	ldr	r3, [sp, #32]
 80043a6:	2b00      	cmp	r3, #0
 80043a8:	f43f adf7 	beq.w	8003f9a <_strtod_l+0x82>
 80043ac:	4650      	mov	r0, sl
 80043ae:	991a      	ldr	r1, [sp, #104]	; 0x68
 80043b0:	f001 fe78 	bl	80060a4 <_Bfree>
 80043b4:	4650      	mov	r0, sl
 80043b6:	9906      	ldr	r1, [sp, #24]
 80043b8:	f001 fe74 	bl	80060a4 <_Bfree>
 80043bc:	4650      	mov	r0, sl
 80043be:	9904      	ldr	r1, [sp, #16]
 80043c0:	f001 fe70 	bl	80060a4 <_Bfree>
 80043c4:	4650      	mov	r0, sl
 80043c6:	9908      	ldr	r1, [sp, #32]
 80043c8:	f001 fe6c 	bl	80060a4 <_Bfree>
 80043cc:	4659      	mov	r1, fp
 80043ce:	4650      	mov	r0, sl
 80043d0:	f001 fe68 	bl	80060a4 <_Bfree>
 80043d4:	e5e1      	b.n	8003f9a <_strtod_l+0x82>
 80043d6:	4b35      	ldr	r3, [pc, #212]	; (80044ac <_strtod_l+0x594>)
 80043d8:	4640      	mov	r0, r8
 80043da:	9305      	str	r3, [sp, #20]
 80043dc:	2300      	movs	r3, #0
 80043de:	4649      	mov	r1, r9
 80043e0:	461f      	mov	r7, r3
 80043e2:	1136      	asrs	r6, r6, #4
 80043e4:	2e01      	cmp	r6, #1
 80043e6:	dc21      	bgt.n	800442c <_strtod_l+0x514>
 80043e8:	b10b      	cbz	r3, 80043ee <_strtod_l+0x4d6>
 80043ea:	4680      	mov	r8, r0
 80043ec:	4689      	mov	r9, r1
 80043ee:	4b2f      	ldr	r3, [pc, #188]	; (80044ac <_strtod_l+0x594>)
 80043f0:	f1a9 7954 	sub.w	r9, r9, #55574528	; 0x3500000
 80043f4:	eb03 07c7 	add.w	r7, r3, r7, lsl #3
 80043f8:	4642      	mov	r2, r8
 80043fa:	e9d7 0100 	ldrd	r0, r1, [r7]
 80043fe:	464b      	mov	r3, r9
 8004400:	f7fc f86a 	bl	80004d8 <__aeabi_dmul>
 8004404:	4b26      	ldr	r3, [pc, #152]	; (80044a0 <_strtod_l+0x588>)
 8004406:	460a      	mov	r2, r1
 8004408:	400b      	ands	r3, r1
 800440a:	4929      	ldr	r1, [pc, #164]	; (80044b0 <_strtod_l+0x598>)
 800440c:	4680      	mov	r8, r0
 800440e:	428b      	cmp	r3, r1
 8004410:	d8b9      	bhi.n	8004386 <_strtod_l+0x46e>
 8004412:	f5a1 1180 	sub.w	r1, r1, #1048576	; 0x100000
 8004416:	428b      	cmp	r3, r1
 8004418:	bf86      	itte	hi
 800441a:	f04f 38ff 	movhi.w	r8, #4294967295
 800441e:	f8df 9094 	ldrhi.w	r9, [pc, #148]	; 80044b4 <_strtod_l+0x59c>
 8004422:	f102 7954 	addls.w	r9, r2, #55574528	; 0x3500000
 8004426:	2300      	movs	r3, #0
 8004428:	9305      	str	r3, [sp, #20]
 800442a:	e07f      	b.n	800452c <_strtod_l+0x614>
 800442c:	07f2      	lsls	r2, r6, #31
 800442e:	d505      	bpl.n	800443c <_strtod_l+0x524>
 8004430:	9b05      	ldr	r3, [sp, #20]
 8004432:	e9d3 2300 	ldrd	r2, r3, [r3]
 8004436:	f7fc f84f 	bl	80004d8 <__aeabi_dmul>
 800443a:	2301      	movs	r3, #1
 800443c:	9a05      	ldr	r2, [sp, #20]
 800443e:	3701      	adds	r7, #1
 8004440:	3208      	adds	r2, #8
 8004442:	1076      	asrs	r6, r6, #1
 8004444:	9205      	str	r2, [sp, #20]
 8004446:	e7cd      	b.n	80043e4 <_strtod_l+0x4cc>
 8004448:	d0ed      	beq.n	8004426 <_strtod_l+0x50e>
 800444a:	4276      	negs	r6, r6
 800444c:	f016 020f 	ands.w	r2, r6, #15
 8004450:	d00a      	beq.n	8004468 <_strtod_l+0x550>
 8004452:	4b15      	ldr	r3, [pc, #84]	; (80044a8 <_strtod_l+0x590>)
 8004454:	4640      	mov	r0, r8
 8004456:	eb03 03c2 	add.w	r3, r3, r2, lsl #3
 800445a:	4649      	mov	r1, r9
 800445c:	e9d3 2300 	ldrd	r2, r3, [r3]
 8004460:	f7fc f964 	bl	800072c <__aeabi_ddiv>
 8004464:	4680      	mov	r8, r0
 8004466:	4689      	mov	r9, r1
 8004468:	1136      	asrs	r6, r6, #4
 800446a:	d0dc      	beq.n	8004426 <_strtod_l+0x50e>
 800446c:	2e1f      	cmp	r6, #31
 800446e:	dd23      	ble.n	80044b8 <_strtod_l+0x5a0>
 8004470:	f04f 0b00 	mov.w	fp, #0
 8004474:	f8cd b010 	str.w	fp, [sp, #16]
 8004478:	f8cd b020 	str.w	fp, [sp, #32]
 800447c:	f8cd b018 	str.w	fp, [sp, #24]
 8004480:	2322      	movs	r3, #34	; 0x22
 8004482:	f04f 0800 	mov.w	r8, #0
 8004486:	f04f 0900 	mov.w	r9, #0
 800448a:	f8ca 3000 	str.w	r3, [sl]
 800448e:	e789      	b.n	80043a4 <_strtod_l+0x48c>
 8004490:	08007a65 	.word	0x08007a65
 8004494:	08007aa8 	.word	0x08007aa8
 8004498:	08007a5d 	.word	0x08007a5d
 800449c:	08007bec 	.word	0x08007bec
 80044a0:	7ff00000 	.word	0x7ff00000
 80044a4:	08007e98 	.word	0x08007e98
 80044a8:	08007d78 	.word	0x08007d78
 80044ac:	08007d50 	.word	0x08007d50
 80044b0:	7ca00000 	.word	0x7ca00000
 80044b4:	7fefffff 	.word	0x7fefffff
 80044b8:	f016 0310 	ands.w	r3, r6, #16
 80044bc:	bf18      	it	ne
 80044be:	236a      	movne	r3, #106	; 0x6a
 80044c0:	4640      	mov	r0, r8
 80044c2:	9305      	str	r3, [sp, #20]
 80044c4:	4649      	mov	r1, r9
 80044c6:	2300      	movs	r3, #0
 80044c8:	4fb0      	ldr	r7, [pc, #704]	; (800478c <_strtod_l+0x874>)
 80044ca:	07f2      	lsls	r2, r6, #31
 80044cc:	d504      	bpl.n	80044d8 <_strtod_l+0x5c0>
 80044ce:	e9d7 2300 	ldrd	r2, r3, [r7]
 80044d2:	f7fc f801 	bl	80004d8 <__aeabi_dmul>
 80044d6:	2301      	movs	r3, #1
 80044d8:	1076      	asrs	r6, r6, #1
 80044da:	f107 0708 	add.w	r7, r7, #8
 80044de:	d1f4      	bne.n	80044ca <_strtod_l+0x5b2>
 80044e0:	b10b      	cbz	r3, 80044e6 <_strtod_l+0x5ce>
 80044e2:	4680      	mov	r8, r0
 80044e4:	4689      	mov	r9, r1
 80044e6:	9b05      	ldr	r3, [sp, #20]
 80044e8:	b1c3      	cbz	r3, 800451c <_strtod_l+0x604>
 80044ea:	f3c9 520a 	ubfx	r2, r9, #20, #11
 80044ee:	f1c2 036b 	rsb	r3, r2, #107	; 0x6b
 80044f2:	2b00      	cmp	r3, #0
 80044f4:	4649      	mov	r1, r9
 80044f6:	dd11      	ble.n	800451c <_strtod_l+0x604>
 80044f8:	2b1f      	cmp	r3, #31
 80044fa:	f340 8127 	ble.w	800474c <_strtod_l+0x834>
 80044fe:	2b34      	cmp	r3, #52	; 0x34
 8004500:	bfd8      	it	le
 8004502:	f04f 33ff 	movle.w	r3, #4294967295
 8004506:	f04f 0800 	mov.w	r8, #0
 800450a:	bfcf      	iteee	gt
 800450c:	f04f 795c 	movgt.w	r9, #57671680	; 0x3700000
 8004510:	f1c2 024b 	rsble	r2, r2, #75	; 0x4b
 8004514:	fa03 f202 	lslle.w	r2, r3, r2
 8004518:	ea02 0901 	andle.w	r9, r2, r1
 800451c:	2200      	movs	r2, #0
 800451e:	2300      	movs	r3, #0
 8004520:	4640      	mov	r0, r8
 8004522:	4649      	mov	r1, r9
 8004524:	f7fc fa40 	bl	80009a8 <__aeabi_dcmpeq>
 8004528:	2800      	cmp	r0, #0
 800452a:	d1a1      	bne.n	8004470 <_strtod_l+0x558>
 800452c:	9b06      	ldr	r3, [sp, #24]
 800452e:	465a      	mov	r2, fp
 8004530:	9300      	str	r3, [sp, #0]
 8004532:	4650      	mov	r0, sl
 8004534:	4623      	mov	r3, r4
 8004536:	9908      	ldr	r1, [sp, #32]
 8004538:	f001 fe1c 	bl	8006174 <__s2b>
 800453c:	9008      	str	r0, [sp, #32]
 800453e:	2800      	cmp	r0, #0
 8004540:	f43f af21 	beq.w	8004386 <_strtod_l+0x46e>
 8004544:	9b04      	ldr	r3, [sp, #16]
 8004546:	f04f 0b00 	mov.w	fp, #0
 800454a:	1b5d      	subs	r5, r3, r5
 800454c:	9b07      	ldr	r3, [sp, #28]
 800454e:	f8cd b010 	str.w	fp, [sp, #16]
 8004552:	2b00      	cmp	r3, #0
 8004554:	bfb4      	ite	lt
 8004556:	462b      	movlt	r3, r5
 8004558:	2300      	movge	r3, #0
 800455a:	930e      	str	r3, [sp, #56]	; 0x38
 800455c:	9b07      	ldr	r3, [sp, #28]
 800455e:	ea23 73e3 	bic.w	r3, r3, r3, asr #31
 8004562:	9314      	str	r3, [sp, #80]	; 0x50
 8004564:	9b08      	ldr	r3, [sp, #32]
 8004566:	4650      	mov	r0, sl
 8004568:	6859      	ldr	r1, [r3, #4]
 800456a:	f001 fd5b 	bl	8006024 <_Balloc>
 800456e:	9006      	str	r0, [sp, #24]
 8004570:	2800      	cmp	r0, #0
 8004572:	f43f af10 	beq.w	8004396 <_strtod_l+0x47e>
 8004576:	9b08      	ldr	r3, [sp, #32]
 8004578:	300c      	adds	r0, #12
 800457a:	691a      	ldr	r2, [r3, #16]
 800457c:	f103 010c 	add.w	r1, r3, #12
 8004580:	3202      	adds	r2, #2
 8004582:	0092      	lsls	r2, r2, #2
 8004584:	f001 fd40 	bl	8006008 <memcpy>
 8004588:	ab1c      	add	r3, sp, #112	; 0x70
 800458a:	9301      	str	r3, [sp, #4]
 800458c:	ab1b      	add	r3, sp, #108	; 0x6c
 800458e:	9300      	str	r3, [sp, #0]
 8004590:	4642      	mov	r2, r8
 8004592:	464b      	mov	r3, r9
 8004594:	4650      	mov	r0, sl
 8004596:	e9cd 890c 	strd	r8, r9, [sp, #48]	; 0x30
 800459a:	f002 f92d 	bl	80067f8 <__d2b>
 800459e:	901a      	str	r0, [sp, #104]	; 0x68
 80045a0:	2800      	cmp	r0, #0
 80045a2:	f43f aef8 	beq.w	8004396 <_strtod_l+0x47e>
 80045a6:	2101      	movs	r1, #1
 80045a8:	4650      	mov	r0, sl
 80045aa:	f001 fe7b 	bl	80062a4 <__i2b>
 80045ae:	4603      	mov	r3, r0
 80045b0:	9004      	str	r0, [sp, #16]
 80045b2:	2800      	cmp	r0, #0
 80045b4:	f43f aeef 	beq.w	8004396 <_strtod_l+0x47e>
 80045b8:	9d1b      	ldr	r5, [sp, #108]	; 0x6c
 80045ba:	9a1c      	ldr	r2, [sp, #112]	; 0x70
 80045bc:	2d00      	cmp	r5, #0
 80045be:	bfab      	itete	ge
 80045c0:	9b0e      	ldrge	r3, [sp, #56]	; 0x38
 80045c2:	9b14      	ldrlt	r3, [sp, #80]	; 0x50
 80045c4:	18ee      	addge	r6, r5, r3
 80045c6:	1b5c      	sublt	r4, r3, r5
 80045c8:	9b05      	ldr	r3, [sp, #20]
 80045ca:	bfa8      	it	ge
 80045cc:	9c14      	ldrge	r4, [sp, #80]	; 0x50
 80045ce:	eba5 0503 	sub.w	r5, r5, r3
 80045d2:	4415      	add	r5, r2
 80045d4:	4b6e      	ldr	r3, [pc, #440]	; (8004790 <_strtod_l+0x878>)
 80045d6:	f105 35ff 	add.w	r5, r5, #4294967295
 80045da:	bfb8      	it	lt
 80045dc:	9e0e      	ldrlt	r6, [sp, #56]	; 0x38
 80045de:	429d      	cmp	r5, r3
 80045e0:	f1c2 0236 	rsb	r2, r2, #54	; 0x36
 80045e4:	f280 80c4 	bge.w	8004770 <_strtod_l+0x858>
 80045e8:	1b5b      	subs	r3, r3, r5
 80045ea:	2b1f      	cmp	r3, #31
 80045ec:	f04f 0701 	mov.w	r7, #1
 80045f0:	eba2 0203 	sub.w	r2, r2, r3
 80045f4:	f300 80b1 	bgt.w	800475a <_strtod_l+0x842>
 80045f8:	2500      	movs	r5, #0
 80045fa:	fa07 f303 	lsl.w	r3, r7, r3
 80045fe:	930f      	str	r3, [sp, #60]	; 0x3c
 8004600:	18b7      	adds	r7, r6, r2
 8004602:	9b05      	ldr	r3, [sp, #20]
 8004604:	42be      	cmp	r6, r7
 8004606:	4414      	add	r4, r2
 8004608:	441c      	add	r4, r3
 800460a:	4633      	mov	r3, r6
 800460c:	bfa8      	it	ge
 800460e:	463b      	movge	r3, r7
 8004610:	42a3      	cmp	r3, r4
 8004612:	bfa8      	it	ge
 8004614:	4623      	movge	r3, r4
 8004616:	2b00      	cmp	r3, #0
 8004618:	bfc2      	ittt	gt
 800461a:	1aff      	subgt	r7, r7, r3
 800461c:	1ae4      	subgt	r4, r4, r3
 800461e:	1af6      	subgt	r6, r6, r3
 8004620:	9b0e      	ldr	r3, [sp, #56]	; 0x38
 8004622:	2b00      	cmp	r3, #0
 8004624:	dd17      	ble.n	8004656 <_strtod_l+0x73e>
 8004626:	461a      	mov	r2, r3
 8004628:	4650      	mov	r0, sl
 800462a:	9904      	ldr	r1, [sp, #16]
 800462c:	f001 fef8 	bl	8006420 <__pow5mult>
 8004630:	9004      	str	r0, [sp, #16]
 8004632:	2800      	cmp	r0, #0
 8004634:	f43f aeaf 	beq.w	8004396 <_strtod_l+0x47e>
 8004638:	4601      	mov	r1, r0
 800463a:	9a1a      	ldr	r2, [sp, #104]	; 0x68
 800463c:	4650      	mov	r0, sl
 800463e:	f001 fe47 	bl	80062d0 <__multiply>
 8004642:	9009      	str	r0, [sp, #36]	; 0x24
 8004644:	2800      	cmp	r0, #0
 8004646:	f43f aea6 	beq.w	8004396 <_strtod_l+0x47e>
 800464a:	4650      	mov	r0, sl
 800464c:	991a      	ldr	r1, [sp, #104]	; 0x68
 800464e:	f001 fd29 	bl	80060a4 <_Bfree>
 8004652:	9b09      	ldr	r3, [sp, #36]	; 0x24
 8004654:	931a      	str	r3, [sp, #104]	; 0x68
 8004656:	2f00      	cmp	r7, #0
 8004658:	f300 808e 	bgt.w	8004778 <_strtod_l+0x860>
 800465c:	9b07      	ldr	r3, [sp, #28]
 800465e:	2b00      	cmp	r3, #0
 8004660:	dd08      	ble.n	8004674 <_strtod_l+0x75c>
 8004662:	4650      	mov	r0, sl
 8004664:	9a14      	ldr	r2, [sp, #80]	; 0x50
 8004666:	9906      	ldr	r1, [sp, #24]
 8004668:	f001 feda 	bl	8006420 <__pow5mult>
 800466c:	9006      	str	r0, [sp, #24]
 800466e:	2800      	cmp	r0, #0
 8004670:	f43f ae91 	beq.w	8004396 <_strtod_l+0x47e>
 8004674:	2c00      	cmp	r4, #0
 8004676:	dd08      	ble.n	800468a <_strtod_l+0x772>
 8004678:	4622      	mov	r2, r4
 800467a:	4650      	mov	r0, sl
 800467c:	9906      	ldr	r1, [sp, #24]
 800467e:	f001 ff29 	bl	80064d4 <__lshift>
 8004682:	9006      	str	r0, [sp, #24]
 8004684:	2800      	cmp	r0, #0
 8004686:	f43f ae86 	beq.w	8004396 <_strtod_l+0x47e>
 800468a:	2e00      	cmp	r6, #0
 800468c:	dd08      	ble.n	80046a0 <_strtod_l+0x788>
 800468e:	4632      	mov	r2, r6
 8004690:	4650      	mov	r0, sl
 8004692:	9904      	ldr	r1, [sp, #16]
 8004694:	f001 ff1e 	bl	80064d4 <__lshift>
 8004698:	9004      	str	r0, [sp, #16]
 800469a:	2800      	cmp	r0, #0
 800469c:	f43f ae7b 	beq.w	8004396 <_strtod_l+0x47e>
 80046a0:	4650      	mov	r0, sl
 80046a2:	9a06      	ldr	r2, [sp, #24]
 80046a4:	991a      	ldr	r1, [sp, #104]	; 0x68
 80046a6:	f001 ffa1 	bl	80065ec <__mdiff>
 80046aa:	4683      	mov	fp, r0
 80046ac:	2800      	cmp	r0, #0
 80046ae:	f43f ae72 	beq.w	8004396 <_strtod_l+0x47e>
 80046b2:	2400      	movs	r4, #0
 80046b4:	68c3      	ldr	r3, [r0, #12]
 80046b6:	9904      	ldr	r1, [sp, #16]
 80046b8:	60c4      	str	r4, [r0, #12]
 80046ba:	930b      	str	r3, [sp, #44]	; 0x2c
 80046bc:	f001 ff7a 	bl	80065b4 <__mcmp>
 80046c0:	42a0      	cmp	r0, r4
 80046c2:	da6b      	bge.n	800479c <_strtod_l+0x884>
 80046c4:	9b0b      	ldr	r3, [sp, #44]	; 0x2c
 80046c6:	ea53 0308 	orrs.w	r3, r3, r8
 80046ca:	f040 8091 	bne.w	80047f0 <_strtod_l+0x8d8>
 80046ce:	f3c9 0313 	ubfx	r3, r9, #0, #20
 80046d2:	2b00      	cmp	r3, #0
 80046d4:	f040 808c 	bne.w	80047f0 <_strtod_l+0x8d8>
 80046d8:	f029 4300 	bic.w	r3, r9, #2147483648	; 0x80000000
 80046dc:	0d1b      	lsrs	r3, r3, #20
 80046de:	051b      	lsls	r3, r3, #20
 80046e0:	f1b3 6fd6 	cmp.w	r3, #112197632	; 0x6b00000
 80046e4:	f240 8084 	bls.w	80047f0 <_strtod_l+0x8d8>
 80046e8:	f8db 3014 	ldr.w	r3, [fp, #20]
 80046ec:	b91b      	cbnz	r3, 80046f6 <_strtod_l+0x7de>
 80046ee:	f8db 3010 	ldr.w	r3, [fp, #16]
 80046f2:	2b01      	cmp	r3, #1
 80046f4:	dd7c      	ble.n	80047f0 <_strtod_l+0x8d8>
 80046f6:	4659      	mov	r1, fp
 80046f8:	2201      	movs	r2, #1
 80046fa:	4650      	mov	r0, sl
 80046fc:	f001 feea 	bl	80064d4 <__lshift>
 8004700:	9904      	ldr	r1, [sp, #16]
 8004702:	4683      	mov	fp, r0
 8004704:	f001 ff56 	bl	80065b4 <__mcmp>
 8004708:	2800      	cmp	r0, #0
 800470a:	dd71      	ble.n	80047f0 <_strtod_l+0x8d8>
 800470c:	9905      	ldr	r1, [sp, #20]
 800470e:	464b      	mov	r3, r9
 8004710:	4a20      	ldr	r2, [pc, #128]	; (8004794 <_strtod_l+0x87c>)
 8004712:	2900      	cmp	r1, #0
 8004714:	f000 808c 	beq.w	8004830 <_strtod_l+0x918>
 8004718:	ea02 0109 	and.w	r1, r2, r9
 800471c:	f1b1 6fd6 	cmp.w	r1, #112197632	; 0x6b00000
 8004720:	f300 8086 	bgt.w	8004830 <_strtod_l+0x918>
 8004724:	f1b1 7f5c 	cmp.w	r1, #57671680	; 0x3700000
 8004728:	f77f aeaa 	ble.w	8004480 <_strtod_l+0x568>
 800472c:	4640      	mov	r0, r8
 800472e:	4649      	mov	r1, r9
 8004730:	4b19      	ldr	r3, [pc, #100]	; (8004798 <_strtod_l+0x880>)
 8004732:	2200      	movs	r2, #0
 8004734:	f7fb fed0 	bl	80004d8 <__aeabi_dmul>
 8004738:	460b      	mov	r3, r1
 800473a:	4303      	orrs	r3, r0
 800473c:	bf08      	it	eq
 800473e:	2322      	moveq	r3, #34	; 0x22
 8004740:	4680      	mov	r8, r0
 8004742:	4689      	mov	r9, r1
 8004744:	bf08      	it	eq
 8004746:	f8ca 3000 	streq.w	r3, [sl]
 800474a:	e62f      	b.n	80043ac <_strtod_l+0x494>
 800474c:	f04f 32ff 	mov.w	r2, #4294967295
 8004750:	fa02 f303 	lsl.w	r3, r2, r3
 8004754:	ea03 0808 	and.w	r8, r3, r8
 8004758:	e6e0      	b.n	800451c <_strtod_l+0x604>
 800475a:	f1c5 457f 	rsb	r5, r5, #4278190080	; 0xff000000
 800475e:	f505 057f 	add.w	r5, r5, #16711680	; 0xff0000
 8004762:	f505 457b 	add.w	r5, r5, #64256	; 0xfb00
 8004766:	35e2      	adds	r5, #226	; 0xe2
 8004768:	fa07 f505 	lsl.w	r5, r7, r5
 800476c:	970f      	str	r7, [sp, #60]	; 0x3c
 800476e:	e747      	b.n	8004600 <_strtod_l+0x6e8>
 8004770:	2301      	movs	r3, #1
 8004772:	2500      	movs	r5, #0
 8004774:	930f      	str	r3, [sp, #60]	; 0x3c
 8004776:	e743      	b.n	8004600 <_strtod_l+0x6e8>
 8004778:	463a      	mov	r2, r7
 800477a:	4650      	mov	r0, sl
 800477c:	991a      	ldr	r1, [sp, #104]	; 0x68
 800477e:	f001 fea9 	bl	80064d4 <__lshift>
 8004782:	901a      	str	r0, [sp, #104]	; 0x68
 8004784:	2800      	cmp	r0, #0
 8004786:	f47f af69 	bne.w	800465c <_strtod_l+0x744>
 800478a:	e604      	b.n	8004396 <_strtod_l+0x47e>
 800478c:	08007ac0 	.word	0x08007ac0
 8004790:	fffffc02 	.word	0xfffffc02
 8004794:	7ff00000 	.word	0x7ff00000
 8004798:	39500000 	.word	0x39500000
 800479c:	f8cd 9024 	str.w	r9, [sp, #36]	; 0x24
 80047a0:	d165      	bne.n	800486e <_strtod_l+0x956>
 80047a2:	9a0b      	ldr	r2, [sp, #44]	; 0x2c
 80047a4:	f3c9 0313 	ubfx	r3, r9, #0, #20
 80047a8:	b35a      	cbz	r2, 8004802 <_strtod_l+0x8ea>
 80047aa:	4a99      	ldr	r2, [pc, #612]	; (8004a10 <_strtod_l+0xaf8>)
 80047ac:	4293      	cmp	r3, r2
 80047ae:	d12b      	bne.n	8004808 <_strtod_l+0x8f0>
 80047b0:	9b05      	ldr	r3, [sp, #20]
 80047b2:	4641      	mov	r1, r8
 80047b4:	b303      	cbz	r3, 80047f8 <_strtod_l+0x8e0>
 80047b6:	464a      	mov	r2, r9
 80047b8:	4b96      	ldr	r3, [pc, #600]	; (8004a14 <_strtod_l+0xafc>)
 80047ba:	4013      	ands	r3, r2
 80047bc:	f1b3 6fd4 	cmp.w	r3, #111149056	; 0x6a00000
 80047c0:	f04f 32ff 	mov.w	r2, #4294967295
 80047c4:	d81b      	bhi.n	80047fe <_strtod_l+0x8e6>
 80047c6:	0d1b      	lsrs	r3, r3, #20
 80047c8:	f1c3 036b 	rsb	r3, r3, #107	; 0x6b
 80047cc:	fa02 f303 	lsl.w	r3, r2, r3
 80047d0:	4299      	cmp	r1, r3
 80047d2:	d119      	bne.n	8004808 <_strtod_l+0x8f0>
 80047d4:	4b90      	ldr	r3, [pc, #576]	; (8004a18 <_strtod_l+0xb00>)
 80047d6:	9a09      	ldr	r2, [sp, #36]	; 0x24
 80047d8:	429a      	cmp	r2, r3
 80047da:	d102      	bne.n	80047e2 <_strtod_l+0x8ca>
 80047dc:	3101      	adds	r1, #1
 80047de:	f43f adda 	beq.w	8004396 <_strtod_l+0x47e>
 80047e2:	f04f 0800 	mov.w	r8, #0
 80047e6:	4b8b      	ldr	r3, [pc, #556]	; (8004a14 <_strtod_l+0xafc>)
 80047e8:	9a09      	ldr	r2, [sp, #36]	; 0x24
 80047ea:	401a      	ands	r2, r3
 80047ec:	f502 1980 	add.w	r9, r2, #1048576	; 0x100000
 80047f0:	9b05      	ldr	r3, [sp, #20]
 80047f2:	2b00      	cmp	r3, #0
 80047f4:	d19a      	bne.n	800472c <_strtod_l+0x814>
 80047f6:	e5d9      	b.n	80043ac <_strtod_l+0x494>
 80047f8:	f04f 33ff 	mov.w	r3, #4294967295
 80047fc:	e7e8      	b.n	80047d0 <_strtod_l+0x8b8>
 80047fe:	4613      	mov	r3, r2
 8004800:	e7e6      	b.n	80047d0 <_strtod_l+0x8b8>
 8004802:	ea53 0308 	orrs.w	r3, r3, r8
 8004806:	d081      	beq.n	800470c <_strtod_l+0x7f4>
 8004808:	b1e5      	cbz	r5, 8004844 <_strtod_l+0x92c>
 800480a:	9b09      	ldr	r3, [sp, #36]	; 0x24
 800480c:	421d      	tst	r5, r3
 800480e:	d0ef      	beq.n	80047f0 <_strtod_l+0x8d8>
 8004810:	9b0b      	ldr	r3, [sp, #44]	; 0x2c
 8004812:	4640      	mov	r0, r8
 8004814:	4649      	mov	r1, r9
 8004816:	9a05      	ldr	r2, [sp, #20]
 8004818:	b1c3      	cbz	r3, 800484c <_strtod_l+0x934>
 800481a:	f7ff fb59 	bl	8003ed0 <sulp>
 800481e:	4602      	mov	r2, r0
 8004820:	460b      	mov	r3, r1
 8004822:	e9dd 010c 	ldrd	r0, r1, [sp, #48]	; 0x30
 8004826:	f7fb fca1 	bl	800016c <__adddf3>
 800482a:	4680      	mov	r8, r0
 800482c:	4689      	mov	r9, r1
 800482e:	e7df      	b.n	80047f0 <_strtod_l+0x8d8>
 8004830:	4013      	ands	r3, r2
 8004832:	f5a3 1380 	sub.w	r3, r3, #1048576	; 0x100000
 8004836:	ea6f 5913 	mvn.w	r9, r3, lsr #20
 800483a:	f04f 38ff 	mov.w	r8, #4294967295
 800483e:	ea6f 5909 	mvn.w	r9, r9, lsl #20
 8004842:	e7d5      	b.n	80047f0 <_strtod_l+0x8d8>
 8004844:	9b0f      	ldr	r3, [sp, #60]	; 0x3c
 8004846:	ea13 0f08 	tst.w	r3, r8
 800484a:	e7e0      	b.n	800480e <_strtod_l+0x8f6>
 800484c:	f7ff fb40 	bl	8003ed0 <sulp>
 8004850:	4602      	mov	r2, r0
 8004852:	460b      	mov	r3, r1
 8004854:	e9dd 010c 	ldrd	r0, r1, [sp, #48]	; 0x30
 8004858:	f7fb fc86 	bl	8000168 <__aeabi_dsub>
 800485c:	2200      	movs	r2, #0
 800485e:	2300      	movs	r3, #0
 8004860:	4680      	mov	r8, r0
 8004862:	4689      	mov	r9, r1
 8004864:	f7fc f8a0 	bl	80009a8 <__aeabi_dcmpeq>
 8004868:	2800      	cmp	r0, #0
 800486a:	d0c1      	beq.n	80047f0 <_strtod_l+0x8d8>
 800486c:	e608      	b.n	8004480 <_strtod_l+0x568>
 800486e:	4658      	mov	r0, fp
 8004870:	9904      	ldr	r1, [sp, #16]
 8004872:	f002 f81d 	bl	80068b0 <__ratio>
 8004876:	2200      	movs	r2, #0
 8004878:	f04f 4380 	mov.w	r3, #1073741824	; 0x40000000
 800487c:	4606      	mov	r6, r0
 800487e:	460f      	mov	r7, r1
 8004880:	f7fc f8a6 	bl	80009d0 <__aeabi_dcmple>
 8004884:	2800      	cmp	r0, #0
 8004886:	d070      	beq.n	800496a <_strtod_l+0xa52>
 8004888:	9b0b      	ldr	r3, [sp, #44]	; 0x2c
 800488a:	2b00      	cmp	r3, #0
 800488c:	d042      	beq.n	8004914 <_strtod_l+0x9fc>
 800488e:	2600      	movs	r6, #0
 8004890:	4f62      	ldr	r7, [pc, #392]	; (8004a1c <_strtod_l+0xb04>)
 8004892:	4d62      	ldr	r5, [pc, #392]	; (8004a1c <_strtod_l+0xb04>)
 8004894:	9b09      	ldr	r3, [sp, #36]	; 0x24
 8004896:	f023 4300 	bic.w	r3, r3, #2147483648	; 0x80000000
 800489a:	0d1b      	lsrs	r3, r3, #20
 800489c:	051b      	lsls	r3, r3, #20
 800489e:	930f      	str	r3, [sp, #60]	; 0x3c
 80048a0:	9a0f      	ldr	r2, [sp, #60]	; 0x3c
 80048a2:	4b5f      	ldr	r3, [pc, #380]	; (8004a20 <_strtod_l+0xb08>)
 80048a4:	429a      	cmp	r2, r3
 80048a6:	f040 80c3 	bne.w	8004a30 <_strtod_l+0xb18>
 80048aa:	9b09      	ldr	r3, [sp, #36]	; 0x24
 80048ac:	4640      	mov	r0, r8
 80048ae:	f1a3 7954 	sub.w	r9, r3, #55574528	; 0x3500000
 80048b2:	4649      	mov	r1, r9
 80048b4:	f001 ff26 	bl	8006704 <__ulp>
 80048b8:	4602      	mov	r2, r0
 80048ba:	460b      	mov	r3, r1
 80048bc:	4630      	mov	r0, r6
 80048be:	4639      	mov	r1, r7
 80048c0:	f7fb fe0a 	bl	80004d8 <__aeabi_dmul>
 80048c4:	4642      	mov	r2, r8
 80048c6:	464b      	mov	r3, r9
 80048c8:	f7fb fc50 	bl	800016c <__adddf3>
 80048cc:	460b      	mov	r3, r1
 80048ce:	4951      	ldr	r1, [pc, #324]	; (8004a14 <_strtod_l+0xafc>)
 80048d0:	4a54      	ldr	r2, [pc, #336]	; (8004a24 <_strtod_l+0xb0c>)
 80048d2:	4019      	ands	r1, r3
 80048d4:	4291      	cmp	r1, r2
 80048d6:	4680      	mov	r8, r0
 80048d8:	d95d      	bls.n	8004996 <_strtod_l+0xa7e>
 80048da:	9a0d      	ldr	r2, [sp, #52]	; 0x34
 80048dc:	4b4e      	ldr	r3, [pc, #312]	; (8004a18 <_strtod_l+0xb00>)
 80048de:	429a      	cmp	r2, r3
 80048e0:	d103      	bne.n	80048ea <_strtod_l+0x9d2>
 80048e2:	9b0c      	ldr	r3, [sp, #48]	; 0x30
 80048e4:	3301      	adds	r3, #1
 80048e6:	f43f ad56 	beq.w	8004396 <_strtod_l+0x47e>
 80048ea:	f04f 38ff 	mov.w	r8, #4294967295
 80048ee:	f8df 9128 	ldr.w	r9, [pc, #296]	; 8004a18 <_strtod_l+0xb00>
 80048f2:	4650      	mov	r0, sl
 80048f4:	991a      	ldr	r1, [sp, #104]	; 0x68
 80048f6:	f001 fbd5 	bl	80060a4 <_Bfree>
 80048fa:	4650      	mov	r0, sl
 80048fc:	9906      	ldr	r1, [sp, #24]
 80048fe:	f001 fbd1 	bl	80060a4 <_Bfree>
 8004902:	4650      	mov	r0, sl
 8004904:	9904      	ldr	r1, [sp, #16]
 8004906:	f001 fbcd 	bl	80060a4 <_Bfree>
 800490a:	4659      	mov	r1, fp
 800490c:	4650      	mov	r0, sl
 800490e:	f001 fbc9 	bl	80060a4 <_Bfree>
 8004912:	e627      	b.n	8004564 <_strtod_l+0x64c>
 8004914:	f1b8 0f00 	cmp.w	r8, #0
 8004918:	d119      	bne.n	800494e <_strtod_l+0xa36>
 800491a:	9b09      	ldr	r3, [sp, #36]	; 0x24
 800491c:	f3c3 0313 	ubfx	r3, r3, #0, #20
 8004920:	b9e3      	cbnz	r3, 800495c <_strtod_l+0xa44>
 8004922:	2200      	movs	r2, #0
 8004924:	4630      	mov	r0, r6
 8004926:	4639      	mov	r1, r7
 8004928:	4b3c      	ldr	r3, [pc, #240]	; (8004a1c <_strtod_l+0xb04>)
 800492a:	f7fc f847 	bl	80009bc <__aeabi_dcmplt>
 800492e:	b9c8      	cbnz	r0, 8004964 <_strtod_l+0xa4c>
 8004930:	2200      	movs	r2, #0
 8004932:	4630      	mov	r0, r6
 8004934:	4639      	mov	r1, r7
 8004936:	4b3c      	ldr	r3, [pc, #240]	; (8004a28 <_strtod_l+0xb10>)
 8004938:	f7fb fdce 	bl	80004d8 <__aeabi_dmul>
 800493c:	4604      	mov	r4, r0
 800493e:	460d      	mov	r5, r1
 8004940:	f105 4300 	add.w	r3, r5, #2147483648	; 0x80000000
 8004944:	9416      	str	r4, [sp, #88]	; 0x58
 8004946:	9317      	str	r3, [sp, #92]	; 0x5c
 8004948:	e9dd 6716 	ldrd	r6, r7, [sp, #88]	; 0x58
 800494c:	e7a2      	b.n	8004894 <_strtod_l+0x97c>
 800494e:	f1b8 0f01 	cmp.w	r8, #1
 8004952:	d103      	bne.n	800495c <_strtod_l+0xa44>
 8004954:	9b09      	ldr	r3, [sp, #36]	; 0x24
 8004956:	2b00      	cmp	r3, #0
 8004958:	f43f ad92 	beq.w	8004480 <_strtod_l+0x568>
 800495c:	2600      	movs	r6, #0
 800495e:	2400      	movs	r4, #0
 8004960:	4f32      	ldr	r7, [pc, #200]	; (8004a2c <_strtod_l+0xb14>)
 8004962:	e796      	b.n	8004892 <_strtod_l+0x97a>
 8004964:	9c0b      	ldr	r4, [sp, #44]	; 0x2c
 8004966:	4d30      	ldr	r5, [pc, #192]	; (8004a28 <_strtod_l+0xb10>)
 8004968:	e7ea      	b.n	8004940 <_strtod_l+0xa28>
 800496a:	4b2f      	ldr	r3, [pc, #188]	; (8004a28 <_strtod_l+0xb10>)
 800496c:	2200      	movs	r2, #0
 800496e:	4630      	mov	r0, r6
 8004970:	4639      	mov	r1, r7
 8004972:	f7fb fdb1 	bl	80004d8 <__aeabi_dmul>
 8004976:	9b0b      	ldr	r3, [sp, #44]	; 0x2c
 8004978:	4604      	mov	r4, r0
 800497a:	460d      	mov	r5, r1
 800497c:	b933      	cbnz	r3, 800498c <_strtod_l+0xa74>
 800497e:	f101 4300 	add.w	r3, r1, #2147483648	; 0x80000000
 8004982:	9010      	str	r0, [sp, #64]	; 0x40
 8004984:	9311      	str	r3, [sp, #68]	; 0x44
 8004986:	e9dd 6710 	ldrd	r6, r7, [sp, #64]	; 0x40
 800498a:	e783      	b.n	8004894 <_strtod_l+0x97c>
 800498c:	4602      	mov	r2, r0
 800498e:	460b      	mov	r3, r1
 8004990:	e9cd 2310 	strd	r2, r3, [sp, #64]	; 0x40
 8004994:	e7f7      	b.n	8004986 <_strtod_l+0xa6e>
 8004996:	f103 7954 	add.w	r9, r3, #55574528	; 0x3500000
 800499a:	9b05      	ldr	r3, [sp, #20]
 800499c:	2b00      	cmp	r3, #0
 800499e:	d1a8      	bne.n	80048f2 <_strtod_l+0x9da>
 80049a0:	f029 4300 	bic.w	r3, r9, #2147483648	; 0x80000000
 80049a4:	9a0f      	ldr	r2, [sp, #60]	; 0x3c
 80049a6:	0d1b      	lsrs	r3, r3, #20
 80049a8:	051b      	lsls	r3, r3, #20
 80049aa:	429a      	cmp	r2, r3
 80049ac:	d1a1      	bne.n	80048f2 <_strtod_l+0x9da>
 80049ae:	4620      	mov	r0, r4
 80049b0:	4629      	mov	r1, r5
 80049b2:	f7fc f8d9 	bl	8000b68 <__aeabi_d2lz>
 80049b6:	f7fb fd61 	bl	800047c <__aeabi_l2d>
 80049ba:	4602      	mov	r2, r0
 80049bc:	460b      	mov	r3, r1
 80049be:	4620      	mov	r0, r4
 80049c0:	4629      	mov	r1, r5
 80049c2:	f7fb fbd1 	bl	8000168 <__aeabi_dsub>
 80049c6:	9a0b      	ldr	r2, [sp, #44]	; 0x2c
 80049c8:	f3c9 0313 	ubfx	r3, r9, #0, #20
 80049cc:	ea43 0308 	orr.w	r3, r3, r8
 80049d0:	4313      	orrs	r3, r2
 80049d2:	4604      	mov	r4, r0
 80049d4:	460d      	mov	r5, r1
 80049d6:	d066      	beq.n	8004aa6 <_strtod_l+0xb8e>
 80049d8:	a309      	add	r3, pc, #36	; (adr r3, 8004a00 <_strtod_l+0xae8>)
 80049da:	e9d3 2300 	ldrd	r2, r3, [r3]
 80049de:	f7fb ffed 	bl	80009bc <__aeabi_dcmplt>
 80049e2:	2800      	cmp	r0, #0
 80049e4:	f47f ace2 	bne.w	80043ac <_strtod_l+0x494>
 80049e8:	a307      	add	r3, pc, #28	; (adr r3, 8004a08 <_strtod_l+0xaf0>)
 80049ea:	e9d3 2300 	ldrd	r2, r3, [r3]
 80049ee:	4620      	mov	r0, r4
 80049f0:	4629      	mov	r1, r5
 80049f2:	f7fc f801 	bl	80009f8 <__aeabi_dcmpgt>
 80049f6:	2800      	cmp	r0, #0
 80049f8:	f43f af7b 	beq.w	80048f2 <_strtod_l+0x9da>
 80049fc:	e4d6      	b.n	80043ac <_strtod_l+0x494>
 80049fe:	bf00      	nop
 8004a00:	94a03595 	.word	0x94a03595
 8004a04:	3fdfffff 	.word	0x3fdfffff
 8004a08:	35afe535 	.word	0x35afe535
 8004a0c:	3fe00000 	.word	0x3fe00000
 8004a10:	000fffff 	.word	0x000fffff
 8004a14:	7ff00000 	.word	0x7ff00000
 8004a18:	7fefffff 	.word	0x7fefffff
 8004a1c:	3ff00000 	.word	0x3ff00000
 8004a20:	7fe00000 	.word	0x7fe00000
 8004a24:	7c9fffff 	.word	0x7c9fffff
 8004a28:	3fe00000 	.word	0x3fe00000
 8004a2c:	bff00000 	.word	0xbff00000
 8004a30:	9b05      	ldr	r3, [sp, #20]
 8004a32:	b313      	cbz	r3, 8004a7a <_strtod_l+0xb62>
 8004a34:	9b0f      	ldr	r3, [sp, #60]	; 0x3c
 8004a36:	f1b3 6fd4 	cmp.w	r3, #111149056	; 0x6a00000
 8004a3a:	d81e      	bhi.n	8004a7a <_strtod_l+0xb62>
 8004a3c:	a326      	add	r3, pc, #152	; (adr r3, 8004ad8 <_strtod_l+0xbc0>)
 8004a3e:	e9d3 2300 	ldrd	r2, r3, [r3]
 8004a42:	4620      	mov	r0, r4
 8004a44:	4629      	mov	r1, r5
 8004a46:	f7fb ffc3 	bl	80009d0 <__aeabi_dcmple>
 8004a4a:	b190      	cbz	r0, 8004a72 <_strtod_l+0xb5a>
 8004a4c:	4629      	mov	r1, r5
 8004a4e:	4620      	mov	r0, r4
 8004a50:	f7fc f81a 	bl	8000a88 <__aeabi_d2uiz>
 8004a54:	2801      	cmp	r0, #1
 8004a56:	bf38      	it	cc
 8004a58:	2001      	movcc	r0, #1
 8004a5a:	f7fb fcc3 	bl	80003e4 <__aeabi_ui2d>
 8004a5e:	9b0b      	ldr	r3, [sp, #44]	; 0x2c
 8004a60:	4604      	mov	r4, r0
 8004a62:	460d      	mov	r5, r1
 8004a64:	b9d3      	cbnz	r3, 8004a9c <_strtod_l+0xb84>
 8004a66:	f101 4300 	add.w	r3, r1, #2147483648	; 0x80000000
 8004a6a:	9012      	str	r0, [sp, #72]	; 0x48
 8004a6c:	9313      	str	r3, [sp, #76]	; 0x4c
 8004a6e:	e9dd 6712 	ldrd	r6, r7, [sp, #72]	; 0x48
 8004a72:	9a0f      	ldr	r2, [sp, #60]	; 0x3c
 8004a74:	f107 63d6 	add.w	r3, r7, #112197632	; 0x6b00000
 8004a78:	1a9f      	subs	r7, r3, r2
 8004a7a:	e9dd 010c 	ldrd	r0, r1, [sp, #48]	; 0x30
 8004a7e:	f001 fe41 	bl	8006704 <__ulp>
 8004a82:	4602      	mov	r2, r0
 8004a84:	460b      	mov	r3, r1
 8004a86:	4630      	mov	r0, r6
 8004a88:	4639      	mov	r1, r7
 8004a8a:	f7fb fd25 	bl	80004d8 <__aeabi_dmul>
 8004a8e:	e9dd 230c 	ldrd	r2, r3, [sp, #48]	; 0x30
 8004a92:	f7fb fb6b 	bl	800016c <__adddf3>
 8004a96:	4680      	mov	r8, r0
 8004a98:	4689      	mov	r9, r1
 8004a9a:	e77e      	b.n	800499a <_strtod_l+0xa82>
 8004a9c:	4602      	mov	r2, r0
 8004a9e:	460b      	mov	r3, r1
 8004aa0:	e9cd 2312 	strd	r2, r3, [sp, #72]	; 0x48
 8004aa4:	e7e3      	b.n	8004a6e <_strtod_l+0xb56>
 8004aa6:	a30e      	add	r3, pc, #56	; (adr r3, 8004ae0 <_strtod_l+0xbc8>)
 8004aa8:	e9d3 2300 	ldrd	r2, r3, [r3]
 8004aac:	f7fb ff86 	bl	80009bc <__aeabi_dcmplt>
 8004ab0:	e7a1      	b.n	80049f6 <_strtod_l+0xade>
 8004ab2:	2300      	movs	r3, #0
 8004ab4:	930a      	str	r3, [sp, #40]	; 0x28
 8004ab6:	9b19      	ldr	r3, [sp, #100]	; 0x64
 8004ab8:	9a15      	ldr	r2, [sp, #84]	; 0x54
 8004aba:	6013      	str	r3, [r2, #0]
 8004abc:	f7ff ba71 	b.w	8003fa2 <_strtod_l+0x8a>
 8004ac0:	2a65      	cmp	r2, #101	; 0x65
 8004ac2:	f43f ab63 	beq.w	800418c <_strtod_l+0x274>
 8004ac6:	2a45      	cmp	r2, #69	; 0x45
 8004ac8:	f43f ab60 	beq.w	800418c <_strtod_l+0x274>
 8004acc:	2301      	movs	r3, #1
 8004ace:	f7ff bb95 	b.w	80041fc <_strtod_l+0x2e4>
 8004ad2:	bf00      	nop
 8004ad4:	f3af 8000 	nop.w
 8004ad8:	ffc00000 	.word	0xffc00000
 8004adc:	41dfffff 	.word	0x41dfffff
 8004ae0:	94a03595 	.word	0x94a03595
 8004ae4:	3fcfffff 	.word	0x3fcfffff

08004ae8 <_strtod_r>:
 8004ae8:	4b01      	ldr	r3, [pc, #4]	; (8004af0 <_strtod_r+0x8>)
 8004aea:	f7ff ba15 	b.w	8003f18 <_strtod_l>
 8004aee:	bf00      	nop
 8004af0:	20000084 	.word	0x20000084

08004af4 <_strtol_l.constprop.0>:
 8004af4:	2b01      	cmp	r3, #1
 8004af6:	e92d 47f0 	stmdb	sp!, {r4, r5, r6, r7, r8, r9, sl, lr}
 8004afa:	4680      	mov	r8, r0
 8004afc:	d001      	beq.n	8004b02 <_strtol_l.constprop.0+0xe>
 8004afe:	2b24      	cmp	r3, #36	; 0x24
 8004b00:	d906      	bls.n	8004b10 <_strtol_l.constprop.0+0x1c>
 8004b02:	f7fe fb21 	bl	8003148 <__errno>
 8004b06:	2316      	movs	r3, #22
 8004b08:	6003      	str	r3, [r0, #0]
 8004b0a:	2000      	movs	r0, #0
 8004b0c:	e8bd 87f0 	ldmia.w	sp!, {r4, r5, r6, r7, r8, r9, sl, pc}
 8004b10:	460d      	mov	r5, r1
 8004b12:	4f35      	ldr	r7, [pc, #212]	; (8004be8 <_strtol_l.constprop.0+0xf4>)
 8004b14:	4628      	mov	r0, r5
 8004b16:	f815 4b01 	ldrb.w	r4, [r5], #1
 8004b1a:	5de6      	ldrb	r6, [r4, r7]
 8004b1c:	f016 0608 	ands.w	r6, r6, #8
 8004b20:	d1f8      	bne.n	8004b14 <_strtol_l.constprop.0+0x20>
 8004b22:	2c2d      	cmp	r4, #45	; 0x2d
 8004b24:	d12f      	bne.n	8004b86 <_strtol_l.constprop.0+0x92>
 8004b26:	2601      	movs	r6, #1
 8004b28:	782c      	ldrb	r4, [r5, #0]
 8004b2a:	1c85      	adds	r5, r0, #2
 8004b2c:	2b00      	cmp	r3, #0
 8004b2e:	d057      	beq.n	8004be0 <_strtol_l.constprop.0+0xec>
 8004b30:	2b10      	cmp	r3, #16
 8004b32:	d109      	bne.n	8004b48 <_strtol_l.constprop.0+0x54>
 8004b34:	2c30      	cmp	r4, #48	; 0x30
 8004b36:	d107      	bne.n	8004b48 <_strtol_l.constprop.0+0x54>
 8004b38:	7828      	ldrb	r0, [r5, #0]
 8004b3a:	f000 00df 	and.w	r0, r0, #223	; 0xdf
 8004b3e:	2858      	cmp	r0, #88	; 0x58
 8004b40:	d149      	bne.n	8004bd6 <_strtol_l.constprop.0+0xe2>
 8004b42:	2310      	movs	r3, #16
 8004b44:	786c      	ldrb	r4, [r5, #1]
 8004b46:	3502      	adds	r5, #2
 8004b48:	2700      	movs	r7, #0
 8004b4a:	f106 4e00 	add.w	lr, r6, #2147483648	; 0x80000000
 8004b4e:	f10e 3eff 	add.w	lr, lr, #4294967295
 8004b52:	fbbe f9f3 	udiv	r9, lr, r3
 8004b56:	4638      	mov	r0, r7
 8004b58:	fb03 ea19 	mls	sl, r3, r9, lr
 8004b5c:	f1a4 0c30 	sub.w	ip, r4, #48	; 0x30
 8004b60:	f1bc 0f09 	cmp.w	ip, #9
 8004b64:	d814      	bhi.n	8004b90 <_strtol_l.constprop.0+0x9c>
 8004b66:	4664      	mov	r4, ip
 8004b68:	42a3      	cmp	r3, r4
 8004b6a:	dd22      	ble.n	8004bb2 <_strtol_l.constprop.0+0xbe>
 8004b6c:	2f00      	cmp	r7, #0
 8004b6e:	db1d      	blt.n	8004bac <_strtol_l.constprop.0+0xb8>
 8004b70:	4581      	cmp	r9, r0
 8004b72:	d31b      	bcc.n	8004bac <_strtol_l.constprop.0+0xb8>
 8004b74:	d101      	bne.n	8004b7a <_strtol_l.constprop.0+0x86>
 8004b76:	45a2      	cmp	sl, r4
 8004b78:	db18      	blt.n	8004bac <_strtol_l.constprop.0+0xb8>
 8004b7a:	2701      	movs	r7, #1
 8004b7c:	fb00 4003 	mla	r0, r0, r3, r4
 8004b80:	f815 4b01 	ldrb.w	r4, [r5], #1
 8004b84:	e7ea      	b.n	8004b5c <_strtol_l.constprop.0+0x68>
 8004b86:	2c2b      	cmp	r4, #43	; 0x2b
 8004b88:	bf04      	itt	eq
 8004b8a:	782c      	ldrbeq	r4, [r5, #0]
 8004b8c:	1c85      	addeq	r5, r0, #2
 8004b8e:	e7cd      	b.n	8004b2c <_strtol_l.constprop.0+0x38>
 8004b90:	f1a4 0c41 	sub.w	ip, r4, #65	; 0x41
 8004b94:	f1bc 0f19 	cmp.w	ip, #25
 8004b98:	d801      	bhi.n	8004b9e <_strtol_l.constprop.0+0xaa>
 8004b9a:	3c37      	subs	r4, #55	; 0x37
 8004b9c:	e7e4      	b.n	8004b68 <_strtol_l.constprop.0+0x74>
 8004b9e:	f1a4 0c61 	sub.w	ip, r4, #97	; 0x61
 8004ba2:	f1bc 0f19 	cmp.w	ip, #25
 8004ba6:	d804      	bhi.n	8004bb2 <_strtol_l.constprop.0+0xbe>
 8004ba8:	3c57      	subs	r4, #87	; 0x57
 8004baa:	e7dd      	b.n	8004b68 <_strtol_l.constprop.0+0x74>
 8004bac:	f04f 37ff 	mov.w	r7, #4294967295
 8004bb0:	e7e6      	b.n	8004b80 <_strtol_l.constprop.0+0x8c>
 8004bb2:	2f00      	cmp	r7, #0
 8004bb4:	da07      	bge.n	8004bc6 <_strtol_l.constprop.0+0xd2>
 8004bb6:	2322      	movs	r3, #34	; 0x22
 8004bb8:	4670      	mov	r0, lr
 8004bba:	f8c8 3000 	str.w	r3, [r8]
 8004bbe:	2a00      	cmp	r2, #0
 8004bc0:	d0a4      	beq.n	8004b0c <_strtol_l.constprop.0+0x18>
 8004bc2:	1e69      	subs	r1, r5, #1
 8004bc4:	e005      	b.n	8004bd2 <_strtol_l.constprop.0+0xde>
 8004bc6:	b106      	cbz	r6, 8004bca <_strtol_l.constprop.0+0xd6>
 8004bc8:	4240      	negs	r0, r0
 8004bca:	2a00      	cmp	r2, #0
 8004bcc:	d09e      	beq.n	8004b0c <_strtol_l.constprop.0+0x18>
 8004bce:	2f00      	cmp	r7, #0
 8004bd0:	d1f7      	bne.n	8004bc2 <_strtol_l.constprop.0+0xce>
 8004bd2:	6011      	str	r1, [r2, #0]
 8004bd4:	e79a      	b.n	8004b0c <_strtol_l.constprop.0+0x18>
 8004bd6:	2430      	movs	r4, #48	; 0x30
 8004bd8:	2b00      	cmp	r3, #0
 8004bda:	d1b5      	bne.n	8004b48 <_strtol_l.constprop.0+0x54>
 8004bdc:	2308      	movs	r3, #8
 8004bde:	e7b3      	b.n	8004b48 <_strtol_l.constprop.0+0x54>
 8004be0:	2c30      	cmp	r4, #48	; 0x30
 8004be2:	d0a9      	beq.n	8004b38 <_strtol_l.constprop.0+0x44>
 8004be4:	230a      	movs	r3, #10
 8004be6:	e7af      	b.n	8004b48 <_strtol_l.constprop.0+0x54>
 8004be8:	08007ae9 	.word	0x08007ae9

08004bec <_strtol_r>:
 8004bec:	f7ff bf82 	b.w	8004af4 <_strtol_l.constprop.0>

08004bf0 <quorem>:
 8004bf0:	e92d 4ff7 	stmdb	sp!, {r0, r1, r2, r4, r5, r6, r7, r8, r9, sl, fp, lr}
 8004bf4:	6903      	ldr	r3, [r0, #16]
 8004bf6:	690c      	ldr	r4, [r1, #16]
 8004bf8:	4607      	mov	r7, r0
 8004bfa:	42a3      	cmp	r3, r4
 8004bfc:	f2c0 8082 	blt.w	8004d04 <quorem+0x114>
 8004c00:	3c01      	subs	r4, #1
 8004c02:	f100 0514 	add.w	r5, r0, #20
 8004c06:	f101 0814 	add.w	r8, r1, #20
 8004c0a:	eb05 0384 	add.w	r3, r5, r4, lsl #2
 8004c0e:	9301      	str	r3, [sp, #4]
 8004c10:	f858 3024 	ldr.w	r3, [r8, r4, lsl #2]
 8004c14:	f855 2024 	ldr.w	r2, [r5, r4, lsl #2]
 8004c18:	3301      	adds	r3, #1
 8004c1a:	429a      	cmp	r2, r3
 8004c1c:	fbb2 f6f3 	udiv	r6, r2, r3
 8004c20:	ea4f 0b84 	mov.w	fp, r4, lsl #2
 8004c24:	eb08 0984 	add.w	r9, r8, r4, lsl #2
 8004c28:	d331      	bcc.n	8004c8e <quorem+0x9e>
 8004c2a:	f04f 0e00 	mov.w	lr, #0
 8004c2e:	4640      	mov	r0, r8
 8004c30:	46ac      	mov	ip, r5
 8004c32:	46f2      	mov	sl, lr
 8004c34:	f850 2b04 	ldr.w	r2, [r0], #4
 8004c38:	b293      	uxth	r3, r2
 8004c3a:	fb06 e303 	mla	r3, r6, r3, lr
 8004c3e:	0c12      	lsrs	r2, r2, #16
 8004c40:	ea4f 4e13 	mov.w	lr, r3, lsr #16
 8004c44:	b29b      	uxth	r3, r3
 8004c46:	fb06 e202 	mla	r2, r6, r2, lr
 8004c4a:	ebaa 0303 	sub.w	r3, sl, r3
 8004c4e:	f8dc a000 	ldr.w	sl, [ip]
 8004c52:	ea4f 4e12 	mov.w	lr, r2, lsr #16
 8004c56:	fa1f fa8a 	uxth.w	sl, sl
 8004c5a:	4453      	add	r3, sl
 8004c5c:	f8dc a000 	ldr.w	sl, [ip]
 8004c60:	b292      	uxth	r2, r2
 8004c62:	ebc2 421a 	rsb	r2, r2, sl, lsr #16
 8004c66:	eb02 4223 	add.w	r2, r2, r3, asr #16
 8004c6a:	b29b      	uxth	r3, r3
 8004c6c:	ea43 4302 	orr.w	r3, r3, r2, lsl #16
 8004c70:	4581      	cmp	r9, r0
 8004c72:	ea4f 4a22 	mov.w	sl, r2, asr #16
 8004c76:	f84c 3b04 	str.w	r3, [ip], #4
 8004c7a:	d2db      	bcs.n	8004c34 <quorem+0x44>
 8004c7c:	f855 300b 	ldr.w	r3, [r5, fp]
 8004c80:	b92b      	cbnz	r3, 8004c8e <quorem+0x9e>
 8004c82:	9b01      	ldr	r3, [sp, #4]
 8004c84:	3b04      	subs	r3, #4
 8004c86:	429d      	cmp	r5, r3
 8004c88:	461a      	mov	r2, r3
 8004c8a:	d32f      	bcc.n	8004cec <quorem+0xfc>
 8004c8c:	613c      	str	r4, [r7, #16]
 8004c8e:	4638      	mov	r0, r7
 8004c90:	f001 fc90 	bl	80065b4 <__mcmp>
 8004c94:	2800      	cmp	r0, #0
 8004c96:	db25      	blt.n	8004ce4 <quorem+0xf4>
 8004c98:	4628      	mov	r0, r5
 8004c9a:	f04f 0c00 	mov.w	ip, #0
 8004c9e:	3601      	adds	r6, #1
 8004ca0:	f858 1b04 	ldr.w	r1, [r8], #4
 8004ca4:	f8d0 e000 	ldr.w	lr, [r0]
 8004ca8:	b28b      	uxth	r3, r1
 8004caa:	ebac 0303 	sub.w	r3, ip, r3
 8004cae:	fa1f f28e 	uxth.w	r2, lr
 8004cb2:	4413      	add	r3, r2
 8004cb4:	0c0a      	lsrs	r2, r1, #16
 8004cb6:	ebc2 421e 	rsb	r2, r2, lr, lsr #16
 8004cba:	eb02 4223 	add.w	r2, r2, r3, asr #16
 8004cbe:	b29b      	uxth	r3, r3
 8004cc0:	ea43 4302 	orr.w	r3, r3, r2, lsl #16
 8004cc4:	45c1      	cmp	r9, r8
 8004cc6:	ea4f 4c22 	mov.w	ip, r2, asr #16
 8004cca:	f840 3b04 	str.w	r3, [r0], #4
 8004cce:	d2e7      	bcs.n	8004ca0 <quorem+0xb0>
 8004cd0:	f855 2024 	ldr.w	r2, [r5, r4, lsl #2]
 8004cd4:	eb05 0384 	add.w	r3, r5, r4, lsl #2
 8004cd8:	b922      	cbnz	r2, 8004ce4 <quorem+0xf4>
 8004cda:	3b04      	subs	r3, #4
 8004cdc:	429d      	cmp	r5, r3
 8004cde:	461a      	mov	r2, r3
 8004ce0:	d30a      	bcc.n	8004cf8 <quorem+0x108>
 8004ce2:	613c      	str	r4, [r7, #16]
 8004ce4:	4630      	mov	r0, r6
 8004ce6:	b003      	add	sp, #12
 8004ce8:	e8bd 8ff0 	ldmia.w	sp!, {r4, r5, r6, r7, r8, r9, sl, fp, pc}
 8004cec:	6812      	ldr	r2, [r2, #0]
 8004cee:	3b04      	subs	r3, #4
 8004cf0:	2a00      	cmp	r2, #0
 8004cf2:	d1cb      	bne.n	8004c8c <quorem+0x9c>
 8004cf4:	3c01      	subs	r4, #1
 8004cf6:	e7c6      	b.n	8004c86 <quorem+0x96>
 8004cf8:	6812      	ldr	r2, [r2, #0]
 8004cfa:	3b04      	subs	r3, #4
 8004cfc:	2a00      	cmp	r2, #0
 8004cfe:	d1f0      	bne.n	8004ce2 <quorem+0xf2>
 8004d00:	3c01      	subs	r4, #1
 8004d02:	e7eb      	b.n	8004cdc <quorem+0xec>
 8004d04:	2000      	movs	r0, #0
 8004d06:	e7ee      	b.n	8004ce6 <quorem+0xf6>

08004d08 <_dtoa_r>:
 8004d08:	e92d 4ff0 	stmdb	sp!, {r4, r5, r6, r7, r8, r9, sl, fp, lr}
 8004d0c:	4616      	mov	r6, r2
 8004d0e:	461f      	mov	r7, r3
 8004d10:	6a44      	ldr	r4, [r0, #36]	; 0x24
 8004d12:	b099      	sub	sp, #100	; 0x64
 8004d14:	4605      	mov	r5, r0
 8004d16:	e9cd 6704 	strd	r6, r7, [sp, #16]
 8004d1a:	f8dd 8094 	ldr.w	r8, [sp, #148]	; 0x94
 8004d1e:	b974      	cbnz	r4, 8004d3e <_dtoa_r+0x36>
 8004d20:	2010      	movs	r0, #16
 8004d22:	f001 f949 	bl	8005fb8 <malloc>
 8004d26:	4602      	mov	r2, r0
 8004d28:	6268      	str	r0, [r5, #36]	; 0x24
 8004d2a:	b920      	cbnz	r0, 8004d36 <_dtoa_r+0x2e>
 8004d2c:	21ea      	movs	r1, #234	; 0xea
 8004d2e:	4ba8      	ldr	r3, [pc, #672]	; (8004fd0 <_dtoa_r+0x2c8>)
 8004d30:	48a8      	ldr	r0, [pc, #672]	; (8004fd4 <_dtoa_r+0x2cc>)
 8004d32:	f002 f8b3 	bl	8006e9c <__assert_func>
 8004d36:	e9c0 4401 	strd	r4, r4, [r0, #4]
 8004d3a:	6004      	str	r4, [r0, #0]
 8004d3c:	60c4      	str	r4, [r0, #12]
 8004d3e:	6a6b      	ldr	r3, [r5, #36]	; 0x24
 8004d40:	6819      	ldr	r1, [r3, #0]
 8004d42:	b151      	cbz	r1, 8004d5a <_dtoa_r+0x52>
 8004d44:	685a      	ldr	r2, [r3, #4]
 8004d46:	2301      	movs	r3, #1
 8004d48:	4093      	lsls	r3, r2
 8004d4a:	604a      	str	r2, [r1, #4]
 8004d4c:	608b      	str	r3, [r1, #8]
 8004d4e:	4628      	mov	r0, r5
 8004d50:	f001 f9a8 	bl	80060a4 <_Bfree>
 8004d54:	2200      	movs	r2, #0
 8004d56:	6a6b      	ldr	r3, [r5, #36]	; 0x24
 8004d58:	601a      	str	r2, [r3, #0]
 8004d5a:	1e3b      	subs	r3, r7, #0
 8004d5c:	bfaf      	iteee	ge
 8004d5e:	2300      	movge	r3, #0
 8004d60:	2201      	movlt	r2, #1
 8004d62:	f023 4300 	biclt.w	r3, r3, #2147483648	; 0x80000000
 8004d66:	9305      	strlt	r3, [sp, #20]
 8004d68:	bfa8      	it	ge
 8004d6a:	f8c8 3000 	strge.w	r3, [r8]
 8004d6e:	f8dd 9014 	ldr.w	r9, [sp, #20]
 8004d72:	4b99      	ldr	r3, [pc, #612]	; (8004fd8 <_dtoa_r+0x2d0>)
 8004d74:	bfb8      	it	lt
 8004d76:	f8c8 2000 	strlt.w	r2, [r8]
 8004d7a:	ea33 0309 	bics.w	r3, r3, r9
 8004d7e:	d119      	bne.n	8004db4 <_dtoa_r+0xac>
 8004d80:	f242 730f 	movw	r3, #9999	; 0x270f
 8004d84:	9a24      	ldr	r2, [sp, #144]	; 0x90
 8004d86:	6013      	str	r3, [r2, #0]
 8004d88:	f3c9 0313 	ubfx	r3, r9, #0, #20
 8004d8c:	4333      	orrs	r3, r6
 8004d8e:	f000 857f 	beq.w	8005890 <_dtoa_r+0xb88>
 8004d92:	9b26      	ldr	r3, [sp, #152]	; 0x98
 8004d94:	b953      	cbnz	r3, 8004dac <_dtoa_r+0xa4>
 8004d96:	4b91      	ldr	r3, [pc, #580]	; (8004fdc <_dtoa_r+0x2d4>)
 8004d98:	e022      	b.n	8004de0 <_dtoa_r+0xd8>
 8004d9a:	4b91      	ldr	r3, [pc, #580]	; (8004fe0 <_dtoa_r+0x2d8>)
 8004d9c:	9303      	str	r3, [sp, #12]
 8004d9e:	3308      	adds	r3, #8
 8004da0:	9a26      	ldr	r2, [sp, #152]	; 0x98
 8004da2:	6013      	str	r3, [r2, #0]
 8004da4:	9803      	ldr	r0, [sp, #12]
 8004da6:	b019      	add	sp, #100	; 0x64
 8004da8:	e8bd 8ff0 	ldmia.w	sp!, {r4, r5, r6, r7, r8, r9, sl, fp, pc}
 8004dac:	4b8b      	ldr	r3, [pc, #556]	; (8004fdc <_dtoa_r+0x2d4>)
 8004dae:	9303      	str	r3, [sp, #12]
 8004db0:	3303      	adds	r3, #3
 8004db2:	e7f5      	b.n	8004da0 <_dtoa_r+0x98>
 8004db4:	e9dd 3404 	ldrd	r3, r4, [sp, #16]
 8004db8:	e9cd 340c 	strd	r3, r4, [sp, #48]	; 0x30
 8004dbc:	e9dd 010c 	ldrd	r0, r1, [sp, #48]	; 0x30
 8004dc0:	2200      	movs	r2, #0
 8004dc2:	2300      	movs	r3, #0
 8004dc4:	f7fb fdf0 	bl	80009a8 <__aeabi_dcmpeq>
 8004dc8:	4680      	mov	r8, r0
 8004dca:	b158      	cbz	r0, 8004de4 <_dtoa_r+0xdc>
 8004dcc:	2301      	movs	r3, #1
 8004dce:	9a24      	ldr	r2, [sp, #144]	; 0x90
 8004dd0:	6013      	str	r3, [r2, #0]
 8004dd2:	9b26      	ldr	r3, [sp, #152]	; 0x98
 8004dd4:	2b00      	cmp	r3, #0
 8004dd6:	f000 8558 	beq.w	800588a <_dtoa_r+0xb82>
 8004dda:	4882      	ldr	r0, [pc, #520]	; (8004fe4 <_dtoa_r+0x2dc>)
 8004ddc:	6018      	str	r0, [r3, #0]
 8004dde:	1e43      	subs	r3, r0, #1
 8004de0:	9303      	str	r3, [sp, #12]
 8004de2:	e7df      	b.n	8004da4 <_dtoa_r+0x9c>
 8004de4:	ab16      	add	r3, sp, #88	; 0x58
 8004de6:	9301      	str	r3, [sp, #4]
 8004de8:	ab17      	add	r3, sp, #92	; 0x5c
 8004dea:	9300      	str	r3, [sp, #0]
 8004dec:	4628      	mov	r0, r5
 8004dee:	e9dd 230c 	ldrd	r2, r3, [sp, #48]	; 0x30
 8004df2:	f001 fd01 	bl	80067f8 <__d2b>
 8004df6:	f3c9 540a 	ubfx	r4, r9, #20, #11
 8004dfa:	4683      	mov	fp, r0
 8004dfc:	2c00      	cmp	r4, #0
 8004dfe:	d07f      	beq.n	8004f00 <_dtoa_r+0x1f8>
 8004e00:	e9dd 010c 	ldrd	r0, r1, [sp, #48]	; 0x30
 8004e04:	9b0d      	ldr	r3, [sp, #52]	; 0x34
 8004e06:	f2a4 34ff 	subw	r4, r4, #1023	; 0x3ff
 8004e0a:	f3c3 0313 	ubfx	r3, r3, #0, #20
 8004e0e:	f043 517f 	orr.w	r1, r3, #1069547520	; 0x3fc00000
 8004e12:	f441 1140 	orr.w	r1, r1, #3145728	; 0x300000
 8004e16:	f8cd 804c 	str.w	r8, [sp, #76]	; 0x4c
 8004e1a:	2200      	movs	r2, #0
 8004e1c:	4b72      	ldr	r3, [pc, #456]	; (8004fe8 <_dtoa_r+0x2e0>)
 8004e1e:	f7fb f9a3 	bl	8000168 <__aeabi_dsub>
 8004e22:	a365      	add	r3, pc, #404	; (adr r3, 8004fb8 <_dtoa_r+0x2b0>)
 8004e24:	e9d3 2300 	ldrd	r2, r3, [r3]
 8004e28:	f7fb fb56 	bl	80004d8 <__aeabi_dmul>
 8004e2c:	a364      	add	r3, pc, #400	; (adr r3, 8004fc0 <_dtoa_r+0x2b8>)
 8004e2e:	e9d3 2300 	ldrd	r2, r3, [r3]
 8004e32:	f7fb f99b 	bl	800016c <__adddf3>
 8004e36:	4606      	mov	r6, r0
 8004e38:	4620      	mov	r0, r4
 8004e3a:	460f      	mov	r7, r1
 8004e3c:	f7fb fae2 	bl	8000404 <__aeabi_i2d>
 8004e40:	a361      	add	r3, pc, #388	; (adr r3, 8004fc8 <_dtoa_r+0x2c0>)
 8004e42:	e9d3 2300 	ldrd	r2, r3, [r3]
 8004e46:	f7fb fb47 	bl	80004d8 <__aeabi_dmul>
 8004e4a:	4602      	mov	r2, r0
 8004e4c:	460b      	mov	r3, r1
 8004e4e:	4630      	mov	r0, r6
 8004e50:	4639      	mov	r1, r7
 8004e52:	f7fb f98b 	bl	800016c <__adddf3>
 8004e56:	4606      	mov	r6, r0
 8004e58:	460f      	mov	r7, r1
 8004e5a:	f7fb fded 	bl	8000a38 <__aeabi_d2iz>
 8004e5e:	2200      	movs	r2, #0
 8004e60:	4682      	mov	sl, r0
 8004e62:	2300      	movs	r3, #0
 8004e64:	4630      	mov	r0, r6
 8004e66:	4639      	mov	r1, r7
 8004e68:	f7fb fda8 	bl	80009bc <__aeabi_dcmplt>
 8004e6c:	b148      	cbz	r0, 8004e82 <_dtoa_r+0x17a>
 8004e6e:	4650      	mov	r0, sl
 8004e70:	f7fb fac8 	bl	8000404 <__aeabi_i2d>
 8004e74:	4632      	mov	r2, r6
 8004e76:	463b      	mov	r3, r7
 8004e78:	f7fb fd96 	bl	80009a8 <__aeabi_dcmpeq>
 8004e7c:	b908      	cbnz	r0, 8004e82 <_dtoa_r+0x17a>
 8004e7e:	f10a 3aff 	add.w	sl, sl, #4294967295
 8004e82:	f1ba 0f16 	cmp.w	sl, #22
 8004e86:	d858      	bhi.n	8004f3a <_dtoa_r+0x232>
 8004e88:	e9dd 010c 	ldrd	r0, r1, [sp, #48]	; 0x30
 8004e8c:	4b57      	ldr	r3, [pc, #348]	; (8004fec <_dtoa_r+0x2e4>)
 8004e8e:	eb03 03ca 	add.w	r3, r3, sl, lsl #3
 8004e92:	e9d3 2300 	ldrd	r2, r3, [r3]
 8004e96:	f7fb fd91 	bl	80009bc <__aeabi_dcmplt>
 8004e9a:	2800      	cmp	r0, #0
 8004e9c:	d04f      	beq.n	8004f3e <_dtoa_r+0x236>
 8004e9e:	2300      	movs	r3, #0
 8004ea0:	f10a 3aff 	add.w	sl, sl, #4294967295
 8004ea4:	930f      	str	r3, [sp, #60]	; 0x3c
 8004ea6:	9b16      	ldr	r3, [sp, #88]	; 0x58
 8004ea8:	1b1c      	subs	r4, r3, r4
 8004eaa:	1e63      	subs	r3, r4, #1
 8004eac:	9309      	str	r3, [sp, #36]	; 0x24
 8004eae:	bf49      	itett	mi
 8004eb0:	f1c4 0301 	rsbmi	r3, r4, #1
 8004eb4:	2300      	movpl	r3, #0
 8004eb6:	9306      	strmi	r3, [sp, #24]
 8004eb8:	2300      	movmi	r3, #0
 8004eba:	bf54      	ite	pl
 8004ebc:	9306      	strpl	r3, [sp, #24]
 8004ebe:	9309      	strmi	r3, [sp, #36]	; 0x24
 8004ec0:	f1ba 0f00 	cmp.w	sl, #0
 8004ec4:	db3d      	blt.n	8004f42 <_dtoa_r+0x23a>
 8004ec6:	9b09      	ldr	r3, [sp, #36]	; 0x24
 8004ec8:	f8cd a038 	str.w	sl, [sp, #56]	; 0x38
 8004ecc:	4453      	add	r3, sl
 8004ece:	9309      	str	r3, [sp, #36]	; 0x24
 8004ed0:	2300      	movs	r3, #0
 8004ed2:	930a      	str	r3, [sp, #40]	; 0x28
 8004ed4:	9b22      	ldr	r3, [sp, #136]	; 0x88
 8004ed6:	2b09      	cmp	r3, #9
 8004ed8:	f200 808c 	bhi.w	8004ff4 <_dtoa_r+0x2ec>
 8004edc:	2b05      	cmp	r3, #5
 8004ede:	bfc4      	itt	gt
 8004ee0:	3b04      	subgt	r3, #4
 8004ee2:	9322      	strgt	r3, [sp, #136]	; 0x88
 8004ee4:	9b22      	ldr	r3, [sp, #136]	; 0x88
 8004ee6:	bfc8      	it	gt
 8004ee8:	2400      	movgt	r4, #0
 8004eea:	f1a3 0302 	sub.w	r3, r3, #2
 8004eee:	bfd8      	it	le
 8004ef0:	2401      	movle	r4, #1
 8004ef2:	2b03      	cmp	r3, #3
 8004ef4:	f200 808a 	bhi.w	800500c <_dtoa_r+0x304>
 8004ef8:	e8df f003 	tbb	[pc, r3]
 8004efc:	5b4d4f2d 	.word	0x5b4d4f2d
 8004f00:	e9dd 4316 	ldrd	r4, r3, [sp, #88]	; 0x58
 8004f04:	441c      	add	r4, r3
 8004f06:	f204 4332 	addw	r3, r4, #1074	; 0x432
 8004f0a:	2b20      	cmp	r3, #32
 8004f0c:	bfc3      	ittte	gt
 8004f0e:	f1c3 0340 	rsbgt	r3, r3, #64	; 0x40
 8004f12:	f204 4012 	addwgt	r0, r4, #1042	; 0x412
 8004f16:	fa09 f303 	lslgt.w	r3, r9, r3
 8004f1a:	f1c3 0320 	rsble	r3, r3, #32
 8004f1e:	bfc6      	itte	gt
 8004f20:	fa26 f000 	lsrgt.w	r0, r6, r0
 8004f24:	4318      	orrgt	r0, r3
 8004f26:	fa06 f003 	lslle.w	r0, r6, r3
 8004f2a:	f7fb fa5b 	bl	80003e4 <__aeabi_ui2d>
 8004f2e:	2301      	movs	r3, #1
 8004f30:	f1a1 71f8 	sub.w	r1, r1, #32505856	; 0x1f00000
 8004f34:	3c01      	subs	r4, #1
 8004f36:	9313      	str	r3, [sp, #76]	; 0x4c
 8004f38:	e76f      	b.n	8004e1a <_dtoa_r+0x112>
 8004f3a:	2301      	movs	r3, #1
 8004f3c:	e7b2      	b.n	8004ea4 <_dtoa_r+0x19c>
 8004f3e:	900f      	str	r0, [sp, #60]	; 0x3c
 8004f40:	e7b1      	b.n	8004ea6 <_dtoa_r+0x19e>
 8004f42:	9b06      	ldr	r3, [sp, #24]
 8004f44:	eba3 030a 	sub.w	r3, r3, sl
 8004f48:	9306      	str	r3, [sp, #24]
 8004f4a:	f1ca 0300 	rsb	r3, sl, #0
 8004f4e:	930a      	str	r3, [sp, #40]	; 0x28
 8004f50:	2300      	movs	r3, #0
 8004f52:	930e      	str	r3, [sp, #56]	; 0x38
 8004f54:	e7be      	b.n	8004ed4 <_dtoa_r+0x1cc>
 8004f56:	2300      	movs	r3, #0
 8004f58:	930b      	str	r3, [sp, #44]	; 0x2c
 8004f5a:	9b23      	ldr	r3, [sp, #140]	; 0x8c
 8004f5c:	2b00      	cmp	r3, #0
 8004f5e:	dc58      	bgt.n	8005012 <_dtoa_r+0x30a>
 8004f60:	f04f 0901 	mov.w	r9, #1
 8004f64:	464b      	mov	r3, r9
 8004f66:	f8cd 9020 	str.w	r9, [sp, #32]
 8004f6a:	f8cd 908c 	str.w	r9, [sp, #140]	; 0x8c
 8004f6e:	2200      	movs	r2, #0
 8004f70:	6a68      	ldr	r0, [r5, #36]	; 0x24
 8004f72:	6042      	str	r2, [r0, #4]
 8004f74:	2204      	movs	r2, #4
 8004f76:	f102 0614 	add.w	r6, r2, #20
 8004f7a:	429e      	cmp	r6, r3
 8004f7c:	6841      	ldr	r1, [r0, #4]
 8004f7e:	d94e      	bls.n	800501e <_dtoa_r+0x316>
 8004f80:	4628      	mov	r0, r5
 8004f82:	f001 f84f 	bl	8006024 <_Balloc>
 8004f86:	9003      	str	r0, [sp, #12]
 8004f88:	2800      	cmp	r0, #0
 8004f8a:	d14c      	bne.n	8005026 <_dtoa_r+0x31e>
 8004f8c:	4602      	mov	r2, r0
 8004f8e:	f44f 71d5 	mov.w	r1, #426	; 0x1aa
 8004f92:	4b17      	ldr	r3, [pc, #92]	; (8004ff0 <_dtoa_r+0x2e8>)
 8004f94:	e6cc      	b.n	8004d30 <_dtoa_r+0x28>
 8004f96:	2301      	movs	r3, #1
 8004f98:	e7de      	b.n	8004f58 <_dtoa_r+0x250>
 8004f9a:	2300      	movs	r3, #0
 8004f9c:	930b      	str	r3, [sp, #44]	; 0x2c
 8004f9e:	9b23      	ldr	r3, [sp, #140]	; 0x8c
 8004fa0:	eb0a 0903 	add.w	r9, sl, r3
 8004fa4:	f109 0301 	add.w	r3, r9, #1
 8004fa8:	2b01      	cmp	r3, #1
 8004faa:	9308      	str	r3, [sp, #32]
 8004fac:	bfb8      	it	lt
 8004fae:	2301      	movlt	r3, #1
 8004fb0:	e7dd      	b.n	8004f6e <_dtoa_r+0x266>
 8004fb2:	2301      	movs	r3, #1
 8004fb4:	e7f2      	b.n	8004f9c <_dtoa_r+0x294>
 8004fb6:	bf00      	nop
 8004fb8:	636f4361 	.word	0x636f4361
 8004fbc:	3fd287a7 	.word	0x3fd287a7
 8004fc0:	8b60c8b3 	.word	0x8b60c8b3
 8004fc4:	3fc68a28 	.word	0x3fc68a28
 8004fc8:	509f79fb 	.word	0x509f79fb
 8004fcc:	3fd34413 	.word	0x3fd34413
 8004fd0:	08007bf6 	.word	0x08007bf6
 8004fd4:	08007c0d 	.word	0x08007c0d
 8004fd8:	7ff00000 	.word	0x7ff00000
 8004fdc:	08007bf2 	.word	0x08007bf2
 8004fe0:	08007be9 	.word	0x08007be9
 8004fe4:	08007a69 	.word	0x08007a69
 8004fe8:	3ff80000 	.word	0x3ff80000
 8004fec:	08007d78 	.word	0x08007d78
 8004ff0:	08007c68 	.word	0x08007c68
 8004ff4:	2401      	movs	r4, #1
 8004ff6:	2300      	movs	r3, #0
 8004ff8:	940b      	str	r4, [sp, #44]	; 0x2c
 8004ffa:	9322      	str	r3, [sp, #136]	; 0x88
 8004ffc:	f04f 39ff 	mov.w	r9, #4294967295
 8005000:	2200      	movs	r2, #0
 8005002:	2312      	movs	r3, #18
 8005004:	f8cd 9020 	str.w	r9, [sp, #32]
 8005008:	9223      	str	r2, [sp, #140]	; 0x8c
 800500a:	e7b0      	b.n	8004f6e <_dtoa_r+0x266>
 800500c:	2301      	movs	r3, #1
 800500e:	930b      	str	r3, [sp, #44]	; 0x2c
 8005010:	e7f4      	b.n	8004ffc <_dtoa_r+0x2f4>
 8005012:	f8dd 908c 	ldr.w	r9, [sp, #140]	; 0x8c
 8005016:	464b      	mov	r3, r9
 8005018:	f8cd 9020 	str.w	r9, [sp, #32]
 800501c:	e7a7      	b.n	8004f6e <_dtoa_r+0x266>
 800501e:	3101      	adds	r1, #1
 8005020:	6041      	str	r1, [r0, #4]
 8005022:	0052      	lsls	r2, r2, #1
 8005024:	e7a7      	b.n	8004f76 <_dtoa_r+0x26e>
 8005026:	6a6b      	ldr	r3, [r5, #36]	; 0x24
 8005028:	9a03      	ldr	r2, [sp, #12]
 800502a:	601a      	str	r2, [r3, #0]
 800502c:	9b08      	ldr	r3, [sp, #32]
 800502e:	2b0e      	cmp	r3, #14
 8005030:	f200 80a8 	bhi.w	8005184 <_dtoa_r+0x47c>
 8005034:	2c00      	cmp	r4, #0
 8005036:	f000 80a5 	beq.w	8005184 <_dtoa_r+0x47c>
 800503a:	f1ba 0f00 	cmp.w	sl, #0
 800503e:	dd34      	ble.n	80050aa <_dtoa_r+0x3a2>
 8005040:	4a9a      	ldr	r2, [pc, #616]	; (80052ac <_dtoa_r+0x5a4>)
 8005042:	f00a 030f 	and.w	r3, sl, #15
 8005046:	eb02 03c3 	add.w	r3, r2, r3, lsl #3
 800504a:	f41a 7f80 	tst.w	sl, #256	; 0x100
 800504e:	e9d3 3400 	ldrd	r3, r4, [r3]
 8005052:	e9cd 3410 	strd	r3, r4, [sp, #64]	; 0x40
 8005056:	ea4f 142a 	mov.w	r4, sl, asr #4
 800505a:	d016      	beq.n	800508a <_dtoa_r+0x382>
 800505c:	e9dd 010c 	ldrd	r0, r1, [sp, #48]	; 0x30
 8005060:	4b93      	ldr	r3, [pc, #588]	; (80052b0 <_dtoa_r+0x5a8>)
 8005062:	2703      	movs	r7, #3
 8005064:	e9d3 2308 	ldrd	r2, r3, [r3, #32]
 8005068:	f7fb fb60 	bl	800072c <__aeabi_ddiv>
 800506c:	e9cd 0104 	strd	r0, r1, [sp, #16]
 8005070:	f004 040f 	and.w	r4, r4, #15
 8005074:	4e8e      	ldr	r6, [pc, #568]	; (80052b0 <_dtoa_r+0x5a8>)
 8005076:	b954      	cbnz	r4, 800508e <_dtoa_r+0x386>
 8005078:	e9dd 2310 	ldrd	r2, r3, [sp, #64]	; 0x40
 800507c:	e9dd 0104 	ldrd	r0, r1, [sp, #16]
 8005080:	f7fb fb54 	bl	800072c <__aeabi_ddiv>
 8005084:	e9cd 0104 	strd	r0, r1, [sp, #16]
 8005088:	e029      	b.n	80050de <_dtoa_r+0x3d6>
 800508a:	2702      	movs	r7, #2
 800508c:	e7f2      	b.n	8005074 <_dtoa_r+0x36c>
 800508e:	07e1      	lsls	r1, r4, #31
 8005090:	d508      	bpl.n	80050a4 <_dtoa_r+0x39c>
 8005092:	e9dd 0110 	ldrd	r0, r1, [sp, #64]	; 0x40
 8005096:	e9d6 2300 	ldrd	r2, r3, [r6]
 800509a:	f7fb fa1d 	bl	80004d8 <__aeabi_dmul>
 800509e:	e9cd 0110 	strd	r0, r1, [sp, #64]	; 0x40
 80050a2:	3701      	adds	r7, #1
 80050a4:	1064      	asrs	r4, r4, #1
 80050a6:	3608      	adds	r6, #8
 80050a8:	e7e5      	b.n	8005076 <_dtoa_r+0x36e>
 80050aa:	f000 80a5 	beq.w	80051f8 <_dtoa_r+0x4f0>
 80050ae:	e9dd 010c 	ldrd	r0, r1, [sp, #48]	; 0x30
 80050b2:	f1ca 0400 	rsb	r4, sl, #0
 80050b6:	4b7d      	ldr	r3, [pc, #500]	; (80052ac <_dtoa_r+0x5a4>)
 80050b8:	f004 020f 	and.w	r2, r4, #15
 80050bc:	eb03 03c2 	add.w	r3, r3, r2, lsl #3
 80050c0:	e9d3 2300 	ldrd	r2, r3, [r3]
 80050c4:	f7fb fa08 	bl	80004d8 <__aeabi_dmul>
 80050c8:	2702      	movs	r7, #2
 80050ca:	2300      	movs	r3, #0
 80050cc:	e9cd 0104 	strd	r0, r1, [sp, #16]
 80050d0:	4e77      	ldr	r6, [pc, #476]	; (80052b0 <_dtoa_r+0x5a8>)
 80050d2:	1124      	asrs	r4, r4, #4
 80050d4:	2c00      	cmp	r4, #0
 80050d6:	f040 8084 	bne.w	80051e2 <_dtoa_r+0x4da>
 80050da:	2b00      	cmp	r3, #0
 80050dc:	d1d2      	bne.n	8005084 <_dtoa_r+0x37c>
 80050de:	9b0f      	ldr	r3, [sp, #60]	; 0x3c
 80050e0:	2b00      	cmp	r3, #0
 80050e2:	f000 808b 	beq.w	80051fc <_dtoa_r+0x4f4>
 80050e6:	e9dd 3404 	ldrd	r3, r4, [sp, #16]
 80050ea:	e9cd 3410 	strd	r3, r4, [sp, #64]	; 0x40
 80050ee:	e9dd 0110 	ldrd	r0, r1, [sp, #64]	; 0x40
 80050f2:	2200      	movs	r2, #0
 80050f4:	4b6f      	ldr	r3, [pc, #444]	; (80052b4 <_dtoa_r+0x5ac>)
 80050f6:	f7fb fc61 	bl	80009bc <__aeabi_dcmplt>
 80050fa:	2800      	cmp	r0, #0
 80050fc:	d07e      	beq.n	80051fc <_dtoa_r+0x4f4>
 80050fe:	9b08      	ldr	r3, [sp, #32]
 8005100:	2b00      	cmp	r3, #0
 8005102:	d07b      	beq.n	80051fc <_dtoa_r+0x4f4>
 8005104:	f1b9 0f00 	cmp.w	r9, #0
 8005108:	dd38      	ble.n	800517c <_dtoa_r+0x474>
 800510a:	e9dd 0110 	ldrd	r0, r1, [sp, #64]	; 0x40
 800510e:	2200      	movs	r2, #0
 8005110:	4b69      	ldr	r3, [pc, #420]	; (80052b8 <_dtoa_r+0x5b0>)
 8005112:	f7fb f9e1 	bl	80004d8 <__aeabi_dmul>
 8005116:	464c      	mov	r4, r9
 8005118:	e9cd 0104 	strd	r0, r1, [sp, #16]
 800511c:	f10a 38ff 	add.w	r8, sl, #4294967295
 8005120:	3701      	adds	r7, #1
 8005122:	4638      	mov	r0, r7
 8005124:	f7fb f96e 	bl	8000404 <__aeabi_i2d>
 8005128:	e9dd 2304 	ldrd	r2, r3, [sp, #16]
 800512c:	f7fb f9d4 	bl	80004d8 <__aeabi_dmul>
 8005130:	2200      	movs	r2, #0
 8005132:	4b62      	ldr	r3, [pc, #392]	; (80052bc <_dtoa_r+0x5b4>)
 8005134:	f7fb f81a 	bl	800016c <__adddf3>
 8005138:	f1a1 7650 	sub.w	r6, r1, #54525952	; 0x3400000
 800513c:	e9cd 0110 	strd	r0, r1, [sp, #64]	; 0x40
 8005140:	9611      	str	r6, [sp, #68]	; 0x44
 8005142:	2c00      	cmp	r4, #0
 8005144:	d15d      	bne.n	8005202 <_dtoa_r+0x4fa>
 8005146:	e9dd 0104 	ldrd	r0, r1, [sp, #16]
 800514a:	2200      	movs	r2, #0
 800514c:	4b5c      	ldr	r3, [pc, #368]	; (80052c0 <_dtoa_r+0x5b8>)
 800514e:	f7fb f80b 	bl	8000168 <__aeabi_dsub>
 8005152:	4602      	mov	r2, r0
 8005154:	460b      	mov	r3, r1
 8005156:	e9cd 2304 	strd	r2, r3, [sp, #16]
 800515a:	4633      	mov	r3, r6
 800515c:	9a10      	ldr	r2, [sp, #64]	; 0x40
 800515e:	f7fb fc4b 	bl	80009f8 <__aeabi_dcmpgt>
 8005162:	2800      	cmp	r0, #0
 8005164:	f040 829c 	bne.w	80056a0 <_dtoa_r+0x998>
 8005168:	e9dd 0104 	ldrd	r0, r1, [sp, #16]
 800516c:	9a10      	ldr	r2, [sp, #64]	; 0x40
 800516e:	f106 4300 	add.w	r3, r6, #2147483648	; 0x80000000
 8005172:	f7fb fc23 	bl	80009bc <__aeabi_dcmplt>
 8005176:	2800      	cmp	r0, #0
 8005178:	f040 8290 	bne.w	800569c <_dtoa_r+0x994>
 800517c:	e9dd 340c 	ldrd	r3, r4, [sp, #48]	; 0x30
 8005180:	e9cd 3404 	strd	r3, r4, [sp, #16]
 8005184:	9b17      	ldr	r3, [sp, #92]	; 0x5c
 8005186:	2b00      	cmp	r3, #0
 8005188:	f2c0 8152 	blt.w	8005430 <_dtoa_r+0x728>
 800518c:	f1ba 0f0e 	cmp.w	sl, #14
 8005190:	f300 814e 	bgt.w	8005430 <_dtoa_r+0x728>
 8005194:	4b45      	ldr	r3, [pc, #276]	; (80052ac <_dtoa_r+0x5a4>)
 8005196:	eb03 03ca 	add.w	r3, r3, sl, lsl #3
 800519a:	e9d3 3400 	ldrd	r3, r4, [r3]
 800519e:	e9cd 3406 	strd	r3, r4, [sp, #24]
 80051a2:	9b23      	ldr	r3, [sp, #140]	; 0x8c
 80051a4:	2b00      	cmp	r3, #0
 80051a6:	f280 80db 	bge.w	8005360 <_dtoa_r+0x658>
 80051aa:	9b08      	ldr	r3, [sp, #32]
 80051ac:	2b00      	cmp	r3, #0
 80051ae:	f300 80d7 	bgt.w	8005360 <_dtoa_r+0x658>
 80051b2:	f040 8272 	bne.w	800569a <_dtoa_r+0x992>
 80051b6:	e9dd 0106 	ldrd	r0, r1, [sp, #24]
 80051ba:	2200      	movs	r2, #0
 80051bc:	4b40      	ldr	r3, [pc, #256]	; (80052c0 <_dtoa_r+0x5b8>)
 80051be:	f7fb f98b 	bl	80004d8 <__aeabi_dmul>
 80051c2:	e9dd 2304 	ldrd	r2, r3, [sp, #16]
 80051c6:	f7fb fc0d 	bl	80009e4 <__aeabi_dcmpge>
 80051ca:	9c08      	ldr	r4, [sp, #32]
 80051cc:	4626      	mov	r6, r4
 80051ce:	2800      	cmp	r0, #0
 80051d0:	f040 8248 	bne.w	8005664 <_dtoa_r+0x95c>
 80051d4:	2331      	movs	r3, #49	; 0x31
 80051d6:	9f03      	ldr	r7, [sp, #12]
 80051d8:	f10a 0a01 	add.w	sl, sl, #1
 80051dc:	f807 3b01 	strb.w	r3, [r7], #1
 80051e0:	e244      	b.n	800566c <_dtoa_r+0x964>
 80051e2:	07e2      	lsls	r2, r4, #31
 80051e4:	d505      	bpl.n	80051f2 <_dtoa_r+0x4ea>
 80051e6:	e9d6 2300 	ldrd	r2, r3, [r6]
 80051ea:	f7fb f975 	bl	80004d8 <__aeabi_dmul>
 80051ee:	2301      	movs	r3, #1
 80051f0:	3701      	adds	r7, #1
 80051f2:	1064      	asrs	r4, r4, #1
 80051f4:	3608      	adds	r6, #8
 80051f6:	e76d      	b.n	80050d4 <_dtoa_r+0x3cc>
 80051f8:	2702      	movs	r7, #2
 80051fa:	e770      	b.n	80050de <_dtoa_r+0x3d6>
 80051fc:	46d0      	mov	r8, sl
 80051fe:	9c08      	ldr	r4, [sp, #32]
 8005200:	e78f      	b.n	8005122 <_dtoa_r+0x41a>
 8005202:	9903      	ldr	r1, [sp, #12]
 8005204:	4b29      	ldr	r3, [pc, #164]	; (80052ac <_dtoa_r+0x5a4>)
 8005206:	4421      	add	r1, r4
 8005208:	9112      	str	r1, [sp, #72]	; 0x48
 800520a:	990b      	ldr	r1, [sp, #44]	; 0x2c
 800520c:	eb03 03c4 	add.w	r3, r3, r4, lsl #3
 8005210:	e9dd 6710 	ldrd	r6, r7, [sp, #64]	; 0x40
 8005214:	e953 2302 	ldrd	r2, r3, [r3, #-8]
 8005218:	2900      	cmp	r1, #0
 800521a:	d055      	beq.n	80052c8 <_dtoa_r+0x5c0>
 800521c:	2000      	movs	r0, #0
 800521e:	4929      	ldr	r1, [pc, #164]	; (80052c4 <_dtoa_r+0x5bc>)
 8005220:	f7fb fa84 	bl	800072c <__aeabi_ddiv>
 8005224:	463b      	mov	r3, r7
 8005226:	4632      	mov	r2, r6
 8005228:	f7fa ff9e 	bl	8000168 <__aeabi_dsub>
 800522c:	e9cd 0110 	strd	r0, r1, [sp, #64]	; 0x40
 8005230:	9f03      	ldr	r7, [sp, #12]
 8005232:	e9dd 0104 	ldrd	r0, r1, [sp, #16]
 8005236:	f7fb fbff 	bl	8000a38 <__aeabi_d2iz>
 800523a:	4604      	mov	r4, r0
 800523c:	f7fb f8e2 	bl	8000404 <__aeabi_i2d>
 8005240:	4602      	mov	r2, r0
 8005242:	460b      	mov	r3, r1
 8005244:	e9dd 0104 	ldrd	r0, r1, [sp, #16]
 8005248:	f7fa ff8e 	bl	8000168 <__aeabi_dsub>
 800524c:	4602      	mov	r2, r0
 800524e:	460b      	mov	r3, r1
 8005250:	3430      	adds	r4, #48	; 0x30
 8005252:	e9cd 2304 	strd	r2, r3, [sp, #16]
 8005256:	e9dd 2310 	ldrd	r2, r3, [sp, #64]	; 0x40
 800525a:	f807 4b01 	strb.w	r4, [r7], #1
 800525e:	f7fb fbad 	bl	80009bc <__aeabi_dcmplt>
 8005262:	2800      	cmp	r0, #0
 8005264:	d174      	bne.n	8005350 <_dtoa_r+0x648>
 8005266:	e9dd 2304 	ldrd	r2, r3, [sp, #16]
 800526a:	2000      	movs	r0, #0
 800526c:	4911      	ldr	r1, [pc, #68]	; (80052b4 <_dtoa_r+0x5ac>)
 800526e:	f7fa ff7b 	bl	8000168 <__aeabi_dsub>
 8005272:	e9dd 2310 	ldrd	r2, r3, [sp, #64]	; 0x40
 8005276:	f7fb fba1 	bl	80009bc <__aeabi_dcmplt>
 800527a:	2800      	cmp	r0, #0
 800527c:	f040 80b7 	bne.w	80053ee <_dtoa_r+0x6e6>
 8005280:	9b12      	ldr	r3, [sp, #72]	; 0x48
 8005282:	429f      	cmp	r7, r3
 8005284:	f43f af7a 	beq.w	800517c <_dtoa_r+0x474>
 8005288:	e9dd 0110 	ldrd	r0, r1, [sp, #64]	; 0x40
 800528c:	2200      	movs	r2, #0
 800528e:	4b0a      	ldr	r3, [pc, #40]	; (80052b8 <_dtoa_r+0x5b0>)
 8005290:	f7fb f922 	bl	80004d8 <__aeabi_dmul>
 8005294:	2200      	movs	r2, #0
 8005296:	e9cd 0110 	strd	r0, r1, [sp, #64]	; 0x40
 800529a:	e9dd 0104 	ldrd	r0, r1, [sp, #16]
 800529e:	4b06      	ldr	r3, [pc, #24]	; (80052b8 <_dtoa_r+0x5b0>)
 80052a0:	f7fb f91a 	bl	80004d8 <__aeabi_dmul>
 80052a4:	e9cd 0104 	strd	r0, r1, [sp, #16]
 80052a8:	e7c3      	b.n	8005232 <_dtoa_r+0x52a>
 80052aa:	bf00      	nop
 80052ac:	08007d78 	.word	0x08007d78
 80052b0:	08007d50 	.word	0x08007d50
 80052b4:	3ff00000 	.word	0x3ff00000
 80052b8:	40240000 	.word	0x40240000
 80052bc:	401c0000 	.word	0x401c0000
 80052c0:	40140000 	.word	0x40140000
 80052c4:	3fe00000 	.word	0x3fe00000
 80052c8:	4630      	mov	r0, r6
 80052ca:	4639      	mov	r1, r7
 80052cc:	f7fb f904 	bl	80004d8 <__aeabi_dmul>
 80052d0:	9b12      	ldr	r3, [sp, #72]	; 0x48
 80052d2:	e9cd 0110 	strd	r0, r1, [sp, #64]	; 0x40
 80052d6:	9c03      	ldr	r4, [sp, #12]
 80052d8:	9314      	str	r3, [sp, #80]	; 0x50
 80052da:	e9dd 0104 	ldrd	r0, r1, [sp, #16]
 80052de:	f7fb fbab 	bl	8000a38 <__aeabi_d2iz>
 80052e2:	9015      	str	r0, [sp, #84]	; 0x54
 80052e4:	f7fb f88e 	bl	8000404 <__aeabi_i2d>
 80052e8:	4602      	mov	r2, r0
 80052ea:	460b      	mov	r3, r1
 80052ec:	e9dd 0104 	ldrd	r0, r1, [sp, #16]
 80052f0:	f7fa ff3a 	bl	8000168 <__aeabi_dsub>
 80052f4:	9b15      	ldr	r3, [sp, #84]	; 0x54
 80052f6:	4606      	mov	r6, r0
 80052f8:	3330      	adds	r3, #48	; 0x30
 80052fa:	f804 3b01 	strb.w	r3, [r4], #1
 80052fe:	9b12      	ldr	r3, [sp, #72]	; 0x48
 8005300:	460f      	mov	r7, r1
 8005302:	429c      	cmp	r4, r3
 8005304:	f04f 0200 	mov.w	r2, #0
 8005308:	d124      	bne.n	8005354 <_dtoa_r+0x64c>
 800530a:	e9dd 0110 	ldrd	r0, r1, [sp, #64]	; 0x40
 800530e:	4bb0      	ldr	r3, [pc, #704]	; (80055d0 <_dtoa_r+0x8c8>)
 8005310:	f7fa ff2c 	bl	800016c <__adddf3>
 8005314:	4602      	mov	r2, r0
 8005316:	460b      	mov	r3, r1
 8005318:	4630      	mov	r0, r6
 800531a:	4639      	mov	r1, r7
 800531c:	f7fb fb6c 	bl	80009f8 <__aeabi_dcmpgt>
 8005320:	2800      	cmp	r0, #0
 8005322:	d163      	bne.n	80053ec <_dtoa_r+0x6e4>
 8005324:	e9dd 2310 	ldrd	r2, r3, [sp, #64]	; 0x40
 8005328:	2000      	movs	r0, #0
 800532a:	49a9      	ldr	r1, [pc, #676]	; (80055d0 <_dtoa_r+0x8c8>)
 800532c:	f7fa ff1c 	bl	8000168 <__aeabi_dsub>
 8005330:	4602      	mov	r2, r0
 8005332:	460b      	mov	r3, r1
 8005334:	4630      	mov	r0, r6
 8005336:	4639      	mov	r1, r7
 8005338:	f7fb fb40 	bl	80009bc <__aeabi_dcmplt>
 800533c:	2800      	cmp	r0, #0
 800533e:	f43f af1d 	beq.w	800517c <_dtoa_r+0x474>
 8005342:	9f14      	ldr	r7, [sp, #80]	; 0x50
 8005344:	1e7b      	subs	r3, r7, #1
 8005346:	9314      	str	r3, [sp, #80]	; 0x50
 8005348:	f817 3c01 	ldrb.w	r3, [r7, #-1]
 800534c:	2b30      	cmp	r3, #48	; 0x30
 800534e:	d0f8      	beq.n	8005342 <_dtoa_r+0x63a>
 8005350:	46c2      	mov	sl, r8
 8005352:	e03b      	b.n	80053cc <_dtoa_r+0x6c4>
 8005354:	4b9f      	ldr	r3, [pc, #636]	; (80055d4 <_dtoa_r+0x8cc>)
 8005356:	f7fb f8bf 	bl	80004d8 <__aeabi_dmul>
 800535a:	e9cd 0104 	strd	r0, r1, [sp, #16]
 800535e:	e7bc      	b.n	80052da <_dtoa_r+0x5d2>
 8005360:	9f03      	ldr	r7, [sp, #12]
 8005362:	e9dd 8904 	ldrd	r8, r9, [sp, #16]
 8005366:	e9dd 2306 	ldrd	r2, r3, [sp, #24]
 800536a:	4640      	mov	r0, r8
 800536c:	4649      	mov	r1, r9
 800536e:	f7fb f9dd 	bl	800072c <__aeabi_ddiv>
 8005372:	f7fb fb61 	bl	8000a38 <__aeabi_d2iz>
 8005376:	4604      	mov	r4, r0
 8005378:	f7fb f844 	bl	8000404 <__aeabi_i2d>
 800537c:	e9dd 2306 	ldrd	r2, r3, [sp, #24]
 8005380:	f7fb f8aa 	bl	80004d8 <__aeabi_dmul>
 8005384:	4602      	mov	r2, r0
 8005386:	460b      	mov	r3, r1
 8005388:	4640      	mov	r0, r8
 800538a:	4649      	mov	r1, r9
 800538c:	f7fa feec 	bl	8000168 <__aeabi_dsub>
 8005390:	f104 0630 	add.w	r6, r4, #48	; 0x30
 8005394:	f807 6b01 	strb.w	r6, [r7], #1
 8005398:	9e03      	ldr	r6, [sp, #12]
 800539a:	f8dd c020 	ldr.w	ip, [sp, #32]
 800539e:	1bbe      	subs	r6, r7, r6
 80053a0:	45b4      	cmp	ip, r6
 80053a2:	4602      	mov	r2, r0
 80053a4:	460b      	mov	r3, r1
 80053a6:	d136      	bne.n	8005416 <_dtoa_r+0x70e>
 80053a8:	f7fa fee0 	bl	800016c <__adddf3>
 80053ac:	e9dd 2306 	ldrd	r2, r3, [sp, #24]
 80053b0:	4680      	mov	r8, r0
 80053b2:	4689      	mov	r9, r1
 80053b4:	f7fb fb20 	bl	80009f8 <__aeabi_dcmpgt>
 80053b8:	bb58      	cbnz	r0, 8005412 <_dtoa_r+0x70a>
 80053ba:	e9dd 2306 	ldrd	r2, r3, [sp, #24]
 80053be:	4640      	mov	r0, r8
 80053c0:	4649      	mov	r1, r9
 80053c2:	f7fb faf1 	bl	80009a8 <__aeabi_dcmpeq>
 80053c6:	b108      	cbz	r0, 80053cc <_dtoa_r+0x6c4>
 80053c8:	07e1      	lsls	r1, r4, #31
 80053ca:	d422      	bmi.n	8005412 <_dtoa_r+0x70a>
 80053cc:	4628      	mov	r0, r5
 80053ce:	4659      	mov	r1, fp
 80053d0:	f000 fe68 	bl	80060a4 <_Bfree>
 80053d4:	2300      	movs	r3, #0
 80053d6:	703b      	strb	r3, [r7, #0]
 80053d8:	9b24      	ldr	r3, [sp, #144]	; 0x90
 80053da:	f10a 0001 	add.w	r0, sl, #1
 80053de:	6018      	str	r0, [r3, #0]
 80053e0:	9b26      	ldr	r3, [sp, #152]	; 0x98
 80053e2:	2b00      	cmp	r3, #0
 80053e4:	f43f acde 	beq.w	8004da4 <_dtoa_r+0x9c>
 80053e8:	601f      	str	r7, [r3, #0]
 80053ea:	e4db      	b.n	8004da4 <_dtoa_r+0x9c>
 80053ec:	4627      	mov	r7, r4
 80053ee:	463b      	mov	r3, r7
 80053f0:	461f      	mov	r7, r3
 80053f2:	f813 2d01 	ldrb.w	r2, [r3, #-1]!
 80053f6:	2a39      	cmp	r2, #57	; 0x39
 80053f8:	d107      	bne.n	800540a <_dtoa_r+0x702>
 80053fa:	9a03      	ldr	r2, [sp, #12]
 80053fc:	429a      	cmp	r2, r3
 80053fe:	d1f7      	bne.n	80053f0 <_dtoa_r+0x6e8>
 8005400:	2230      	movs	r2, #48	; 0x30
 8005402:	9903      	ldr	r1, [sp, #12]
 8005404:	f108 0801 	add.w	r8, r8, #1
 8005408:	700a      	strb	r2, [r1, #0]
 800540a:	781a      	ldrb	r2, [r3, #0]
 800540c:	3201      	adds	r2, #1
 800540e:	701a      	strb	r2, [r3, #0]
 8005410:	e79e      	b.n	8005350 <_dtoa_r+0x648>
 8005412:	46d0      	mov	r8, sl
 8005414:	e7eb      	b.n	80053ee <_dtoa_r+0x6e6>
 8005416:	2200      	movs	r2, #0
 8005418:	4b6e      	ldr	r3, [pc, #440]	; (80055d4 <_dtoa_r+0x8cc>)
 800541a:	f7fb f85d 	bl	80004d8 <__aeabi_dmul>
 800541e:	2200      	movs	r2, #0
 8005420:	2300      	movs	r3, #0
 8005422:	4680      	mov	r8, r0
 8005424:	4689      	mov	r9, r1
 8005426:	f7fb fabf 	bl	80009a8 <__aeabi_dcmpeq>
 800542a:	2800      	cmp	r0, #0
 800542c:	d09b      	beq.n	8005366 <_dtoa_r+0x65e>
 800542e:	e7cd      	b.n	80053cc <_dtoa_r+0x6c4>
 8005430:	9a0b      	ldr	r2, [sp, #44]	; 0x2c
 8005432:	2a00      	cmp	r2, #0
 8005434:	f000 80d0 	beq.w	80055d8 <_dtoa_r+0x8d0>
 8005438:	9a22      	ldr	r2, [sp, #136]	; 0x88
 800543a:	2a01      	cmp	r2, #1
 800543c:	f300 80ae 	bgt.w	800559c <_dtoa_r+0x894>
 8005440:	9a13      	ldr	r2, [sp, #76]	; 0x4c
 8005442:	2a00      	cmp	r2, #0
 8005444:	f000 80a6 	beq.w	8005594 <_dtoa_r+0x88c>
 8005448:	f203 4333 	addw	r3, r3, #1075	; 0x433
 800544c:	9c0a      	ldr	r4, [sp, #40]	; 0x28
 800544e:	9f06      	ldr	r7, [sp, #24]
 8005450:	9a06      	ldr	r2, [sp, #24]
 8005452:	2101      	movs	r1, #1
 8005454:	441a      	add	r2, r3
 8005456:	9206      	str	r2, [sp, #24]
 8005458:	9a09      	ldr	r2, [sp, #36]	; 0x24
 800545a:	4628      	mov	r0, r5
 800545c:	441a      	add	r2, r3
 800545e:	9209      	str	r2, [sp, #36]	; 0x24
 8005460:	f000 ff20 	bl	80062a4 <__i2b>
 8005464:	4606      	mov	r6, r0
 8005466:	2f00      	cmp	r7, #0
 8005468:	dd0c      	ble.n	8005484 <_dtoa_r+0x77c>
 800546a:	9b09      	ldr	r3, [sp, #36]	; 0x24
 800546c:	2b00      	cmp	r3, #0
 800546e:	dd09      	ble.n	8005484 <_dtoa_r+0x77c>
 8005470:	42bb      	cmp	r3, r7
 8005472:	bfa8      	it	ge
 8005474:	463b      	movge	r3, r7
 8005476:	9a06      	ldr	r2, [sp, #24]
 8005478:	1aff      	subs	r7, r7, r3
 800547a:	1ad2      	subs	r2, r2, r3
 800547c:	9206      	str	r2, [sp, #24]
 800547e:	9a09      	ldr	r2, [sp, #36]	; 0x24
 8005480:	1ad3      	subs	r3, r2, r3
 8005482:	9309      	str	r3, [sp, #36]	; 0x24
 8005484:	9b0a      	ldr	r3, [sp, #40]	; 0x28
 8005486:	b1f3      	cbz	r3, 80054c6 <_dtoa_r+0x7be>
 8005488:	9b0b      	ldr	r3, [sp, #44]	; 0x2c
 800548a:	2b00      	cmp	r3, #0
 800548c:	f000 80a8 	beq.w	80055e0 <_dtoa_r+0x8d8>
 8005490:	2c00      	cmp	r4, #0
 8005492:	dd10      	ble.n	80054b6 <_dtoa_r+0x7ae>
 8005494:	4631      	mov	r1, r6
 8005496:	4622      	mov	r2, r4
 8005498:	4628      	mov	r0, r5
 800549a:	f000 ffc1 	bl	8006420 <__pow5mult>
 800549e:	465a      	mov	r2, fp
 80054a0:	4601      	mov	r1, r0
 80054a2:	4606      	mov	r6, r0
 80054a4:	4628      	mov	r0, r5
 80054a6:	f000 ff13 	bl	80062d0 <__multiply>
 80054aa:	4680      	mov	r8, r0
 80054ac:	4659      	mov	r1, fp
 80054ae:	4628      	mov	r0, r5
 80054b0:	f000 fdf8 	bl	80060a4 <_Bfree>
 80054b4:	46c3      	mov	fp, r8
 80054b6:	9b0a      	ldr	r3, [sp, #40]	; 0x28
 80054b8:	1b1a      	subs	r2, r3, r4
 80054ba:	d004      	beq.n	80054c6 <_dtoa_r+0x7be>
 80054bc:	4659      	mov	r1, fp
 80054be:	4628      	mov	r0, r5
 80054c0:	f000 ffae 	bl	8006420 <__pow5mult>
 80054c4:	4683      	mov	fp, r0
 80054c6:	2101      	movs	r1, #1
 80054c8:	4628      	mov	r0, r5
 80054ca:	f000 feeb 	bl	80062a4 <__i2b>
 80054ce:	9b0e      	ldr	r3, [sp, #56]	; 0x38
 80054d0:	4604      	mov	r4, r0
 80054d2:	2b00      	cmp	r3, #0
 80054d4:	f340 8086 	ble.w	80055e4 <_dtoa_r+0x8dc>
 80054d8:	461a      	mov	r2, r3
 80054da:	4601      	mov	r1, r0
 80054dc:	4628      	mov	r0, r5
 80054de:	f000 ff9f 	bl	8006420 <__pow5mult>
 80054e2:	9b22      	ldr	r3, [sp, #136]	; 0x88
 80054e4:	4604      	mov	r4, r0
 80054e6:	2b01      	cmp	r3, #1
 80054e8:	dd7f      	ble.n	80055ea <_dtoa_r+0x8e2>
 80054ea:	f04f 0800 	mov.w	r8, #0
 80054ee:	6923      	ldr	r3, [r4, #16]
 80054f0:	eb04 0383 	add.w	r3, r4, r3, lsl #2
 80054f4:	6918      	ldr	r0, [r3, #16]
 80054f6:	f000 fe87 	bl	8006208 <__hi0bits>
 80054fa:	f1c0 0020 	rsb	r0, r0, #32
 80054fe:	9b09      	ldr	r3, [sp, #36]	; 0x24
 8005500:	4418      	add	r0, r3
 8005502:	f010 001f 	ands.w	r0, r0, #31
 8005506:	f000 8092 	beq.w	800562e <_dtoa_r+0x926>
 800550a:	f1c0 0320 	rsb	r3, r0, #32
 800550e:	2b04      	cmp	r3, #4
 8005510:	f340 808a 	ble.w	8005628 <_dtoa_r+0x920>
 8005514:	f1c0 001c 	rsb	r0, r0, #28
 8005518:	9b06      	ldr	r3, [sp, #24]
 800551a:	4407      	add	r7, r0
 800551c:	4403      	add	r3, r0
 800551e:	9306      	str	r3, [sp, #24]
 8005520:	9b09      	ldr	r3, [sp, #36]	; 0x24
 8005522:	4403      	add	r3, r0
 8005524:	9309      	str	r3, [sp, #36]	; 0x24
 8005526:	9b06      	ldr	r3, [sp, #24]
 8005528:	2b00      	cmp	r3, #0
 800552a:	dd05      	ble.n	8005538 <_dtoa_r+0x830>
 800552c:	4659      	mov	r1, fp
 800552e:	461a      	mov	r2, r3
 8005530:	4628      	mov	r0, r5
 8005532:	f000 ffcf 	bl	80064d4 <__lshift>
 8005536:	4683      	mov	fp, r0
 8005538:	9b09      	ldr	r3, [sp, #36]	; 0x24
 800553a:	2b00      	cmp	r3, #0
 800553c:	dd05      	ble.n	800554a <_dtoa_r+0x842>
 800553e:	4621      	mov	r1, r4
 8005540:	461a      	mov	r2, r3
 8005542:	4628      	mov	r0, r5
 8005544:	f000 ffc6 	bl	80064d4 <__lshift>
 8005548:	4604      	mov	r4, r0
 800554a:	9b0f      	ldr	r3, [sp, #60]	; 0x3c
 800554c:	2b00      	cmp	r3, #0
 800554e:	d070      	beq.n	8005632 <_dtoa_r+0x92a>
 8005550:	4621      	mov	r1, r4
 8005552:	4658      	mov	r0, fp
 8005554:	f001 f82e 	bl	80065b4 <__mcmp>
 8005558:	2800      	cmp	r0, #0
 800555a:	da6a      	bge.n	8005632 <_dtoa_r+0x92a>
 800555c:	2300      	movs	r3, #0
 800555e:	4659      	mov	r1, fp
 8005560:	220a      	movs	r2, #10
 8005562:	4628      	mov	r0, r5
 8005564:	f000 fdc0 	bl	80060e8 <__multadd>
 8005568:	9b0b      	ldr	r3, [sp, #44]	; 0x2c
 800556a:	4683      	mov	fp, r0
 800556c:	f10a 3aff 	add.w	sl, sl, #4294967295
 8005570:	2b00      	cmp	r3, #0
 8005572:	f000 8194 	beq.w	800589e <_dtoa_r+0xb96>
 8005576:	4631      	mov	r1, r6
 8005578:	2300      	movs	r3, #0
 800557a:	220a      	movs	r2, #10
 800557c:	4628      	mov	r0, r5
 800557e:	f000 fdb3 	bl	80060e8 <__multadd>
 8005582:	f1b9 0f00 	cmp.w	r9, #0
 8005586:	4606      	mov	r6, r0
 8005588:	f300 8093 	bgt.w	80056b2 <_dtoa_r+0x9aa>
 800558c:	9b22      	ldr	r3, [sp, #136]	; 0x88
 800558e:	2b02      	cmp	r3, #2
 8005590:	dc57      	bgt.n	8005642 <_dtoa_r+0x93a>
 8005592:	e08e      	b.n	80056b2 <_dtoa_r+0x9aa>
 8005594:	9b16      	ldr	r3, [sp, #88]	; 0x58
 8005596:	f1c3 0336 	rsb	r3, r3, #54	; 0x36
 800559a:	e757      	b.n	800544c <_dtoa_r+0x744>
 800559c:	9b08      	ldr	r3, [sp, #32]
 800559e:	1e5c      	subs	r4, r3, #1
 80055a0:	9b0a      	ldr	r3, [sp, #40]	; 0x28
 80055a2:	42a3      	cmp	r3, r4
 80055a4:	bfb7      	itett	lt
 80055a6:	9b0a      	ldrlt	r3, [sp, #40]	; 0x28
 80055a8:	1b1c      	subge	r4, r3, r4
 80055aa:	1ae2      	sublt	r2, r4, r3
 80055ac:	9b0e      	ldrlt	r3, [sp, #56]	; 0x38
 80055ae:	bfbe      	ittt	lt
 80055b0:	940a      	strlt	r4, [sp, #40]	; 0x28
 80055b2:	189b      	addlt	r3, r3, r2
 80055b4:	930e      	strlt	r3, [sp, #56]	; 0x38
 80055b6:	9b08      	ldr	r3, [sp, #32]
 80055b8:	bfb8      	it	lt
 80055ba:	2400      	movlt	r4, #0
 80055bc:	2b00      	cmp	r3, #0
 80055be:	bfbb      	ittet	lt
 80055c0:	9b06      	ldrlt	r3, [sp, #24]
 80055c2:	9a08      	ldrlt	r2, [sp, #32]
 80055c4:	9f06      	ldrge	r7, [sp, #24]
 80055c6:	1a9f      	sublt	r7, r3, r2
 80055c8:	bfac      	ite	ge
 80055ca:	9b08      	ldrge	r3, [sp, #32]
 80055cc:	2300      	movlt	r3, #0
 80055ce:	e73f      	b.n	8005450 <_dtoa_r+0x748>
 80055d0:	3fe00000 	.word	0x3fe00000
 80055d4:	40240000 	.word	0x40240000
 80055d8:	9c0a      	ldr	r4, [sp, #40]	; 0x28
 80055da:	9f06      	ldr	r7, [sp, #24]
 80055dc:	9e0b      	ldr	r6, [sp, #44]	; 0x2c
 80055de:	e742      	b.n	8005466 <_dtoa_r+0x75e>
 80055e0:	9a0a      	ldr	r2, [sp, #40]	; 0x28
 80055e2:	e76b      	b.n	80054bc <_dtoa_r+0x7b4>
 80055e4:	9b22      	ldr	r3, [sp, #136]	; 0x88
 80055e6:	2b01      	cmp	r3, #1
 80055e8:	dc19      	bgt.n	800561e <_dtoa_r+0x916>
 80055ea:	9b04      	ldr	r3, [sp, #16]
 80055ec:	b9bb      	cbnz	r3, 800561e <_dtoa_r+0x916>
 80055ee:	9b05      	ldr	r3, [sp, #20]
 80055f0:	f3c3 0313 	ubfx	r3, r3, #0, #20
 80055f4:	b99b      	cbnz	r3, 800561e <_dtoa_r+0x916>
 80055f6:	9b05      	ldr	r3, [sp, #20]
 80055f8:	f023 4300 	bic.w	r3, r3, #2147483648	; 0x80000000
 80055fc:	0d1b      	lsrs	r3, r3, #20
 80055fe:	051b      	lsls	r3, r3, #20
 8005600:	b183      	cbz	r3, 8005624 <_dtoa_r+0x91c>
 8005602:	f04f 0801 	mov.w	r8, #1
 8005606:	9b06      	ldr	r3, [sp, #24]
 8005608:	3301      	adds	r3, #1
 800560a:	9306      	str	r3, [sp, #24]
 800560c:	9b09      	ldr	r3, [sp, #36]	; 0x24
 800560e:	3301      	adds	r3, #1
 8005610:	9309      	str	r3, [sp, #36]	; 0x24
 8005612:	9b0e      	ldr	r3, [sp, #56]	; 0x38
 8005614:	2b00      	cmp	r3, #0
 8005616:	f47f af6a 	bne.w	80054ee <_dtoa_r+0x7e6>
 800561a:	2001      	movs	r0, #1
 800561c:	e76f      	b.n	80054fe <_dtoa_r+0x7f6>
 800561e:	f04f 0800 	mov.w	r8, #0
 8005622:	e7f6      	b.n	8005612 <_dtoa_r+0x90a>
 8005624:	4698      	mov	r8, r3
 8005626:	e7f4      	b.n	8005612 <_dtoa_r+0x90a>
 8005628:	f43f af7d 	beq.w	8005526 <_dtoa_r+0x81e>
 800562c:	4618      	mov	r0, r3
 800562e:	301c      	adds	r0, #28
 8005630:	e772      	b.n	8005518 <_dtoa_r+0x810>
 8005632:	9b08      	ldr	r3, [sp, #32]
 8005634:	2b00      	cmp	r3, #0
 8005636:	dc36      	bgt.n	80056a6 <_dtoa_r+0x99e>
 8005638:	9b22      	ldr	r3, [sp, #136]	; 0x88
 800563a:	2b02      	cmp	r3, #2
 800563c:	dd33      	ble.n	80056a6 <_dtoa_r+0x99e>
 800563e:	f8dd 9020 	ldr.w	r9, [sp, #32]
 8005642:	f1b9 0f00 	cmp.w	r9, #0
 8005646:	d10d      	bne.n	8005664 <_dtoa_r+0x95c>
 8005648:	4621      	mov	r1, r4
 800564a:	464b      	mov	r3, r9
 800564c:	2205      	movs	r2, #5
 800564e:	4628      	mov	r0, r5
 8005650:	f000 fd4a 	bl	80060e8 <__multadd>
 8005654:	4601      	mov	r1, r0
 8005656:	4604      	mov	r4, r0
 8005658:	4658      	mov	r0, fp
 800565a:	f000 ffab 	bl	80065b4 <__mcmp>
 800565e:	2800      	cmp	r0, #0
 8005660:	f73f adb8 	bgt.w	80051d4 <_dtoa_r+0x4cc>
 8005664:	9b23      	ldr	r3, [sp, #140]	; 0x8c
 8005666:	9f03      	ldr	r7, [sp, #12]
 8005668:	ea6f 0a03 	mvn.w	sl, r3
 800566c:	f04f 0800 	mov.w	r8, #0
 8005670:	4621      	mov	r1, r4
 8005672:	4628      	mov	r0, r5
 8005674:	f000 fd16 	bl	80060a4 <_Bfree>
 8005678:	2e00      	cmp	r6, #0
 800567a:	f43f aea7 	beq.w	80053cc <_dtoa_r+0x6c4>
 800567e:	f1b8 0f00 	cmp.w	r8, #0
 8005682:	d005      	beq.n	8005690 <_dtoa_r+0x988>
 8005684:	45b0      	cmp	r8, r6
 8005686:	d003      	beq.n	8005690 <_dtoa_r+0x988>
 8005688:	4641      	mov	r1, r8
 800568a:	4628      	mov	r0, r5
 800568c:	f000 fd0a 	bl	80060a4 <_Bfree>
 8005690:	4631      	mov	r1, r6
 8005692:	4628      	mov	r0, r5
 8005694:	f000 fd06 	bl	80060a4 <_Bfree>
 8005698:	e698      	b.n	80053cc <_dtoa_r+0x6c4>
 800569a:	2400      	movs	r4, #0
 800569c:	4626      	mov	r6, r4
 800569e:	e7e1      	b.n	8005664 <_dtoa_r+0x95c>
 80056a0:	46c2      	mov	sl, r8
 80056a2:	4626      	mov	r6, r4
 80056a4:	e596      	b.n	80051d4 <_dtoa_r+0x4cc>
 80056a6:	9b0b      	ldr	r3, [sp, #44]	; 0x2c
 80056a8:	f8dd 9020 	ldr.w	r9, [sp, #32]
 80056ac:	2b00      	cmp	r3, #0
 80056ae:	f000 80fd 	beq.w	80058ac <_dtoa_r+0xba4>
 80056b2:	2f00      	cmp	r7, #0
 80056b4:	dd05      	ble.n	80056c2 <_dtoa_r+0x9ba>
 80056b6:	4631      	mov	r1, r6
 80056b8:	463a      	mov	r2, r7
 80056ba:	4628      	mov	r0, r5
 80056bc:	f000 ff0a 	bl	80064d4 <__lshift>
 80056c0:	4606      	mov	r6, r0
 80056c2:	f1b8 0f00 	cmp.w	r8, #0
 80056c6:	d05c      	beq.n	8005782 <_dtoa_r+0xa7a>
 80056c8:	4628      	mov	r0, r5
 80056ca:	6871      	ldr	r1, [r6, #4]
 80056cc:	f000 fcaa 	bl	8006024 <_Balloc>
 80056d0:	4607      	mov	r7, r0
 80056d2:	b928      	cbnz	r0, 80056e0 <_dtoa_r+0x9d8>
 80056d4:	4602      	mov	r2, r0
 80056d6:	f240 21ea 	movw	r1, #746	; 0x2ea
 80056da:	4b7f      	ldr	r3, [pc, #508]	; (80058d8 <_dtoa_r+0xbd0>)
 80056dc:	f7ff bb28 	b.w	8004d30 <_dtoa_r+0x28>
 80056e0:	6932      	ldr	r2, [r6, #16]
 80056e2:	f106 010c 	add.w	r1, r6, #12
 80056e6:	3202      	adds	r2, #2
 80056e8:	0092      	lsls	r2, r2, #2
 80056ea:	300c      	adds	r0, #12
 80056ec:	f000 fc8c 	bl	8006008 <memcpy>
 80056f0:	2201      	movs	r2, #1
 80056f2:	4639      	mov	r1, r7
 80056f4:	4628      	mov	r0, r5
 80056f6:	f000 feed 	bl	80064d4 <__lshift>
 80056fa:	46b0      	mov	r8, r6
 80056fc:	4606      	mov	r6, r0
 80056fe:	9b03      	ldr	r3, [sp, #12]
 8005700:	3301      	adds	r3, #1
 8005702:	9308      	str	r3, [sp, #32]
 8005704:	9b03      	ldr	r3, [sp, #12]
 8005706:	444b      	add	r3, r9
 8005708:	930a      	str	r3, [sp, #40]	; 0x28
 800570a:	9b04      	ldr	r3, [sp, #16]
 800570c:	f003 0301 	and.w	r3, r3, #1
 8005710:	9309      	str	r3, [sp, #36]	; 0x24
 8005712:	9b08      	ldr	r3, [sp, #32]
 8005714:	4621      	mov	r1, r4
 8005716:	3b01      	subs	r3, #1
 8005718:	4658      	mov	r0, fp
 800571a:	9304      	str	r3, [sp, #16]
 800571c:	f7ff fa68 	bl	8004bf0 <quorem>
 8005720:	4603      	mov	r3, r0
 8005722:	4641      	mov	r1, r8
 8005724:	3330      	adds	r3, #48	; 0x30
 8005726:	9006      	str	r0, [sp, #24]
 8005728:	4658      	mov	r0, fp
 800572a:	930b      	str	r3, [sp, #44]	; 0x2c
 800572c:	f000 ff42 	bl	80065b4 <__mcmp>
 8005730:	4632      	mov	r2, r6
 8005732:	4681      	mov	r9, r0
 8005734:	4621      	mov	r1, r4
 8005736:	4628      	mov	r0, r5
 8005738:	f000 ff58 	bl	80065ec <__mdiff>
 800573c:	68c2      	ldr	r2, [r0, #12]
 800573e:	4607      	mov	r7, r0
 8005740:	9b0b      	ldr	r3, [sp, #44]	; 0x2c
 8005742:	bb02      	cbnz	r2, 8005786 <_dtoa_r+0xa7e>
 8005744:	4601      	mov	r1, r0
 8005746:	4658      	mov	r0, fp
 8005748:	f000 ff34 	bl	80065b4 <__mcmp>
 800574c:	4602      	mov	r2, r0
 800574e:	9b0b      	ldr	r3, [sp, #44]	; 0x2c
 8005750:	4639      	mov	r1, r7
 8005752:	4628      	mov	r0, r5
 8005754:	e9cd 320b 	strd	r3, r2, [sp, #44]	; 0x2c
 8005758:	f000 fca4 	bl	80060a4 <_Bfree>
 800575c:	9b22      	ldr	r3, [sp, #136]	; 0x88
 800575e:	9a0c      	ldr	r2, [sp, #48]	; 0x30
 8005760:	9f08      	ldr	r7, [sp, #32]
 8005762:	ea43 0102 	orr.w	r1, r3, r2
 8005766:	9b09      	ldr	r3, [sp, #36]	; 0x24
 8005768:	430b      	orrs	r3, r1
 800576a:	9b0b      	ldr	r3, [sp, #44]	; 0x2c
 800576c:	d10d      	bne.n	800578a <_dtoa_r+0xa82>
 800576e:	2b39      	cmp	r3, #57	; 0x39
 8005770:	d029      	beq.n	80057c6 <_dtoa_r+0xabe>
 8005772:	f1b9 0f00 	cmp.w	r9, #0
 8005776:	dd01      	ble.n	800577c <_dtoa_r+0xa74>
 8005778:	9b06      	ldr	r3, [sp, #24]
 800577a:	3331      	adds	r3, #49	; 0x31
 800577c:	9a04      	ldr	r2, [sp, #16]
 800577e:	7013      	strb	r3, [r2, #0]
 8005780:	e776      	b.n	8005670 <_dtoa_r+0x968>
 8005782:	4630      	mov	r0, r6
 8005784:	e7b9      	b.n	80056fa <_dtoa_r+0x9f2>
 8005786:	2201      	movs	r2, #1
 8005788:	e7e2      	b.n	8005750 <_dtoa_r+0xa48>
 800578a:	f1b9 0f00 	cmp.w	r9, #0
 800578e:	db06      	blt.n	800579e <_dtoa_r+0xa96>
 8005790:	9922      	ldr	r1, [sp, #136]	; 0x88
 8005792:	ea41 0909 	orr.w	r9, r1, r9
 8005796:	9909      	ldr	r1, [sp, #36]	; 0x24
 8005798:	ea59 0101 	orrs.w	r1, r9, r1
 800579c:	d120      	bne.n	80057e0 <_dtoa_r+0xad8>
 800579e:	2a00      	cmp	r2, #0
 80057a0:	ddec      	ble.n	800577c <_dtoa_r+0xa74>
 80057a2:	4659      	mov	r1, fp
 80057a4:	2201      	movs	r2, #1
 80057a6:	4628      	mov	r0, r5
 80057a8:	9308      	str	r3, [sp, #32]
 80057aa:	f000 fe93 	bl	80064d4 <__lshift>
 80057ae:	4621      	mov	r1, r4
 80057b0:	4683      	mov	fp, r0
 80057b2:	f000 feff 	bl	80065b4 <__mcmp>
 80057b6:	2800      	cmp	r0, #0
 80057b8:	9b08      	ldr	r3, [sp, #32]
 80057ba:	dc02      	bgt.n	80057c2 <_dtoa_r+0xaba>
 80057bc:	d1de      	bne.n	800577c <_dtoa_r+0xa74>
 80057be:	07da      	lsls	r2, r3, #31
 80057c0:	d5dc      	bpl.n	800577c <_dtoa_r+0xa74>
 80057c2:	2b39      	cmp	r3, #57	; 0x39
 80057c4:	d1d8      	bne.n	8005778 <_dtoa_r+0xa70>
 80057c6:	2339      	movs	r3, #57	; 0x39
 80057c8:	9a04      	ldr	r2, [sp, #16]
 80057ca:	7013      	strb	r3, [r2, #0]
 80057cc:	463b      	mov	r3, r7
 80057ce:	461f      	mov	r7, r3
 80057d0:	f817 2c01 	ldrb.w	r2, [r7, #-1]
 80057d4:	3b01      	subs	r3, #1
 80057d6:	2a39      	cmp	r2, #57	; 0x39
 80057d8:	d050      	beq.n	800587c <_dtoa_r+0xb74>
 80057da:	3201      	adds	r2, #1
 80057dc:	701a      	strb	r2, [r3, #0]
 80057de:	e747      	b.n	8005670 <_dtoa_r+0x968>
 80057e0:	2a00      	cmp	r2, #0
 80057e2:	dd03      	ble.n	80057ec <_dtoa_r+0xae4>
 80057e4:	2b39      	cmp	r3, #57	; 0x39
 80057e6:	d0ee      	beq.n	80057c6 <_dtoa_r+0xabe>
 80057e8:	3301      	adds	r3, #1
 80057ea:	e7c7      	b.n	800577c <_dtoa_r+0xa74>
 80057ec:	9a08      	ldr	r2, [sp, #32]
 80057ee:	990a      	ldr	r1, [sp, #40]	; 0x28
 80057f0:	f802 3c01 	strb.w	r3, [r2, #-1]
 80057f4:	428a      	cmp	r2, r1
 80057f6:	d02a      	beq.n	800584e <_dtoa_r+0xb46>
 80057f8:	4659      	mov	r1, fp
 80057fa:	2300      	movs	r3, #0
 80057fc:	220a      	movs	r2, #10
 80057fe:	4628      	mov	r0, r5
 8005800:	f000 fc72 	bl	80060e8 <__multadd>
 8005804:	45b0      	cmp	r8, r6
 8005806:	4683      	mov	fp, r0
 8005808:	f04f 0300 	mov.w	r3, #0
 800580c:	f04f 020a 	mov.w	r2, #10
 8005810:	4641      	mov	r1, r8
 8005812:	4628      	mov	r0, r5
 8005814:	d107      	bne.n	8005826 <_dtoa_r+0xb1e>
 8005816:	f000 fc67 	bl	80060e8 <__multadd>
 800581a:	4680      	mov	r8, r0
 800581c:	4606      	mov	r6, r0
 800581e:	9b08      	ldr	r3, [sp, #32]
 8005820:	3301      	adds	r3, #1
 8005822:	9308      	str	r3, [sp, #32]
 8005824:	e775      	b.n	8005712 <_dtoa_r+0xa0a>
 8005826:	f000 fc5f 	bl	80060e8 <__multadd>
 800582a:	4631      	mov	r1, r6
 800582c:	4680      	mov	r8, r0
 800582e:	2300      	movs	r3, #0
 8005830:	220a      	movs	r2, #10
 8005832:	4628      	mov	r0, r5
 8005834:	f000 fc58 	bl	80060e8 <__multadd>
 8005838:	4606      	mov	r6, r0
 800583a:	e7f0      	b.n	800581e <_dtoa_r+0xb16>
 800583c:	f1b9 0f00 	cmp.w	r9, #0
 8005840:	bfcc      	ite	gt
 8005842:	464f      	movgt	r7, r9
 8005844:	2701      	movle	r7, #1
 8005846:	f04f 0800 	mov.w	r8, #0
 800584a:	9a03      	ldr	r2, [sp, #12]
 800584c:	4417      	add	r7, r2
 800584e:	4659      	mov	r1, fp
 8005850:	2201      	movs	r2, #1
 8005852:	4628      	mov	r0, r5
 8005854:	9308      	str	r3, [sp, #32]
 8005856:	f000 fe3d 	bl	80064d4 <__lshift>
 800585a:	4621      	mov	r1, r4
 800585c:	4683      	mov	fp, r0
 800585e:	f000 fea9 	bl	80065b4 <__mcmp>
 8005862:	2800      	cmp	r0, #0
 8005864:	dcb2      	bgt.n	80057cc <_dtoa_r+0xac4>
 8005866:	d102      	bne.n	800586e <_dtoa_r+0xb66>
 8005868:	9b08      	ldr	r3, [sp, #32]
 800586a:	07db      	lsls	r3, r3, #31
 800586c:	d4ae      	bmi.n	80057cc <_dtoa_r+0xac4>
 800586e:	463b      	mov	r3, r7
 8005870:	461f      	mov	r7, r3
 8005872:	f813 2d01 	ldrb.w	r2, [r3, #-1]!
 8005876:	2a30      	cmp	r2, #48	; 0x30
 8005878:	d0fa      	beq.n	8005870 <_dtoa_r+0xb68>
 800587a:	e6f9      	b.n	8005670 <_dtoa_r+0x968>
 800587c:	9a03      	ldr	r2, [sp, #12]
 800587e:	429a      	cmp	r2, r3
 8005880:	d1a5      	bne.n	80057ce <_dtoa_r+0xac6>
 8005882:	2331      	movs	r3, #49	; 0x31
 8005884:	f10a 0a01 	add.w	sl, sl, #1
 8005888:	e779      	b.n	800577e <_dtoa_r+0xa76>
 800588a:	4b14      	ldr	r3, [pc, #80]	; (80058dc <_dtoa_r+0xbd4>)
 800588c:	f7ff baa8 	b.w	8004de0 <_dtoa_r+0xd8>
 8005890:	9b26      	ldr	r3, [sp, #152]	; 0x98
 8005892:	2b00      	cmp	r3, #0
 8005894:	f47f aa81 	bne.w	8004d9a <_dtoa_r+0x92>
 8005898:	4b11      	ldr	r3, [pc, #68]	; (80058e0 <_dtoa_r+0xbd8>)
 800589a:	f7ff baa1 	b.w	8004de0 <_dtoa_r+0xd8>
 800589e:	f1b9 0f00 	cmp.w	r9, #0
 80058a2:	dc03      	bgt.n	80058ac <_dtoa_r+0xba4>
 80058a4:	9b22      	ldr	r3, [sp, #136]	; 0x88
 80058a6:	2b02      	cmp	r3, #2
 80058a8:	f73f aecb 	bgt.w	8005642 <_dtoa_r+0x93a>
 80058ac:	9f03      	ldr	r7, [sp, #12]
 80058ae:	4621      	mov	r1, r4
 80058b0:	4658      	mov	r0, fp
 80058b2:	f7ff f99d 	bl	8004bf0 <quorem>
 80058b6:	9a03      	ldr	r2, [sp, #12]
 80058b8:	f100 0330 	add.w	r3, r0, #48	; 0x30
 80058bc:	f807 3b01 	strb.w	r3, [r7], #1
 80058c0:	1aba      	subs	r2, r7, r2
 80058c2:	4591      	cmp	r9, r2
 80058c4:	ddba      	ble.n	800583c <_dtoa_r+0xb34>
 80058c6:	4659      	mov	r1, fp
 80058c8:	2300      	movs	r3, #0
 80058ca:	220a      	movs	r2, #10
 80058cc:	4628      	mov	r0, r5
 80058ce:	f000 fc0b 	bl	80060e8 <__multadd>
 80058d2:	4683      	mov	fp, r0
 80058d4:	e7eb      	b.n	80058ae <_dtoa_r+0xba6>
 80058d6:	bf00      	nop
 80058d8:	08007c68 	.word	0x08007c68
 80058dc:	08007a68 	.word	0x08007a68
 80058e0:	08007be9 	.word	0x08007be9

080058e4 <rshift>:
 80058e4:	6903      	ldr	r3, [r0, #16]
 80058e6:	e92d 43f0 	stmdb	sp!, {r4, r5, r6, r7, r8, r9, lr}
 80058ea:	ebb3 1f61 	cmp.w	r3, r1, asr #5
 80058ee:	f100 0414 	add.w	r4, r0, #20
 80058f2:	ea4f 1261 	mov.w	r2, r1, asr #5
 80058f6:	dd46      	ble.n	8005986 <rshift+0xa2>
 80058f8:	f011 011f 	ands.w	r1, r1, #31
 80058fc:	eb04 0683 	add.w	r6, r4, r3, lsl #2
 8005900:	eb04 0582 	add.w	r5, r4, r2, lsl #2
 8005904:	d10c      	bne.n	8005920 <rshift+0x3c>
 8005906:	4629      	mov	r1, r5
 8005908:	f100 0710 	add.w	r7, r0, #16
 800590c:	42b1      	cmp	r1, r6
 800590e:	d335      	bcc.n	800597c <rshift+0x98>
 8005910:	1a9b      	subs	r3, r3, r2
 8005912:	009b      	lsls	r3, r3, #2
 8005914:	1eea      	subs	r2, r5, #3
 8005916:	4296      	cmp	r6, r2
 8005918:	bf38      	it	cc
 800591a:	2300      	movcc	r3, #0
 800591c:	4423      	add	r3, r4
 800591e:	e015      	b.n	800594c <rshift+0x68>
 8005920:	46a1      	mov	r9, r4
 8005922:	f854 7022 	ldr.w	r7, [r4, r2, lsl #2]
 8005926:	f1c1 0820 	rsb	r8, r1, #32
 800592a:	40cf      	lsrs	r7, r1
 800592c:	f105 0e04 	add.w	lr, r5, #4
 8005930:	4576      	cmp	r6, lr
 8005932:	46f4      	mov	ip, lr
 8005934:	d816      	bhi.n	8005964 <rshift+0x80>
 8005936:	1a9a      	subs	r2, r3, r2
 8005938:	0092      	lsls	r2, r2, #2
 800593a:	3a04      	subs	r2, #4
 800593c:	3501      	adds	r5, #1
 800593e:	42ae      	cmp	r6, r5
 8005940:	bf38      	it	cc
 8005942:	2200      	movcc	r2, #0
 8005944:	18a3      	adds	r3, r4, r2
 8005946:	50a7      	str	r7, [r4, r2]
 8005948:	b107      	cbz	r7, 800594c <rshift+0x68>
 800594a:	3304      	adds	r3, #4
 800594c:	42a3      	cmp	r3, r4
 800594e:	eba3 0204 	sub.w	r2, r3, r4
 8005952:	bf08      	it	eq
 8005954:	2300      	moveq	r3, #0
 8005956:	ea4f 02a2 	mov.w	r2, r2, asr #2
 800595a:	6102      	str	r2, [r0, #16]
 800595c:	bf08      	it	eq
 800595e:	6143      	streq	r3, [r0, #20]
 8005960:	e8bd 83f0 	ldmia.w	sp!, {r4, r5, r6, r7, r8, r9, pc}
 8005964:	f8dc c000 	ldr.w	ip, [ip]
 8005968:	fa0c fc08 	lsl.w	ip, ip, r8
 800596c:	ea4c 0707 	orr.w	r7, ip, r7
 8005970:	f849 7b04 	str.w	r7, [r9], #4
 8005974:	f85e 7b04 	ldr.w	r7, [lr], #4
 8005978:	40cf      	lsrs	r7, r1
 800597a:	e7d9      	b.n	8005930 <rshift+0x4c>
 800597c:	f851 cb04 	ldr.w	ip, [r1], #4
 8005980:	f847 cf04 	str.w	ip, [r7, #4]!
 8005984:	e7c2      	b.n	800590c <rshift+0x28>
 8005986:	4623      	mov	r3, r4
 8005988:	e7e0      	b.n	800594c <rshift+0x68>

0800598a <__hexdig_fun>:
 800598a:	f1a0 0330 	sub.w	r3, r0, #48	; 0x30
 800598e:	2b09      	cmp	r3, #9
 8005990:	d802      	bhi.n	8005998 <__hexdig_fun+0xe>
 8005992:	3820      	subs	r0, #32
 8005994:	b2c0      	uxtb	r0, r0
 8005996:	4770      	bx	lr
 8005998:	f1a0 0361 	sub.w	r3, r0, #97	; 0x61
 800599c:	2b05      	cmp	r3, #5
 800599e:	d801      	bhi.n	80059a4 <__hexdig_fun+0x1a>
 80059a0:	3847      	subs	r0, #71	; 0x47
 80059a2:	e7f7      	b.n	8005994 <__hexdig_fun+0xa>
 80059a4:	f1a0 0341 	sub.w	r3, r0, #65	; 0x41
 80059a8:	2b05      	cmp	r3, #5
 80059aa:	d801      	bhi.n	80059b0 <__hexdig_fun+0x26>
 80059ac:	3827      	subs	r0, #39	; 0x27
 80059ae:	e7f1      	b.n	8005994 <__hexdig_fun+0xa>
 80059b0:	2000      	movs	r0, #0
 80059b2:	4770      	bx	lr

080059b4 <__gethex>:
 80059b4:	e92d 4ff0 	stmdb	sp!, {r4, r5, r6, r7, r8, r9, sl, fp, lr}
 80059b8:	b08b      	sub	sp, #44	; 0x2c
 80059ba:	9305      	str	r3, [sp, #20]
 80059bc:	4bb2      	ldr	r3, [pc, #712]	; (8005c88 <__gethex+0x2d4>)
 80059be:	9002      	str	r0, [sp, #8]
 80059c0:	681b      	ldr	r3, [r3, #0]
 80059c2:	468b      	mov	fp, r1
 80059c4:	4618      	mov	r0, r3
 80059c6:	4690      	mov	r8, r2
 80059c8:	9303      	str	r3, [sp, #12]
 80059ca:	f7fa fbc1 	bl	8000150 <strlen>
 80059ce:	4682      	mov	sl, r0
 80059d0:	9b03      	ldr	r3, [sp, #12]
 80059d2:	f8db 2000 	ldr.w	r2, [fp]
 80059d6:	4403      	add	r3, r0
 80059d8:	f813 3c01 	ldrb.w	r3, [r3, #-1]
 80059dc:	9306      	str	r3, [sp, #24]
 80059de:	1c93      	adds	r3, r2, #2
 80059e0:	f1c2 22ff 	rsb	r2, r2, #4278255360	; 0xff00ff00
 80059e4:	f502 027f 	add.w	r2, r2, #16711680	; 0xff0000
 80059e8:	32fe      	adds	r2, #254	; 0xfe
 80059ea:	18d1      	adds	r1, r2, r3
 80059ec:	461f      	mov	r7, r3
 80059ee:	f813 0b01 	ldrb.w	r0, [r3], #1
 80059f2:	9101      	str	r1, [sp, #4]
 80059f4:	2830      	cmp	r0, #48	; 0x30
 80059f6:	d0f8      	beq.n	80059ea <__gethex+0x36>
 80059f8:	f7ff ffc7 	bl	800598a <__hexdig_fun>
 80059fc:	4604      	mov	r4, r0
 80059fe:	2800      	cmp	r0, #0
 8005a00:	d13a      	bne.n	8005a78 <__gethex+0xc4>
 8005a02:	4652      	mov	r2, sl
 8005a04:	4638      	mov	r0, r7
 8005a06:	9903      	ldr	r1, [sp, #12]
 8005a08:	f001 fa26 	bl	8006e58 <strncmp>
 8005a0c:	4605      	mov	r5, r0
 8005a0e:	2800      	cmp	r0, #0
 8005a10:	d166      	bne.n	8005ae0 <__gethex+0x12c>
 8005a12:	f817 000a 	ldrb.w	r0, [r7, sl]
 8005a16:	eb07 060a 	add.w	r6, r7, sl
 8005a1a:	f7ff ffb6 	bl	800598a <__hexdig_fun>
 8005a1e:	2800      	cmp	r0, #0
 8005a20:	d060      	beq.n	8005ae4 <__gethex+0x130>
 8005a22:	4633      	mov	r3, r6
 8005a24:	7818      	ldrb	r0, [r3, #0]
 8005a26:	461f      	mov	r7, r3
 8005a28:	2830      	cmp	r0, #48	; 0x30
 8005a2a:	f103 0301 	add.w	r3, r3, #1
 8005a2e:	d0f9      	beq.n	8005a24 <__gethex+0x70>
 8005a30:	f7ff ffab 	bl	800598a <__hexdig_fun>
 8005a34:	2301      	movs	r3, #1
 8005a36:	fab0 f480 	clz	r4, r0
 8005a3a:	4635      	mov	r5, r6
 8005a3c:	0964      	lsrs	r4, r4, #5
 8005a3e:	9301      	str	r3, [sp, #4]
 8005a40:	463a      	mov	r2, r7
 8005a42:	4616      	mov	r6, r2
 8005a44:	7830      	ldrb	r0, [r6, #0]
 8005a46:	3201      	adds	r2, #1
 8005a48:	f7ff ff9f 	bl	800598a <__hexdig_fun>
 8005a4c:	2800      	cmp	r0, #0
 8005a4e:	d1f8      	bne.n	8005a42 <__gethex+0x8e>
 8005a50:	4652      	mov	r2, sl
 8005a52:	4630      	mov	r0, r6
 8005a54:	9903      	ldr	r1, [sp, #12]
 8005a56:	f001 f9ff 	bl	8006e58 <strncmp>
 8005a5a:	b980      	cbnz	r0, 8005a7e <__gethex+0xca>
 8005a5c:	b94d      	cbnz	r5, 8005a72 <__gethex+0xbe>
 8005a5e:	eb06 050a 	add.w	r5, r6, sl
 8005a62:	462a      	mov	r2, r5
 8005a64:	4616      	mov	r6, r2
 8005a66:	7830      	ldrb	r0, [r6, #0]
 8005a68:	3201      	adds	r2, #1
 8005a6a:	f7ff ff8e 	bl	800598a <__hexdig_fun>
 8005a6e:	2800      	cmp	r0, #0
 8005a70:	d1f8      	bne.n	8005a64 <__gethex+0xb0>
 8005a72:	1bad      	subs	r5, r5, r6
 8005a74:	00ad      	lsls	r5, r5, #2
 8005a76:	e004      	b.n	8005a82 <__gethex+0xce>
 8005a78:	2400      	movs	r4, #0
 8005a7a:	4625      	mov	r5, r4
 8005a7c:	e7e0      	b.n	8005a40 <__gethex+0x8c>
 8005a7e:	2d00      	cmp	r5, #0
 8005a80:	d1f7      	bne.n	8005a72 <__gethex+0xbe>
 8005a82:	7833      	ldrb	r3, [r6, #0]
 8005a84:	f003 03df 	and.w	r3, r3, #223	; 0xdf
 8005a88:	2b50      	cmp	r3, #80	; 0x50
 8005a8a:	d139      	bne.n	8005b00 <__gethex+0x14c>
 8005a8c:	7873      	ldrb	r3, [r6, #1]
 8005a8e:	2b2b      	cmp	r3, #43	; 0x2b
 8005a90:	d02a      	beq.n	8005ae8 <__gethex+0x134>
 8005a92:	2b2d      	cmp	r3, #45	; 0x2d
 8005a94:	d02c      	beq.n	8005af0 <__gethex+0x13c>
 8005a96:	f04f 0900 	mov.w	r9, #0
 8005a9a:	1c71      	adds	r1, r6, #1
 8005a9c:	7808      	ldrb	r0, [r1, #0]
 8005a9e:	f7ff ff74 	bl	800598a <__hexdig_fun>
 8005aa2:	1e43      	subs	r3, r0, #1
 8005aa4:	b2db      	uxtb	r3, r3
 8005aa6:	2b18      	cmp	r3, #24
 8005aa8:	d82a      	bhi.n	8005b00 <__gethex+0x14c>
 8005aaa:	f1a0 0210 	sub.w	r2, r0, #16
 8005aae:	f811 0f01 	ldrb.w	r0, [r1, #1]!
 8005ab2:	f7ff ff6a 	bl	800598a <__hexdig_fun>
 8005ab6:	1e43      	subs	r3, r0, #1
 8005ab8:	b2db      	uxtb	r3, r3
 8005aba:	2b18      	cmp	r3, #24
 8005abc:	d91b      	bls.n	8005af6 <__gethex+0x142>
 8005abe:	f1b9 0f00 	cmp.w	r9, #0
 8005ac2:	d000      	beq.n	8005ac6 <__gethex+0x112>
 8005ac4:	4252      	negs	r2, r2
 8005ac6:	4415      	add	r5, r2
 8005ac8:	f8cb 1000 	str.w	r1, [fp]
 8005acc:	b1d4      	cbz	r4, 8005b04 <__gethex+0x150>
 8005ace:	9b01      	ldr	r3, [sp, #4]
 8005ad0:	2b00      	cmp	r3, #0
 8005ad2:	bf14      	ite	ne
 8005ad4:	2700      	movne	r7, #0
 8005ad6:	2706      	moveq	r7, #6
 8005ad8:	4638      	mov	r0, r7
 8005ada:	b00b      	add	sp, #44	; 0x2c
 8005adc:	e8bd 8ff0 	ldmia.w	sp!, {r4, r5, r6, r7, r8, r9, sl, fp, pc}
 8005ae0:	463e      	mov	r6, r7
 8005ae2:	4625      	mov	r5, r4
 8005ae4:	2401      	movs	r4, #1
 8005ae6:	e7cc      	b.n	8005a82 <__gethex+0xce>
 8005ae8:	f04f 0900 	mov.w	r9, #0
 8005aec:	1cb1      	adds	r1, r6, #2
 8005aee:	e7d5      	b.n	8005a9c <__gethex+0xe8>
 8005af0:	f04f 0901 	mov.w	r9, #1
 8005af4:	e7fa      	b.n	8005aec <__gethex+0x138>
 8005af6:	230a      	movs	r3, #10
 8005af8:	fb03 0202 	mla	r2, r3, r2, r0
 8005afc:	3a10      	subs	r2, #16
 8005afe:	e7d6      	b.n	8005aae <__gethex+0xfa>
 8005b00:	4631      	mov	r1, r6
 8005b02:	e7e1      	b.n	8005ac8 <__gethex+0x114>
 8005b04:	4621      	mov	r1, r4
 8005b06:	1bf3      	subs	r3, r6, r7
 8005b08:	3b01      	subs	r3, #1
 8005b0a:	2b07      	cmp	r3, #7
 8005b0c:	dc0a      	bgt.n	8005b24 <__gethex+0x170>
 8005b0e:	9802      	ldr	r0, [sp, #8]
 8005b10:	f000 fa88 	bl	8006024 <_Balloc>
 8005b14:	4604      	mov	r4, r0
 8005b16:	b940      	cbnz	r0, 8005b2a <__gethex+0x176>
 8005b18:	4602      	mov	r2, r0
 8005b1a:	21de      	movs	r1, #222	; 0xde
 8005b1c:	4b5b      	ldr	r3, [pc, #364]	; (8005c8c <__gethex+0x2d8>)
 8005b1e:	485c      	ldr	r0, [pc, #368]	; (8005c90 <__gethex+0x2dc>)
 8005b20:	f001 f9bc 	bl	8006e9c <__assert_func>
 8005b24:	3101      	adds	r1, #1
 8005b26:	105b      	asrs	r3, r3, #1
 8005b28:	e7ef      	b.n	8005b0a <__gethex+0x156>
 8005b2a:	f04f 0b00 	mov.w	fp, #0
 8005b2e:	f100 0914 	add.w	r9, r0, #20
 8005b32:	f1ca 0301 	rsb	r3, sl, #1
 8005b36:	f8cd 9010 	str.w	r9, [sp, #16]
 8005b3a:	f8cd b004 	str.w	fp, [sp, #4]
 8005b3e:	9308      	str	r3, [sp, #32]
 8005b40:	42b7      	cmp	r7, r6
 8005b42:	d33f      	bcc.n	8005bc4 <__gethex+0x210>
 8005b44:	9f04      	ldr	r7, [sp, #16]
 8005b46:	9b01      	ldr	r3, [sp, #4]
 8005b48:	f847 3b04 	str.w	r3, [r7], #4
 8005b4c:	eba7 0709 	sub.w	r7, r7, r9
 8005b50:	10bf      	asrs	r7, r7, #2
 8005b52:	6127      	str	r7, [r4, #16]
 8005b54:	4618      	mov	r0, r3
 8005b56:	f000 fb57 	bl	8006208 <__hi0bits>
 8005b5a:	017f      	lsls	r7, r7, #5
 8005b5c:	f8d8 6000 	ldr.w	r6, [r8]
 8005b60:	1a3f      	subs	r7, r7, r0
 8005b62:	42b7      	cmp	r7, r6
 8005b64:	dd62      	ble.n	8005c2c <__gethex+0x278>
 8005b66:	1bbf      	subs	r7, r7, r6
 8005b68:	4639      	mov	r1, r7
 8005b6a:	4620      	mov	r0, r4
 8005b6c:	f000 fef1 	bl	8006952 <__any_on>
 8005b70:	4682      	mov	sl, r0
 8005b72:	b1a8      	cbz	r0, 8005ba0 <__gethex+0x1ec>
 8005b74:	f04f 0a01 	mov.w	sl, #1
 8005b78:	1e7b      	subs	r3, r7, #1
 8005b7a:	1159      	asrs	r1, r3, #5
 8005b7c:	f859 1021 	ldr.w	r1, [r9, r1, lsl #2]
 8005b80:	f003 021f 	and.w	r2, r3, #31
 8005b84:	fa0a f202 	lsl.w	r2, sl, r2
 8005b88:	420a      	tst	r2, r1
 8005b8a:	d009      	beq.n	8005ba0 <__gethex+0x1ec>
 8005b8c:	4553      	cmp	r3, sl
 8005b8e:	dd05      	ble.n	8005b9c <__gethex+0x1e8>
 8005b90:	4620      	mov	r0, r4
 8005b92:	1eb9      	subs	r1, r7, #2
 8005b94:	f000 fedd 	bl	8006952 <__any_on>
 8005b98:	2800      	cmp	r0, #0
 8005b9a:	d144      	bne.n	8005c26 <__gethex+0x272>
 8005b9c:	f04f 0a02 	mov.w	sl, #2
 8005ba0:	4639      	mov	r1, r7
 8005ba2:	4620      	mov	r0, r4
 8005ba4:	f7ff fe9e 	bl	80058e4 <rshift>
 8005ba8:	443d      	add	r5, r7
 8005baa:	f8d8 3008 	ldr.w	r3, [r8, #8]
 8005bae:	42ab      	cmp	r3, r5
 8005bb0:	da4a      	bge.n	8005c48 <__gethex+0x294>
 8005bb2:	4621      	mov	r1, r4
 8005bb4:	9802      	ldr	r0, [sp, #8]
 8005bb6:	f000 fa75 	bl	80060a4 <_Bfree>
 8005bba:	2300      	movs	r3, #0
 8005bbc:	9a14      	ldr	r2, [sp, #80]	; 0x50
 8005bbe:	27a3      	movs	r7, #163	; 0xa3
 8005bc0:	6013      	str	r3, [r2, #0]
 8005bc2:	e789      	b.n	8005ad8 <__gethex+0x124>
 8005bc4:	1e73      	subs	r3, r6, #1
 8005bc6:	9a06      	ldr	r2, [sp, #24]
 8005bc8:	9307      	str	r3, [sp, #28]
 8005bca:	f816 3c01 	ldrb.w	r3, [r6, #-1]
 8005bce:	4293      	cmp	r3, r2
 8005bd0:	d019      	beq.n	8005c06 <__gethex+0x252>
 8005bd2:	f1bb 0f20 	cmp.w	fp, #32
 8005bd6:	d107      	bne.n	8005be8 <__gethex+0x234>
 8005bd8:	9b04      	ldr	r3, [sp, #16]
 8005bda:	9a01      	ldr	r2, [sp, #4]
 8005bdc:	f843 2b04 	str.w	r2, [r3], #4
 8005be0:	9304      	str	r3, [sp, #16]
 8005be2:	2300      	movs	r3, #0
 8005be4:	469b      	mov	fp, r3
 8005be6:	9301      	str	r3, [sp, #4]
 8005be8:	f816 0c01 	ldrb.w	r0, [r6, #-1]
 8005bec:	f7ff fecd 	bl	800598a <__hexdig_fun>
 8005bf0:	9b01      	ldr	r3, [sp, #4]
 8005bf2:	f000 000f 	and.w	r0, r0, #15
 8005bf6:	fa00 f00b 	lsl.w	r0, r0, fp
 8005bfa:	4303      	orrs	r3, r0
 8005bfc:	9301      	str	r3, [sp, #4]
 8005bfe:	f10b 0b04 	add.w	fp, fp, #4
 8005c02:	9b07      	ldr	r3, [sp, #28]
 8005c04:	e00d      	b.n	8005c22 <__gethex+0x26e>
 8005c06:	9a08      	ldr	r2, [sp, #32]
 8005c08:	1e73      	subs	r3, r6, #1
 8005c0a:	4413      	add	r3, r2
 8005c0c:	42bb      	cmp	r3, r7
 8005c0e:	d3e0      	bcc.n	8005bd2 <__gethex+0x21e>
 8005c10:	4618      	mov	r0, r3
 8005c12:	4652      	mov	r2, sl
 8005c14:	9903      	ldr	r1, [sp, #12]
 8005c16:	9309      	str	r3, [sp, #36]	; 0x24
 8005c18:	f001 f91e 	bl	8006e58 <strncmp>
 8005c1c:	9b09      	ldr	r3, [sp, #36]	; 0x24
 8005c1e:	2800      	cmp	r0, #0
 8005c20:	d1d7      	bne.n	8005bd2 <__gethex+0x21e>
 8005c22:	461e      	mov	r6, r3
 8005c24:	e78c      	b.n	8005b40 <__gethex+0x18c>
 8005c26:	f04f 0a03 	mov.w	sl, #3
 8005c2a:	e7b9      	b.n	8005ba0 <__gethex+0x1ec>
 8005c2c:	da09      	bge.n	8005c42 <__gethex+0x28e>
 8005c2e:	1bf7      	subs	r7, r6, r7
 8005c30:	4621      	mov	r1, r4
 8005c32:	463a      	mov	r2, r7
 8005c34:	9802      	ldr	r0, [sp, #8]
 8005c36:	f000 fc4d 	bl	80064d4 <__lshift>
 8005c3a:	4604      	mov	r4, r0
 8005c3c:	1bed      	subs	r5, r5, r7
 8005c3e:	f100 0914 	add.w	r9, r0, #20
 8005c42:	f04f 0a00 	mov.w	sl, #0
 8005c46:	e7b0      	b.n	8005baa <__gethex+0x1f6>
 8005c48:	f8d8 0004 	ldr.w	r0, [r8, #4]
 8005c4c:	42a8      	cmp	r0, r5
 8005c4e:	dd72      	ble.n	8005d36 <__gethex+0x382>
 8005c50:	1b45      	subs	r5, r0, r5
 8005c52:	42ae      	cmp	r6, r5
 8005c54:	dc35      	bgt.n	8005cc2 <__gethex+0x30e>
 8005c56:	f8d8 300c 	ldr.w	r3, [r8, #12]
 8005c5a:	2b02      	cmp	r3, #2
 8005c5c:	d029      	beq.n	8005cb2 <__gethex+0x2fe>
 8005c5e:	2b03      	cmp	r3, #3
 8005c60:	d02b      	beq.n	8005cba <__gethex+0x306>
 8005c62:	2b01      	cmp	r3, #1
 8005c64:	d11c      	bne.n	8005ca0 <__gethex+0x2ec>
 8005c66:	42ae      	cmp	r6, r5
 8005c68:	d11a      	bne.n	8005ca0 <__gethex+0x2ec>
 8005c6a:	2e01      	cmp	r6, #1
 8005c6c:	d112      	bne.n	8005c94 <__gethex+0x2e0>
 8005c6e:	f8d8 3004 	ldr.w	r3, [r8, #4]
 8005c72:	9a05      	ldr	r2, [sp, #20]
 8005c74:	2762      	movs	r7, #98	; 0x62
 8005c76:	6013      	str	r3, [r2, #0]
 8005c78:	2301      	movs	r3, #1
 8005c7a:	6123      	str	r3, [r4, #16]
 8005c7c:	f8c9 3000 	str.w	r3, [r9]
 8005c80:	9b14      	ldr	r3, [sp, #80]	; 0x50
 8005c82:	601c      	str	r4, [r3, #0]
 8005c84:	e728      	b.n	8005ad8 <__gethex+0x124>
 8005c86:	bf00      	nop
 8005c88:	08007ce0 	.word	0x08007ce0
 8005c8c:	08007c68 	.word	0x08007c68
 8005c90:	08007c79 	.word	0x08007c79
 8005c94:	4620      	mov	r0, r4
 8005c96:	1e71      	subs	r1, r6, #1
 8005c98:	f000 fe5b 	bl	8006952 <__any_on>
 8005c9c:	2800      	cmp	r0, #0
 8005c9e:	d1e6      	bne.n	8005c6e <__gethex+0x2ba>
 8005ca0:	4621      	mov	r1, r4
 8005ca2:	9802      	ldr	r0, [sp, #8]
 8005ca4:	f000 f9fe 	bl	80060a4 <_Bfree>
 8005ca8:	2300      	movs	r3, #0
 8005caa:	9a14      	ldr	r2, [sp, #80]	; 0x50
 8005cac:	2750      	movs	r7, #80	; 0x50
 8005cae:	6013      	str	r3, [r2, #0]
 8005cb0:	e712      	b.n	8005ad8 <__gethex+0x124>
 8005cb2:	9b15      	ldr	r3, [sp, #84]	; 0x54
 8005cb4:	2b00      	cmp	r3, #0
 8005cb6:	d1f3      	bne.n	8005ca0 <__gethex+0x2ec>
 8005cb8:	e7d9      	b.n	8005c6e <__gethex+0x2ba>
 8005cba:	9b15      	ldr	r3, [sp, #84]	; 0x54
 8005cbc:	2b00      	cmp	r3, #0
 8005cbe:	d1d6      	bne.n	8005c6e <__gethex+0x2ba>
 8005cc0:	e7ee      	b.n	8005ca0 <__gethex+0x2ec>
 8005cc2:	1e6f      	subs	r7, r5, #1
 8005cc4:	f1ba 0f00 	cmp.w	sl, #0
 8005cc8:	d132      	bne.n	8005d30 <__gethex+0x37c>
 8005cca:	b127      	cbz	r7, 8005cd6 <__gethex+0x322>
 8005ccc:	4639      	mov	r1, r7
 8005cce:	4620      	mov	r0, r4
 8005cd0:	f000 fe3f 	bl	8006952 <__any_on>
 8005cd4:	4682      	mov	sl, r0
 8005cd6:	2101      	movs	r1, #1
 8005cd8:	117b      	asrs	r3, r7, #5
 8005cda:	f859 3023 	ldr.w	r3, [r9, r3, lsl #2]
 8005cde:	f007 071f 	and.w	r7, r7, #31
 8005ce2:	fa01 f707 	lsl.w	r7, r1, r7
 8005ce6:	421f      	tst	r7, r3
 8005ce8:	f04f 0702 	mov.w	r7, #2
 8005cec:	4629      	mov	r1, r5
 8005cee:	4620      	mov	r0, r4
 8005cf0:	bf18      	it	ne
 8005cf2:	f04a 0a02 	orrne.w	sl, sl, #2
 8005cf6:	1b76      	subs	r6, r6, r5
 8005cf8:	f7ff fdf4 	bl	80058e4 <rshift>
 8005cfc:	f8d8 5004 	ldr.w	r5, [r8, #4]
 8005d00:	f1ba 0f00 	cmp.w	sl, #0
 8005d04:	d048      	beq.n	8005d98 <__gethex+0x3e4>
 8005d06:	f8d8 300c 	ldr.w	r3, [r8, #12]
 8005d0a:	2b02      	cmp	r3, #2
 8005d0c:	d015      	beq.n	8005d3a <__gethex+0x386>
 8005d0e:	2b03      	cmp	r3, #3
 8005d10:	d017      	beq.n	8005d42 <__gethex+0x38e>
 8005d12:	2b01      	cmp	r3, #1
 8005d14:	d109      	bne.n	8005d2a <__gethex+0x376>
 8005d16:	f01a 0f02 	tst.w	sl, #2
 8005d1a:	d006      	beq.n	8005d2a <__gethex+0x376>
 8005d1c:	f8d9 0000 	ldr.w	r0, [r9]
 8005d20:	ea4a 0a00 	orr.w	sl, sl, r0
 8005d24:	f01a 0f01 	tst.w	sl, #1
 8005d28:	d10e      	bne.n	8005d48 <__gethex+0x394>
 8005d2a:	f047 0710 	orr.w	r7, r7, #16
 8005d2e:	e033      	b.n	8005d98 <__gethex+0x3e4>
 8005d30:	f04f 0a01 	mov.w	sl, #1
 8005d34:	e7cf      	b.n	8005cd6 <__gethex+0x322>
 8005d36:	2701      	movs	r7, #1
 8005d38:	e7e2      	b.n	8005d00 <__gethex+0x34c>
 8005d3a:	9b15      	ldr	r3, [sp, #84]	; 0x54
 8005d3c:	f1c3 0301 	rsb	r3, r3, #1
 8005d40:	9315      	str	r3, [sp, #84]	; 0x54
 8005d42:	9b15      	ldr	r3, [sp, #84]	; 0x54
 8005d44:	2b00      	cmp	r3, #0
 8005d46:	d0f0      	beq.n	8005d2a <__gethex+0x376>
 8005d48:	f04f 0c00 	mov.w	ip, #0
 8005d4c:	f8d4 b010 	ldr.w	fp, [r4, #16]
 8005d50:	f104 0314 	add.w	r3, r4, #20
 8005d54:	ea4f 0a8b 	mov.w	sl, fp, lsl #2
 8005d58:	eb03 018b 	add.w	r1, r3, fp, lsl #2
 8005d5c:	4618      	mov	r0, r3
 8005d5e:	f853 2b04 	ldr.w	r2, [r3], #4
 8005d62:	f1b2 3fff 	cmp.w	r2, #4294967295
 8005d66:	d01c      	beq.n	8005da2 <__gethex+0x3ee>
 8005d68:	3201      	adds	r2, #1
 8005d6a:	6002      	str	r2, [r0, #0]
 8005d6c:	2f02      	cmp	r7, #2
 8005d6e:	f104 0314 	add.w	r3, r4, #20
 8005d72:	d13d      	bne.n	8005df0 <__gethex+0x43c>
 8005d74:	f8d8 2000 	ldr.w	r2, [r8]
 8005d78:	3a01      	subs	r2, #1
 8005d7a:	42b2      	cmp	r2, r6
 8005d7c:	d10a      	bne.n	8005d94 <__gethex+0x3e0>
 8005d7e:	2201      	movs	r2, #1
 8005d80:	1171      	asrs	r1, r6, #5
 8005d82:	f853 3021 	ldr.w	r3, [r3, r1, lsl #2]
 8005d86:	f006 061f 	and.w	r6, r6, #31
 8005d8a:	fa02 f606 	lsl.w	r6, r2, r6
 8005d8e:	421e      	tst	r6, r3
 8005d90:	bf18      	it	ne
 8005d92:	4617      	movne	r7, r2
 8005d94:	f047 0720 	orr.w	r7, r7, #32
 8005d98:	9b14      	ldr	r3, [sp, #80]	; 0x50
 8005d9a:	601c      	str	r4, [r3, #0]
 8005d9c:	9b05      	ldr	r3, [sp, #20]
 8005d9e:	601d      	str	r5, [r3, #0]
 8005da0:	e69a      	b.n	8005ad8 <__gethex+0x124>
 8005da2:	4299      	cmp	r1, r3
 8005da4:	f843 cc04 	str.w	ip, [r3, #-4]
 8005da8:	d8d8      	bhi.n	8005d5c <__gethex+0x3a8>
 8005daa:	68a3      	ldr	r3, [r4, #8]
 8005dac:	459b      	cmp	fp, r3
 8005dae:	db17      	blt.n	8005de0 <__gethex+0x42c>
 8005db0:	6861      	ldr	r1, [r4, #4]
 8005db2:	9802      	ldr	r0, [sp, #8]
 8005db4:	3101      	adds	r1, #1
 8005db6:	f000 f935 	bl	8006024 <_Balloc>
 8005dba:	4681      	mov	r9, r0
 8005dbc:	b918      	cbnz	r0, 8005dc6 <__gethex+0x412>
 8005dbe:	4602      	mov	r2, r0
 8005dc0:	2184      	movs	r1, #132	; 0x84
 8005dc2:	4b19      	ldr	r3, [pc, #100]	; (8005e28 <__gethex+0x474>)
 8005dc4:	e6ab      	b.n	8005b1e <__gethex+0x16a>
 8005dc6:	6922      	ldr	r2, [r4, #16]
 8005dc8:	f104 010c 	add.w	r1, r4, #12
 8005dcc:	3202      	adds	r2, #2
 8005dce:	0092      	lsls	r2, r2, #2
 8005dd0:	300c      	adds	r0, #12
 8005dd2:	f000 f919 	bl	8006008 <memcpy>
 8005dd6:	4621      	mov	r1, r4
 8005dd8:	9802      	ldr	r0, [sp, #8]
 8005dda:	f000 f963 	bl	80060a4 <_Bfree>
 8005dde:	464c      	mov	r4, r9
 8005de0:	6923      	ldr	r3, [r4, #16]
 8005de2:	1c5a      	adds	r2, r3, #1
 8005de4:	6122      	str	r2, [r4, #16]
 8005de6:	2201      	movs	r2, #1
 8005de8:	eb04 0383 	add.w	r3, r4, r3, lsl #2
 8005dec:	615a      	str	r2, [r3, #20]
 8005dee:	e7bd      	b.n	8005d6c <__gethex+0x3b8>
 8005df0:	6922      	ldr	r2, [r4, #16]
 8005df2:	455a      	cmp	r2, fp
 8005df4:	dd0b      	ble.n	8005e0e <__gethex+0x45a>
 8005df6:	2101      	movs	r1, #1
 8005df8:	4620      	mov	r0, r4
 8005dfa:	f7ff fd73 	bl	80058e4 <rshift>
 8005dfe:	f8d8 3008 	ldr.w	r3, [r8, #8]
 8005e02:	3501      	adds	r5, #1
 8005e04:	42ab      	cmp	r3, r5
 8005e06:	f6ff aed4 	blt.w	8005bb2 <__gethex+0x1fe>
 8005e0a:	2701      	movs	r7, #1
 8005e0c:	e7c2      	b.n	8005d94 <__gethex+0x3e0>
 8005e0e:	f016 061f 	ands.w	r6, r6, #31
 8005e12:	d0fa      	beq.n	8005e0a <__gethex+0x456>
 8005e14:	4453      	add	r3, sl
 8005e16:	f853 0c04 	ldr.w	r0, [r3, #-4]
 8005e1a:	f000 f9f5 	bl	8006208 <__hi0bits>
 8005e1e:	f1c6 0620 	rsb	r6, r6, #32
 8005e22:	42b0      	cmp	r0, r6
 8005e24:	dbe7      	blt.n	8005df6 <__gethex+0x442>
 8005e26:	e7f0      	b.n	8005e0a <__gethex+0x456>
 8005e28:	08007c68 	.word	0x08007c68

08005e2c <L_shift>:
 8005e2c:	f1c2 0208 	rsb	r2, r2, #8
 8005e30:	0092      	lsls	r2, r2, #2
 8005e32:	b570      	push	{r4, r5, r6, lr}
 8005e34:	f1c2 0620 	rsb	r6, r2, #32
 8005e38:	6843      	ldr	r3, [r0, #4]
 8005e3a:	6804      	ldr	r4, [r0, #0]
 8005e3c:	fa03 f506 	lsl.w	r5, r3, r6
 8005e40:	432c      	orrs	r4, r5
 8005e42:	40d3      	lsrs	r3, r2
 8005e44:	6004      	str	r4, [r0, #0]
 8005e46:	f840 3f04 	str.w	r3, [r0, #4]!
 8005e4a:	4288      	cmp	r0, r1
 8005e4c:	d3f4      	bcc.n	8005e38 <L_shift+0xc>
 8005e4e:	bd70      	pop	{r4, r5, r6, pc}

08005e50 <__match>:
 8005e50:	b530      	push	{r4, r5, lr}
 8005e52:	6803      	ldr	r3, [r0, #0]
 8005e54:	3301      	adds	r3, #1
 8005e56:	f811 4b01 	ldrb.w	r4, [r1], #1
 8005e5a:	b914      	cbnz	r4, 8005e62 <__match+0x12>
 8005e5c:	6003      	str	r3, [r0, #0]
 8005e5e:	2001      	movs	r0, #1
 8005e60:	bd30      	pop	{r4, r5, pc}
 8005e62:	f813 2b01 	ldrb.w	r2, [r3], #1
 8005e66:	f1a2 0541 	sub.w	r5, r2, #65	; 0x41
 8005e6a:	2d19      	cmp	r5, #25
 8005e6c:	bf98      	it	ls
 8005e6e:	3220      	addls	r2, #32
 8005e70:	42a2      	cmp	r2, r4
 8005e72:	d0f0      	beq.n	8005e56 <__match+0x6>
 8005e74:	2000      	movs	r0, #0
 8005e76:	e7f3      	b.n	8005e60 <__match+0x10>

08005e78 <__hexnan>:
 8005e78:	e92d 4ff0 	stmdb	sp!, {r4, r5, r6, r7, r8, r9, sl, fp, lr}
 8005e7c:	2500      	movs	r5, #0
 8005e7e:	680b      	ldr	r3, [r1, #0]
 8005e80:	4682      	mov	sl, r0
 8005e82:	115e      	asrs	r6, r3, #5
 8005e84:	eb02 0686 	add.w	r6, r2, r6, lsl #2
 8005e88:	f013 031f 	ands.w	r3, r3, #31
 8005e8c:	bf18      	it	ne
 8005e8e:	3604      	addne	r6, #4
 8005e90:	1f37      	subs	r7, r6, #4
 8005e92:	46b9      	mov	r9, r7
 8005e94:	463c      	mov	r4, r7
 8005e96:	46ab      	mov	fp, r5
 8005e98:	b087      	sub	sp, #28
 8005e9a:	4690      	mov	r8, r2
 8005e9c:	6802      	ldr	r2, [r0, #0]
 8005e9e:	9301      	str	r3, [sp, #4]
 8005ea0:	f846 5c04 	str.w	r5, [r6, #-4]
 8005ea4:	9502      	str	r5, [sp, #8]
 8005ea6:	7851      	ldrb	r1, [r2, #1]
 8005ea8:	1c53      	adds	r3, r2, #1
 8005eaa:	9303      	str	r3, [sp, #12]
 8005eac:	b341      	cbz	r1, 8005f00 <__hexnan+0x88>
 8005eae:	4608      	mov	r0, r1
 8005eb0:	9205      	str	r2, [sp, #20]
 8005eb2:	9104      	str	r1, [sp, #16]
 8005eb4:	f7ff fd69 	bl	800598a <__hexdig_fun>
 8005eb8:	2800      	cmp	r0, #0
 8005eba:	d14f      	bne.n	8005f5c <__hexnan+0xe4>
 8005ebc:	9904      	ldr	r1, [sp, #16]
 8005ebe:	9a05      	ldr	r2, [sp, #20]
 8005ec0:	2920      	cmp	r1, #32
 8005ec2:	d818      	bhi.n	8005ef6 <__hexnan+0x7e>
 8005ec4:	9b02      	ldr	r3, [sp, #8]
 8005ec6:	459b      	cmp	fp, r3
 8005ec8:	dd13      	ble.n	8005ef2 <__hexnan+0x7a>
 8005eca:	454c      	cmp	r4, r9
 8005ecc:	d206      	bcs.n	8005edc <__hexnan+0x64>
 8005ece:	2d07      	cmp	r5, #7
 8005ed0:	dc04      	bgt.n	8005edc <__hexnan+0x64>
 8005ed2:	462a      	mov	r2, r5
 8005ed4:	4649      	mov	r1, r9
 8005ed6:	4620      	mov	r0, r4
 8005ed8:	f7ff ffa8 	bl	8005e2c <L_shift>
 8005edc:	4544      	cmp	r4, r8
 8005ede:	d950      	bls.n	8005f82 <__hexnan+0x10a>
 8005ee0:	2300      	movs	r3, #0
 8005ee2:	f1a4 0904 	sub.w	r9, r4, #4
 8005ee6:	f844 3c04 	str.w	r3, [r4, #-4]
 8005eea:	461d      	mov	r5, r3
 8005eec:	464c      	mov	r4, r9
 8005eee:	f8cd b008 	str.w	fp, [sp, #8]
 8005ef2:	9a03      	ldr	r2, [sp, #12]
 8005ef4:	e7d7      	b.n	8005ea6 <__hexnan+0x2e>
 8005ef6:	2929      	cmp	r1, #41	; 0x29
 8005ef8:	d156      	bne.n	8005fa8 <__hexnan+0x130>
 8005efa:	3202      	adds	r2, #2
 8005efc:	f8ca 2000 	str.w	r2, [sl]
 8005f00:	f1bb 0f00 	cmp.w	fp, #0
 8005f04:	d050      	beq.n	8005fa8 <__hexnan+0x130>
 8005f06:	454c      	cmp	r4, r9
 8005f08:	d206      	bcs.n	8005f18 <__hexnan+0xa0>
 8005f0a:	2d07      	cmp	r5, #7
 8005f0c:	dc04      	bgt.n	8005f18 <__hexnan+0xa0>
 8005f0e:	462a      	mov	r2, r5
 8005f10:	4649      	mov	r1, r9
 8005f12:	4620      	mov	r0, r4
 8005f14:	f7ff ff8a 	bl	8005e2c <L_shift>
 8005f18:	4544      	cmp	r4, r8
 8005f1a:	d934      	bls.n	8005f86 <__hexnan+0x10e>
 8005f1c:	4623      	mov	r3, r4
 8005f1e:	f1a8 0204 	sub.w	r2, r8, #4
 8005f22:	f853 1b04 	ldr.w	r1, [r3], #4
 8005f26:	429f      	cmp	r7, r3
 8005f28:	f842 1f04 	str.w	r1, [r2, #4]!
 8005f2c:	d2f9      	bcs.n	8005f22 <__hexnan+0xaa>
 8005f2e:	1b3b      	subs	r3, r7, r4
 8005f30:	f023 0303 	bic.w	r3, r3, #3
 8005f34:	3304      	adds	r3, #4
 8005f36:	3401      	adds	r4, #1
 8005f38:	3e03      	subs	r6, #3
 8005f3a:	42b4      	cmp	r4, r6
 8005f3c:	bf88      	it	hi
 8005f3e:	2304      	movhi	r3, #4
 8005f40:	2200      	movs	r2, #0
 8005f42:	4443      	add	r3, r8
 8005f44:	f843 2b04 	str.w	r2, [r3], #4
 8005f48:	429f      	cmp	r7, r3
 8005f4a:	d2fb      	bcs.n	8005f44 <__hexnan+0xcc>
 8005f4c:	683b      	ldr	r3, [r7, #0]
 8005f4e:	b91b      	cbnz	r3, 8005f58 <__hexnan+0xe0>
 8005f50:	4547      	cmp	r7, r8
 8005f52:	d127      	bne.n	8005fa4 <__hexnan+0x12c>
 8005f54:	2301      	movs	r3, #1
 8005f56:	603b      	str	r3, [r7, #0]
 8005f58:	2005      	movs	r0, #5
 8005f5a:	e026      	b.n	8005faa <__hexnan+0x132>
 8005f5c:	3501      	adds	r5, #1
 8005f5e:	2d08      	cmp	r5, #8
 8005f60:	f10b 0b01 	add.w	fp, fp, #1
 8005f64:	dd06      	ble.n	8005f74 <__hexnan+0xfc>
 8005f66:	4544      	cmp	r4, r8
 8005f68:	d9c3      	bls.n	8005ef2 <__hexnan+0x7a>
 8005f6a:	2300      	movs	r3, #0
 8005f6c:	2501      	movs	r5, #1
 8005f6e:	f844 3c04 	str.w	r3, [r4, #-4]
 8005f72:	3c04      	subs	r4, #4
 8005f74:	6822      	ldr	r2, [r4, #0]
 8005f76:	f000 000f 	and.w	r0, r0, #15
 8005f7a:	ea40 1202 	orr.w	r2, r0, r2, lsl #4
 8005f7e:	6022      	str	r2, [r4, #0]
 8005f80:	e7b7      	b.n	8005ef2 <__hexnan+0x7a>
 8005f82:	2508      	movs	r5, #8
 8005f84:	e7b5      	b.n	8005ef2 <__hexnan+0x7a>
 8005f86:	9b01      	ldr	r3, [sp, #4]
 8005f88:	2b00      	cmp	r3, #0
 8005f8a:	d0df      	beq.n	8005f4c <__hexnan+0xd4>
 8005f8c:	f04f 32ff 	mov.w	r2, #4294967295
 8005f90:	f1c3 0320 	rsb	r3, r3, #32
 8005f94:	fa22 f303 	lsr.w	r3, r2, r3
 8005f98:	f856 2c04 	ldr.w	r2, [r6, #-4]
 8005f9c:	401a      	ands	r2, r3
 8005f9e:	f846 2c04 	str.w	r2, [r6, #-4]
 8005fa2:	e7d3      	b.n	8005f4c <__hexnan+0xd4>
 8005fa4:	3f04      	subs	r7, #4
 8005fa6:	e7d1      	b.n	8005f4c <__hexnan+0xd4>
 8005fa8:	2004      	movs	r0, #4
 8005faa:	b007      	add	sp, #28
 8005fac:	e8bd 8ff0 	ldmia.w	sp!, {r4, r5, r6, r7, r8, r9, sl, fp, pc}

08005fb0 <_localeconv_r>:
 8005fb0:	4800      	ldr	r0, [pc, #0]	; (8005fb4 <_localeconv_r+0x4>)
 8005fb2:	4770      	bx	lr
 8005fb4:	20000174 	.word	0x20000174

08005fb8 <malloc>:
 8005fb8:	4b02      	ldr	r3, [pc, #8]	; (8005fc4 <malloc+0xc>)
 8005fba:	4601      	mov	r1, r0
 8005fbc:	6818      	ldr	r0, [r3, #0]
 8005fbe:	f000 bd65 	b.w	8006a8c <_malloc_r>
 8005fc2:	bf00      	nop
 8005fc4:	2000001c 	.word	0x2000001c

08005fc8 <__ascii_mbtowc>:
 8005fc8:	b082      	sub	sp, #8
 8005fca:	b901      	cbnz	r1, 8005fce <__ascii_mbtowc+0x6>
 8005fcc:	a901      	add	r1, sp, #4
 8005fce:	b142      	cbz	r2, 8005fe2 <__ascii_mbtowc+0x1a>
 8005fd0:	b14b      	cbz	r3, 8005fe6 <__ascii_mbtowc+0x1e>
 8005fd2:	7813      	ldrb	r3, [r2, #0]
 8005fd4:	600b      	str	r3, [r1, #0]
 8005fd6:	7812      	ldrb	r2, [r2, #0]
 8005fd8:	1e10      	subs	r0, r2, #0
 8005fda:	bf18      	it	ne
 8005fdc:	2001      	movne	r0, #1
 8005fde:	b002      	add	sp, #8
 8005fe0:	4770      	bx	lr
 8005fe2:	4610      	mov	r0, r2
 8005fe4:	e7fb      	b.n	8005fde <__ascii_mbtowc+0x16>
 8005fe6:	f06f 0001 	mvn.w	r0, #1
 8005fea:	e7f8      	b.n	8005fde <__ascii_mbtowc+0x16>

08005fec <memchr>:
 8005fec:	4603      	mov	r3, r0
 8005fee:	b510      	push	{r4, lr}
 8005ff0:	b2c9      	uxtb	r1, r1
 8005ff2:	4402      	add	r2, r0
 8005ff4:	4293      	cmp	r3, r2
 8005ff6:	4618      	mov	r0, r3
 8005ff8:	d101      	bne.n	8005ffe <memchr+0x12>
 8005ffa:	2000      	movs	r0, #0
 8005ffc:	e003      	b.n	8006006 <memchr+0x1a>
 8005ffe:	7804      	ldrb	r4, [r0, #0]
 8006000:	3301      	adds	r3, #1
 8006002:	428c      	cmp	r4, r1
 8006004:	d1f6      	bne.n	8005ff4 <memchr+0x8>
 8006006:	bd10      	pop	{r4, pc}

08006008 <memcpy>:
 8006008:	440a      	add	r2, r1
 800600a:	4291      	cmp	r1, r2
 800600c:	f100 33ff 	add.w	r3, r0, #4294967295
 8006010:	d100      	bne.n	8006014 <memcpy+0xc>
 8006012:	4770      	bx	lr
 8006014:	b510      	push	{r4, lr}
 8006016:	f811 4b01 	ldrb.w	r4, [r1], #1
 800601a:	4291      	cmp	r1, r2
 800601c:	f803 4f01 	strb.w	r4, [r3, #1]!
 8006020:	d1f9      	bne.n	8006016 <memcpy+0xe>
 8006022:	bd10      	pop	{r4, pc}

08006024 <_Balloc>:
 8006024:	b570      	push	{r4, r5, r6, lr}
 8006026:	6a46      	ldr	r6, [r0, #36]	; 0x24
 8006028:	4604      	mov	r4, r0
 800602a:	460d      	mov	r5, r1
 800602c:	b976      	cbnz	r6, 800604c <_Balloc+0x28>
 800602e:	2010      	movs	r0, #16
 8006030:	f7ff ffc2 	bl	8005fb8 <malloc>
 8006034:	4602      	mov	r2, r0
 8006036:	6260      	str	r0, [r4, #36]	; 0x24
 8006038:	b920      	cbnz	r0, 8006044 <_Balloc+0x20>
 800603a:	2166      	movs	r1, #102	; 0x66
 800603c:	4b17      	ldr	r3, [pc, #92]	; (800609c <_Balloc+0x78>)
 800603e:	4818      	ldr	r0, [pc, #96]	; (80060a0 <_Balloc+0x7c>)
 8006040:	f000 ff2c 	bl	8006e9c <__assert_func>
 8006044:	e9c0 6601 	strd	r6, r6, [r0, #4]
 8006048:	6006      	str	r6, [r0, #0]
 800604a:	60c6      	str	r6, [r0, #12]
 800604c:	6a66      	ldr	r6, [r4, #36]	; 0x24
 800604e:	68f3      	ldr	r3, [r6, #12]
 8006050:	b183      	cbz	r3, 8006074 <_Balloc+0x50>
 8006052:	6a63      	ldr	r3, [r4, #36]	; 0x24
 8006054:	68db      	ldr	r3, [r3, #12]
 8006056:	f853 0025 	ldr.w	r0, [r3, r5, lsl #2]
 800605a:	b9b8      	cbnz	r0, 800608c <_Balloc+0x68>
 800605c:	2101      	movs	r1, #1
 800605e:	fa01 f605 	lsl.w	r6, r1, r5
 8006062:	1d72      	adds	r2, r6, #5
 8006064:	4620      	mov	r0, r4
 8006066:	0092      	lsls	r2, r2, #2
 8006068:	f000 fc94 	bl	8006994 <_calloc_r>
 800606c:	b160      	cbz	r0, 8006088 <_Balloc+0x64>
 800606e:	e9c0 5601 	strd	r5, r6, [r0, #4]
 8006072:	e00e      	b.n	8006092 <_Balloc+0x6e>
 8006074:	2221      	movs	r2, #33	; 0x21
 8006076:	2104      	movs	r1, #4
 8006078:	4620      	mov	r0, r4
 800607a:	f000 fc8b 	bl	8006994 <_calloc_r>
 800607e:	6a63      	ldr	r3, [r4, #36]	; 0x24
 8006080:	60f0      	str	r0, [r6, #12]
 8006082:	68db      	ldr	r3, [r3, #12]
 8006084:	2b00      	cmp	r3, #0
 8006086:	d1e4      	bne.n	8006052 <_Balloc+0x2e>
 8006088:	2000      	movs	r0, #0
 800608a:	bd70      	pop	{r4, r5, r6, pc}
 800608c:	6802      	ldr	r2, [r0, #0]
 800608e:	f843 2025 	str.w	r2, [r3, r5, lsl #2]
 8006092:	2300      	movs	r3, #0
 8006094:	e9c0 3303 	strd	r3, r3, [r0, #12]
 8006098:	e7f7      	b.n	800608a <_Balloc+0x66>
 800609a:	bf00      	nop
 800609c:	08007bf6 	.word	0x08007bf6
 80060a0:	08007cf4 	.word	0x08007cf4

080060a4 <_Bfree>:
 80060a4:	b570      	push	{r4, r5, r6, lr}
 80060a6:	6a46      	ldr	r6, [r0, #36]	; 0x24
 80060a8:	4605      	mov	r5, r0
 80060aa:	460c      	mov	r4, r1
 80060ac:	b976      	cbnz	r6, 80060cc <_Bfree+0x28>
 80060ae:	2010      	movs	r0, #16
 80060b0:	f7ff ff82 	bl	8005fb8 <malloc>
 80060b4:	4602      	mov	r2, r0
 80060b6:	6268      	str	r0, [r5, #36]	; 0x24
 80060b8:	b920      	cbnz	r0, 80060c4 <_Bfree+0x20>
 80060ba:	218a      	movs	r1, #138	; 0x8a
 80060bc:	4b08      	ldr	r3, [pc, #32]	; (80060e0 <_Bfree+0x3c>)
 80060be:	4809      	ldr	r0, [pc, #36]	; (80060e4 <_Bfree+0x40>)
 80060c0:	f000 feec 	bl	8006e9c <__assert_func>
 80060c4:	e9c0 6601 	strd	r6, r6, [r0, #4]
 80060c8:	6006      	str	r6, [r0, #0]
 80060ca:	60c6      	str	r6, [r0, #12]
 80060cc:	b13c      	cbz	r4, 80060de <_Bfree+0x3a>
 80060ce:	6a6b      	ldr	r3, [r5, #36]	; 0x24
 80060d0:	6862      	ldr	r2, [r4, #4]
 80060d2:	68db      	ldr	r3, [r3, #12]
 80060d4:	f853 1022 	ldr.w	r1, [r3, r2, lsl #2]
 80060d8:	6021      	str	r1, [r4, #0]
 80060da:	f843 4022 	str.w	r4, [r3, r2, lsl #2]
 80060de:	bd70      	pop	{r4, r5, r6, pc}
 80060e0:	08007bf6 	.word	0x08007bf6
 80060e4:	08007cf4 	.word	0x08007cf4

080060e8 <__multadd>:
 80060e8:	e92d 41f0 	stmdb	sp!, {r4, r5, r6, r7, r8, lr}
 80060ec:	4607      	mov	r7, r0
 80060ee:	460c      	mov	r4, r1
 80060f0:	461e      	mov	r6, r3
 80060f2:	2000      	movs	r0, #0
 80060f4:	690d      	ldr	r5, [r1, #16]
 80060f6:	f101 0c14 	add.w	ip, r1, #20
 80060fa:	f8dc 3000 	ldr.w	r3, [ip]
 80060fe:	3001      	adds	r0, #1
 8006100:	b299      	uxth	r1, r3
 8006102:	fb02 6101 	mla	r1, r2, r1, r6
 8006106:	0c1e      	lsrs	r6, r3, #16
 8006108:	0c0b      	lsrs	r3, r1, #16
 800610a:	fb02 3306 	mla	r3, r2, r6, r3
 800610e:	b289      	uxth	r1, r1
 8006110:	eb01 4103 	add.w	r1, r1, r3, lsl #16
 8006114:	4285      	cmp	r5, r0
 8006116:	ea4f 4613 	mov.w	r6, r3, lsr #16
 800611a:	f84c 1b04 	str.w	r1, [ip], #4
 800611e:	dcec      	bgt.n	80060fa <__multadd+0x12>
 8006120:	b30e      	cbz	r6, 8006166 <__multadd+0x7e>
 8006122:	68a3      	ldr	r3, [r4, #8]
 8006124:	42ab      	cmp	r3, r5
 8006126:	dc19      	bgt.n	800615c <__multadd+0x74>
 8006128:	6861      	ldr	r1, [r4, #4]
 800612a:	4638      	mov	r0, r7
 800612c:	3101      	adds	r1, #1
 800612e:	f7ff ff79 	bl	8006024 <_Balloc>
 8006132:	4680      	mov	r8, r0
 8006134:	b928      	cbnz	r0, 8006142 <__multadd+0x5a>
 8006136:	4602      	mov	r2, r0
 8006138:	21b5      	movs	r1, #181	; 0xb5
 800613a:	4b0c      	ldr	r3, [pc, #48]	; (800616c <__multadd+0x84>)
 800613c:	480c      	ldr	r0, [pc, #48]	; (8006170 <__multadd+0x88>)
 800613e:	f000 fead 	bl	8006e9c <__assert_func>
 8006142:	6922      	ldr	r2, [r4, #16]
 8006144:	f104 010c 	add.w	r1, r4, #12
 8006148:	3202      	adds	r2, #2
 800614a:	0092      	lsls	r2, r2, #2
 800614c:	300c      	adds	r0, #12
 800614e:	f7ff ff5b 	bl	8006008 <memcpy>
 8006152:	4621      	mov	r1, r4
 8006154:	4638      	mov	r0, r7
 8006156:	f7ff ffa5 	bl	80060a4 <_Bfree>
 800615a:	4644      	mov	r4, r8
 800615c:	eb04 0385 	add.w	r3, r4, r5, lsl #2
 8006160:	3501      	adds	r5, #1
 8006162:	615e      	str	r6, [r3, #20]
 8006164:	6125      	str	r5, [r4, #16]
 8006166:	4620      	mov	r0, r4
 8006168:	e8bd 81f0 	ldmia.w	sp!, {r4, r5, r6, r7, r8, pc}
 800616c:	08007c68 	.word	0x08007c68
 8006170:	08007cf4 	.word	0x08007cf4

08006174 <__s2b>:
 8006174:	e92d 43f8 	stmdb	sp!, {r3, r4, r5, r6, r7, r8, r9, lr}
 8006178:	4615      	mov	r5, r2
 800617a:	2209      	movs	r2, #9
 800617c:	461f      	mov	r7, r3
 800617e:	3308      	adds	r3, #8
 8006180:	460c      	mov	r4, r1
 8006182:	fb93 f3f2 	sdiv	r3, r3, r2
 8006186:	4606      	mov	r6, r0
 8006188:	2201      	movs	r2, #1
 800618a:	2100      	movs	r1, #0
 800618c:	429a      	cmp	r2, r3
 800618e:	db09      	blt.n	80061a4 <__s2b+0x30>
 8006190:	4630      	mov	r0, r6
 8006192:	f7ff ff47 	bl	8006024 <_Balloc>
 8006196:	b940      	cbnz	r0, 80061aa <__s2b+0x36>
 8006198:	4602      	mov	r2, r0
 800619a:	21ce      	movs	r1, #206	; 0xce
 800619c:	4b18      	ldr	r3, [pc, #96]	; (8006200 <__s2b+0x8c>)
 800619e:	4819      	ldr	r0, [pc, #100]	; (8006204 <__s2b+0x90>)
 80061a0:	f000 fe7c 	bl	8006e9c <__assert_func>
 80061a4:	0052      	lsls	r2, r2, #1
 80061a6:	3101      	adds	r1, #1
 80061a8:	e7f0      	b.n	800618c <__s2b+0x18>
 80061aa:	9b08      	ldr	r3, [sp, #32]
 80061ac:	2d09      	cmp	r5, #9
 80061ae:	6143      	str	r3, [r0, #20]
 80061b0:	f04f 0301 	mov.w	r3, #1
 80061b4:	6103      	str	r3, [r0, #16]
 80061b6:	dd16      	ble.n	80061e6 <__s2b+0x72>
 80061b8:	f104 0909 	add.w	r9, r4, #9
 80061bc:	46c8      	mov	r8, r9
 80061be:	442c      	add	r4, r5
 80061c0:	f818 3b01 	ldrb.w	r3, [r8], #1
 80061c4:	4601      	mov	r1, r0
 80061c6:	220a      	movs	r2, #10
 80061c8:	4630      	mov	r0, r6
 80061ca:	3b30      	subs	r3, #48	; 0x30
 80061cc:	f7ff ff8c 	bl	80060e8 <__multadd>
 80061d0:	45a0      	cmp	r8, r4
 80061d2:	d1f5      	bne.n	80061c0 <__s2b+0x4c>
 80061d4:	f1a5 0408 	sub.w	r4, r5, #8
 80061d8:	444c      	add	r4, r9
 80061da:	1b2d      	subs	r5, r5, r4
 80061dc:	1963      	adds	r3, r4, r5
 80061de:	42bb      	cmp	r3, r7
 80061e0:	db04      	blt.n	80061ec <__s2b+0x78>
 80061e2:	e8bd 83f8 	ldmia.w	sp!, {r3, r4, r5, r6, r7, r8, r9, pc}
 80061e6:	2509      	movs	r5, #9
 80061e8:	340a      	adds	r4, #10
 80061ea:	e7f6      	b.n	80061da <__s2b+0x66>
 80061ec:	f814 3b01 	ldrb.w	r3, [r4], #1
 80061f0:	4601      	mov	r1, r0
 80061f2:	220a      	movs	r2, #10
 80061f4:	4630      	mov	r0, r6
 80061f6:	3b30      	subs	r3, #48	; 0x30
 80061f8:	f7ff ff76 	bl	80060e8 <__multadd>
 80061fc:	e7ee      	b.n	80061dc <__s2b+0x68>
 80061fe:	bf00      	nop
 8006200:	08007c68 	.word	0x08007c68
 8006204:	08007cf4 	.word	0x08007cf4

08006208 <__hi0bits>:
 8006208:	0c02      	lsrs	r2, r0, #16
 800620a:	0412      	lsls	r2, r2, #16
 800620c:	4603      	mov	r3, r0
 800620e:	b9ca      	cbnz	r2, 8006244 <__hi0bits+0x3c>
 8006210:	0403      	lsls	r3, r0, #16
 8006212:	2010      	movs	r0, #16
 8006214:	f013 4f7f 	tst.w	r3, #4278190080	; 0xff000000
 8006218:	bf04      	itt	eq
 800621a:	021b      	lsleq	r3, r3, #8
 800621c:	3008      	addeq	r0, #8
 800621e:	f013 4f70 	tst.w	r3, #4026531840	; 0xf0000000
 8006222:	bf04      	itt	eq
 8006224:	011b      	lsleq	r3, r3, #4
 8006226:	3004      	addeq	r0, #4
 8006228:	f013 4f40 	tst.w	r3, #3221225472	; 0xc0000000
 800622c:	bf04      	itt	eq
 800622e:	009b      	lsleq	r3, r3, #2
 8006230:	3002      	addeq	r0, #2
 8006232:	2b00      	cmp	r3, #0
 8006234:	db05      	blt.n	8006242 <__hi0bits+0x3a>
 8006236:	f013 4f80 	tst.w	r3, #1073741824	; 0x40000000
 800623a:	f100 0001 	add.w	r0, r0, #1
 800623e:	bf08      	it	eq
 8006240:	2020      	moveq	r0, #32
 8006242:	4770      	bx	lr
 8006244:	2000      	movs	r0, #0
 8006246:	e7e5      	b.n	8006214 <__hi0bits+0xc>

08006248 <__lo0bits>:
 8006248:	6803      	ldr	r3, [r0, #0]
 800624a:	4602      	mov	r2, r0
 800624c:	f013 0007 	ands.w	r0, r3, #7
 8006250:	d00b      	beq.n	800626a <__lo0bits+0x22>
 8006252:	07d9      	lsls	r1, r3, #31
 8006254:	d421      	bmi.n	800629a <__lo0bits+0x52>
 8006256:	0798      	lsls	r0, r3, #30
 8006258:	bf49      	itett	mi
 800625a:	085b      	lsrmi	r3, r3, #1
 800625c:	089b      	lsrpl	r3, r3, #2
 800625e:	2001      	movmi	r0, #1
 8006260:	6013      	strmi	r3, [r2, #0]
 8006262:	bf5c      	itt	pl
 8006264:	2002      	movpl	r0, #2
 8006266:	6013      	strpl	r3, [r2, #0]
 8006268:	4770      	bx	lr
 800626a:	b299      	uxth	r1, r3
 800626c:	b909      	cbnz	r1, 8006272 <__lo0bits+0x2a>
 800626e:	2010      	movs	r0, #16
 8006270:	0c1b      	lsrs	r3, r3, #16
 8006272:	b2d9      	uxtb	r1, r3
 8006274:	b909      	cbnz	r1, 800627a <__lo0bits+0x32>
 8006276:	3008      	adds	r0, #8
 8006278:	0a1b      	lsrs	r3, r3, #8
 800627a:	0719      	lsls	r1, r3, #28
 800627c:	bf04      	itt	eq
 800627e:	091b      	lsreq	r3, r3, #4
 8006280:	3004      	addeq	r0, #4
 8006282:	0799      	lsls	r1, r3, #30
 8006284:	bf04      	itt	eq
 8006286:	089b      	lsreq	r3, r3, #2
 8006288:	3002      	addeq	r0, #2
 800628a:	07d9      	lsls	r1, r3, #31
 800628c:	d403      	bmi.n	8006296 <__lo0bits+0x4e>
 800628e:	085b      	lsrs	r3, r3, #1
 8006290:	f100 0001 	add.w	r0, r0, #1
 8006294:	d003      	beq.n	800629e <__lo0bits+0x56>
 8006296:	6013      	str	r3, [r2, #0]
 8006298:	4770      	bx	lr
 800629a:	2000      	movs	r0, #0
 800629c:	4770      	bx	lr
 800629e:	2020      	movs	r0, #32
 80062a0:	4770      	bx	lr
	...

080062a4 <__i2b>:
 80062a4:	b510      	push	{r4, lr}
 80062a6:	460c      	mov	r4, r1
 80062a8:	2101      	movs	r1, #1
 80062aa:	f7ff febb 	bl	8006024 <_Balloc>
 80062ae:	4602      	mov	r2, r0
 80062b0:	b928      	cbnz	r0, 80062be <__i2b+0x1a>
 80062b2:	f44f 71a0 	mov.w	r1, #320	; 0x140
 80062b6:	4b04      	ldr	r3, [pc, #16]	; (80062c8 <__i2b+0x24>)
 80062b8:	4804      	ldr	r0, [pc, #16]	; (80062cc <__i2b+0x28>)
 80062ba:	f000 fdef 	bl	8006e9c <__assert_func>
 80062be:	2301      	movs	r3, #1
 80062c0:	6144      	str	r4, [r0, #20]
 80062c2:	6103      	str	r3, [r0, #16]
 80062c4:	bd10      	pop	{r4, pc}
 80062c6:	bf00      	nop
 80062c8:	08007c68 	.word	0x08007c68
 80062cc:	08007cf4 	.word	0x08007cf4

080062d0 <__multiply>:
 80062d0:	e92d 4ff0 	stmdb	sp!, {r4, r5, r6, r7, r8, r9, sl, fp, lr}
 80062d4:	4691      	mov	r9, r2
 80062d6:	690a      	ldr	r2, [r1, #16]
 80062d8:	f8d9 3010 	ldr.w	r3, [r9, #16]
 80062dc:	460c      	mov	r4, r1
 80062de:	429a      	cmp	r2, r3
 80062e0:	bfbe      	ittt	lt
 80062e2:	460b      	movlt	r3, r1
 80062e4:	464c      	movlt	r4, r9
 80062e6:	4699      	movlt	r9, r3
 80062e8:	6927      	ldr	r7, [r4, #16]
 80062ea:	f8d9 a010 	ldr.w	sl, [r9, #16]
 80062ee:	68a3      	ldr	r3, [r4, #8]
 80062f0:	6861      	ldr	r1, [r4, #4]
 80062f2:	eb07 060a 	add.w	r6, r7, sl
 80062f6:	42b3      	cmp	r3, r6
 80062f8:	b085      	sub	sp, #20
 80062fa:	bfb8      	it	lt
 80062fc:	3101      	addlt	r1, #1
 80062fe:	f7ff fe91 	bl	8006024 <_Balloc>
 8006302:	b930      	cbnz	r0, 8006312 <__multiply+0x42>
 8006304:	4602      	mov	r2, r0
 8006306:	f240 115d 	movw	r1, #349	; 0x15d
 800630a:	4b43      	ldr	r3, [pc, #268]	; (8006418 <__multiply+0x148>)
 800630c:	4843      	ldr	r0, [pc, #268]	; (800641c <__multiply+0x14c>)
 800630e:	f000 fdc5 	bl	8006e9c <__assert_func>
 8006312:	f100 0514 	add.w	r5, r0, #20
 8006316:	462b      	mov	r3, r5
 8006318:	2200      	movs	r2, #0
 800631a:	eb05 0886 	add.w	r8, r5, r6, lsl #2
 800631e:	4543      	cmp	r3, r8
 8006320:	d321      	bcc.n	8006366 <__multiply+0x96>
 8006322:	f104 0314 	add.w	r3, r4, #20
 8006326:	eb03 0787 	add.w	r7, r3, r7, lsl #2
 800632a:	f109 0314 	add.w	r3, r9, #20
 800632e:	eb03 028a 	add.w	r2, r3, sl, lsl #2
 8006332:	9202      	str	r2, [sp, #8]
 8006334:	1b3a      	subs	r2, r7, r4
 8006336:	3a15      	subs	r2, #21
 8006338:	f022 0203 	bic.w	r2, r2, #3
 800633c:	3204      	adds	r2, #4
 800633e:	f104 0115 	add.w	r1, r4, #21
 8006342:	428f      	cmp	r7, r1
 8006344:	bf38      	it	cc
 8006346:	2204      	movcc	r2, #4
 8006348:	9201      	str	r2, [sp, #4]
 800634a:	9a02      	ldr	r2, [sp, #8]
 800634c:	9303      	str	r3, [sp, #12]
 800634e:	429a      	cmp	r2, r3
 8006350:	d80c      	bhi.n	800636c <__multiply+0x9c>
 8006352:	2e00      	cmp	r6, #0
 8006354:	dd03      	ble.n	800635e <__multiply+0x8e>
 8006356:	f858 3d04 	ldr.w	r3, [r8, #-4]!
 800635a:	2b00      	cmp	r3, #0
 800635c:	d059      	beq.n	8006412 <__multiply+0x142>
 800635e:	6106      	str	r6, [r0, #16]
 8006360:	b005      	add	sp, #20
 8006362:	e8bd 8ff0 	ldmia.w	sp!, {r4, r5, r6, r7, r8, r9, sl, fp, pc}
 8006366:	f843 2b04 	str.w	r2, [r3], #4
 800636a:	e7d8      	b.n	800631e <__multiply+0x4e>
 800636c:	f8b3 a000 	ldrh.w	sl, [r3]
 8006370:	f1ba 0f00 	cmp.w	sl, #0
 8006374:	d023      	beq.n	80063be <__multiply+0xee>
 8006376:	46a9      	mov	r9, r5
 8006378:	f04f 0c00 	mov.w	ip, #0
 800637c:	f104 0e14 	add.w	lr, r4, #20
 8006380:	f85e 2b04 	ldr.w	r2, [lr], #4
 8006384:	f8d9 1000 	ldr.w	r1, [r9]
 8006388:	fa1f fb82 	uxth.w	fp, r2
 800638c:	b289      	uxth	r1, r1
 800638e:	fb0a 110b 	mla	r1, sl, fp, r1
 8006392:	4461      	add	r1, ip
 8006394:	f8d9 c000 	ldr.w	ip, [r9]
 8006398:	0c12      	lsrs	r2, r2, #16
 800639a:	ea4f 4c1c 	mov.w	ip, ip, lsr #16
 800639e:	fb0a c202 	mla	r2, sl, r2, ip
 80063a2:	eb02 4211 	add.w	r2, r2, r1, lsr #16
 80063a6:	b289      	uxth	r1, r1
 80063a8:	ea41 4102 	orr.w	r1, r1, r2, lsl #16
 80063ac:	4577      	cmp	r7, lr
 80063ae:	ea4f 4c12 	mov.w	ip, r2, lsr #16
 80063b2:	f849 1b04 	str.w	r1, [r9], #4
 80063b6:	d8e3      	bhi.n	8006380 <__multiply+0xb0>
 80063b8:	9a01      	ldr	r2, [sp, #4]
 80063ba:	f845 c002 	str.w	ip, [r5, r2]
 80063be:	9a03      	ldr	r2, [sp, #12]
 80063c0:	3304      	adds	r3, #4
 80063c2:	f8b2 9002 	ldrh.w	r9, [r2, #2]
 80063c6:	f1b9 0f00 	cmp.w	r9, #0
 80063ca:	d020      	beq.n	800640e <__multiply+0x13e>
 80063cc:	46ae      	mov	lr, r5
 80063ce:	f04f 0a00 	mov.w	sl, #0
 80063d2:	6829      	ldr	r1, [r5, #0]
 80063d4:	f104 0c14 	add.w	ip, r4, #20
 80063d8:	f8bc b000 	ldrh.w	fp, [ip]
 80063dc:	f8be 2002 	ldrh.w	r2, [lr, #2]
 80063e0:	b289      	uxth	r1, r1
 80063e2:	fb09 220b 	mla	r2, r9, fp, r2
 80063e6:	4492      	add	sl, r2
 80063e8:	ea41 410a 	orr.w	r1, r1, sl, lsl #16
 80063ec:	f84e 1b04 	str.w	r1, [lr], #4
 80063f0:	f85c 2b04 	ldr.w	r2, [ip], #4
 80063f4:	f8be 1000 	ldrh.w	r1, [lr]
 80063f8:	0c12      	lsrs	r2, r2, #16
 80063fa:	fb09 1102 	mla	r1, r9, r2, r1
 80063fe:	4567      	cmp	r7, ip
 8006400:	eb01 411a 	add.w	r1, r1, sl, lsr #16
 8006404:	ea4f 4a11 	mov.w	sl, r1, lsr #16
 8006408:	d8e6      	bhi.n	80063d8 <__multiply+0x108>
 800640a:	9a01      	ldr	r2, [sp, #4]
 800640c:	50a9      	str	r1, [r5, r2]
 800640e:	3504      	adds	r5, #4
 8006410:	e79b      	b.n	800634a <__multiply+0x7a>
 8006412:	3e01      	subs	r6, #1
 8006414:	e79d      	b.n	8006352 <__multiply+0x82>
 8006416:	bf00      	nop
 8006418:	08007c68 	.word	0x08007c68
 800641c:	08007cf4 	.word	0x08007cf4

08006420 <__pow5mult>:
 8006420:	e92d 43f8 	stmdb	sp!, {r3, r4, r5, r6, r7, r8, r9, lr}
 8006424:	4615      	mov	r5, r2
 8006426:	f012 0203 	ands.w	r2, r2, #3
 800642a:	4606      	mov	r6, r0
 800642c:	460f      	mov	r7, r1
 800642e:	d007      	beq.n	8006440 <__pow5mult+0x20>
 8006430:	4c25      	ldr	r4, [pc, #148]	; (80064c8 <__pow5mult+0xa8>)
 8006432:	3a01      	subs	r2, #1
 8006434:	2300      	movs	r3, #0
 8006436:	f854 2022 	ldr.w	r2, [r4, r2, lsl #2]
 800643a:	f7ff fe55 	bl	80060e8 <__multadd>
 800643e:	4607      	mov	r7, r0
 8006440:	10ad      	asrs	r5, r5, #2
 8006442:	d03d      	beq.n	80064c0 <__pow5mult+0xa0>
 8006444:	6a74      	ldr	r4, [r6, #36]	; 0x24
 8006446:	b97c      	cbnz	r4, 8006468 <__pow5mult+0x48>
 8006448:	2010      	movs	r0, #16
 800644a:	f7ff fdb5 	bl	8005fb8 <malloc>
 800644e:	4602      	mov	r2, r0
 8006450:	6270      	str	r0, [r6, #36]	; 0x24
 8006452:	b928      	cbnz	r0, 8006460 <__pow5mult+0x40>
 8006454:	f44f 71d7 	mov.w	r1, #430	; 0x1ae
 8006458:	4b1c      	ldr	r3, [pc, #112]	; (80064cc <__pow5mult+0xac>)
 800645a:	481d      	ldr	r0, [pc, #116]	; (80064d0 <__pow5mult+0xb0>)
 800645c:	f000 fd1e 	bl	8006e9c <__assert_func>
 8006460:	e9c0 4401 	strd	r4, r4, [r0, #4]
 8006464:	6004      	str	r4, [r0, #0]
 8006466:	60c4      	str	r4, [r0, #12]
 8006468:	f8d6 8024 	ldr.w	r8, [r6, #36]	; 0x24
 800646c:	f8d8 4008 	ldr.w	r4, [r8, #8]
 8006470:	b94c      	cbnz	r4, 8006486 <__pow5mult+0x66>
 8006472:	f240 2171 	movw	r1, #625	; 0x271
 8006476:	4630      	mov	r0, r6
 8006478:	f7ff ff14 	bl	80062a4 <__i2b>
 800647c:	2300      	movs	r3, #0
 800647e:	4604      	mov	r4, r0
 8006480:	f8c8 0008 	str.w	r0, [r8, #8]
 8006484:	6003      	str	r3, [r0, #0]
 8006486:	f04f 0900 	mov.w	r9, #0
 800648a:	07eb      	lsls	r3, r5, #31
 800648c:	d50a      	bpl.n	80064a4 <__pow5mult+0x84>
 800648e:	4639      	mov	r1, r7
 8006490:	4622      	mov	r2, r4
 8006492:	4630      	mov	r0, r6
 8006494:	f7ff ff1c 	bl	80062d0 <__multiply>
 8006498:	4680      	mov	r8, r0
 800649a:	4639      	mov	r1, r7
 800649c:	4630      	mov	r0, r6
 800649e:	f7ff fe01 	bl	80060a4 <_Bfree>
 80064a2:	4647      	mov	r7, r8
 80064a4:	106d      	asrs	r5, r5, #1
 80064a6:	d00b      	beq.n	80064c0 <__pow5mult+0xa0>
 80064a8:	6820      	ldr	r0, [r4, #0]
 80064aa:	b938      	cbnz	r0, 80064bc <__pow5mult+0x9c>
 80064ac:	4622      	mov	r2, r4
 80064ae:	4621      	mov	r1, r4
 80064b0:	4630      	mov	r0, r6
 80064b2:	f7ff ff0d 	bl	80062d0 <__multiply>
 80064b6:	6020      	str	r0, [r4, #0]
 80064b8:	f8c0 9000 	str.w	r9, [r0]
 80064bc:	4604      	mov	r4, r0
 80064be:	e7e4      	b.n	800648a <__pow5mult+0x6a>
 80064c0:	4638      	mov	r0, r7
 80064c2:	e8bd 83f8 	ldmia.w	sp!, {r3, r4, r5, r6, r7, r8, r9, pc}
 80064c6:	bf00      	nop
 80064c8:	08007e40 	.word	0x08007e40
 80064cc:	08007bf6 	.word	0x08007bf6
 80064d0:	08007cf4 	.word	0x08007cf4

080064d4 <__lshift>:
 80064d4:	e92d 47f0 	stmdb	sp!, {r4, r5, r6, r7, r8, r9, sl, lr}
 80064d8:	460c      	mov	r4, r1
 80064da:	4607      	mov	r7, r0
 80064dc:	4691      	mov	r9, r2
 80064de:	6923      	ldr	r3, [r4, #16]
 80064e0:	6849      	ldr	r1, [r1, #4]
 80064e2:	eb03 1862 	add.w	r8, r3, r2, asr #5
 80064e6:	68a3      	ldr	r3, [r4, #8]
 80064e8:	ea4f 1a62 	mov.w	sl, r2, asr #5
 80064ec:	f108 0601 	add.w	r6, r8, #1
 80064f0:	42b3      	cmp	r3, r6
 80064f2:	db0b      	blt.n	800650c <__lshift+0x38>
 80064f4:	4638      	mov	r0, r7
 80064f6:	f7ff fd95 	bl	8006024 <_Balloc>
 80064fa:	4605      	mov	r5, r0
 80064fc:	b948      	cbnz	r0, 8006512 <__lshift+0x3e>
 80064fe:	4602      	mov	r2, r0
 8006500:	f240 11d9 	movw	r1, #473	; 0x1d9
 8006504:	4b29      	ldr	r3, [pc, #164]	; (80065ac <__lshift+0xd8>)
 8006506:	482a      	ldr	r0, [pc, #168]	; (80065b0 <__lshift+0xdc>)
 8006508:	f000 fcc8 	bl	8006e9c <__assert_func>
 800650c:	3101      	adds	r1, #1
 800650e:	005b      	lsls	r3, r3, #1
 8006510:	e7ee      	b.n	80064f0 <__lshift+0x1c>
 8006512:	2300      	movs	r3, #0
 8006514:	f100 0114 	add.w	r1, r0, #20
 8006518:	f100 0210 	add.w	r2, r0, #16
 800651c:	4618      	mov	r0, r3
 800651e:	4553      	cmp	r3, sl
 8006520:	db37      	blt.n	8006592 <__lshift+0xbe>
 8006522:	6920      	ldr	r0, [r4, #16]
 8006524:	ea2a 7aea 	bic.w	sl, sl, sl, asr #31
 8006528:	f104 0314 	add.w	r3, r4, #20
 800652c:	f019 091f 	ands.w	r9, r9, #31
 8006530:	eb01 018a 	add.w	r1, r1, sl, lsl #2
 8006534:	eb03 0080 	add.w	r0, r3, r0, lsl #2
 8006538:	d02f      	beq.n	800659a <__lshift+0xc6>
 800653a:	468a      	mov	sl, r1
 800653c:	f04f 0c00 	mov.w	ip, #0
 8006540:	f1c9 0e20 	rsb	lr, r9, #32
 8006544:	681a      	ldr	r2, [r3, #0]
 8006546:	fa02 f209 	lsl.w	r2, r2, r9
 800654a:	ea42 020c 	orr.w	r2, r2, ip
 800654e:	f84a 2b04 	str.w	r2, [sl], #4
 8006552:	f853 2b04 	ldr.w	r2, [r3], #4
 8006556:	4298      	cmp	r0, r3
 8006558:	fa22 fc0e 	lsr.w	ip, r2, lr
 800655c:	d8f2      	bhi.n	8006544 <__lshift+0x70>
 800655e:	1b03      	subs	r3, r0, r4
 8006560:	3b15      	subs	r3, #21
 8006562:	f023 0303 	bic.w	r3, r3, #3
 8006566:	3304      	adds	r3, #4
 8006568:	f104 0215 	add.w	r2, r4, #21
 800656c:	4290      	cmp	r0, r2
 800656e:	bf38      	it	cc
 8006570:	2304      	movcc	r3, #4
 8006572:	f841 c003 	str.w	ip, [r1, r3]
 8006576:	f1bc 0f00 	cmp.w	ip, #0
 800657a:	d001      	beq.n	8006580 <__lshift+0xac>
 800657c:	f108 0602 	add.w	r6, r8, #2
 8006580:	3e01      	subs	r6, #1
 8006582:	4638      	mov	r0, r7
 8006584:	4621      	mov	r1, r4
 8006586:	612e      	str	r6, [r5, #16]
 8006588:	f7ff fd8c 	bl	80060a4 <_Bfree>
 800658c:	4628      	mov	r0, r5
 800658e:	e8bd 87f0 	ldmia.w	sp!, {r4, r5, r6, r7, r8, r9, sl, pc}
 8006592:	f842 0f04 	str.w	r0, [r2, #4]!
 8006596:	3301      	adds	r3, #1
 8006598:	e7c1      	b.n	800651e <__lshift+0x4a>
 800659a:	3904      	subs	r1, #4
 800659c:	f853 2b04 	ldr.w	r2, [r3], #4
 80065a0:	4298      	cmp	r0, r3
 80065a2:	f841 2f04 	str.w	r2, [r1, #4]!
 80065a6:	d8f9      	bhi.n	800659c <__lshift+0xc8>
 80065a8:	e7ea      	b.n	8006580 <__lshift+0xac>
 80065aa:	bf00      	nop
 80065ac:	08007c68 	.word	0x08007c68
 80065b0:	08007cf4 	.word	0x08007cf4

080065b4 <__mcmp>:
 80065b4:	4603      	mov	r3, r0
 80065b6:	690a      	ldr	r2, [r1, #16]
 80065b8:	6900      	ldr	r0, [r0, #16]
 80065ba:	b530      	push	{r4, r5, lr}
 80065bc:	1a80      	subs	r0, r0, r2
 80065be:	d10d      	bne.n	80065dc <__mcmp+0x28>
 80065c0:	3314      	adds	r3, #20
 80065c2:	3114      	adds	r1, #20
 80065c4:	eb03 0482 	add.w	r4, r3, r2, lsl #2
 80065c8:	eb01 0182 	add.w	r1, r1, r2, lsl #2
 80065cc:	f854 5d04 	ldr.w	r5, [r4, #-4]!
 80065d0:	f851 2d04 	ldr.w	r2, [r1, #-4]!
 80065d4:	4295      	cmp	r5, r2
 80065d6:	d002      	beq.n	80065de <__mcmp+0x2a>
 80065d8:	d304      	bcc.n	80065e4 <__mcmp+0x30>
 80065da:	2001      	movs	r0, #1
 80065dc:	bd30      	pop	{r4, r5, pc}
 80065de:	42a3      	cmp	r3, r4
 80065e0:	d3f4      	bcc.n	80065cc <__mcmp+0x18>
 80065e2:	e7fb      	b.n	80065dc <__mcmp+0x28>
 80065e4:	f04f 30ff 	mov.w	r0, #4294967295
 80065e8:	e7f8      	b.n	80065dc <__mcmp+0x28>
	...

080065ec <__mdiff>:
 80065ec:	e92d 4ff8 	stmdb	sp!, {r3, r4, r5, r6, r7, r8, r9, sl, fp, lr}
 80065f0:	460d      	mov	r5, r1
 80065f2:	4607      	mov	r7, r0
 80065f4:	4611      	mov	r1, r2
 80065f6:	4628      	mov	r0, r5
 80065f8:	4614      	mov	r4, r2
 80065fa:	f7ff ffdb 	bl	80065b4 <__mcmp>
 80065fe:	1e06      	subs	r6, r0, #0
 8006600:	d111      	bne.n	8006626 <__mdiff+0x3a>
 8006602:	4631      	mov	r1, r6
 8006604:	4638      	mov	r0, r7
 8006606:	f7ff fd0d 	bl	8006024 <_Balloc>
 800660a:	4602      	mov	r2, r0
 800660c:	b928      	cbnz	r0, 800661a <__mdiff+0x2e>
 800660e:	f240 2132 	movw	r1, #562	; 0x232
 8006612:	4b3a      	ldr	r3, [pc, #232]	; (80066fc <__mdiff+0x110>)
 8006614:	483a      	ldr	r0, [pc, #232]	; (8006700 <__mdiff+0x114>)
 8006616:	f000 fc41 	bl	8006e9c <__assert_func>
 800661a:	2301      	movs	r3, #1
 800661c:	e9c0 3604 	strd	r3, r6, [r0, #16]
 8006620:	4610      	mov	r0, r2
 8006622:	e8bd 8ff8 	ldmia.w	sp!, {r3, r4, r5, r6, r7, r8, r9, sl, fp, pc}
 8006626:	bfa4      	itt	ge
 8006628:	4623      	movge	r3, r4
 800662a:	462c      	movge	r4, r5
 800662c:	4638      	mov	r0, r7
 800662e:	6861      	ldr	r1, [r4, #4]
 8006630:	bfa6      	itte	ge
 8006632:	461d      	movge	r5, r3
 8006634:	2600      	movge	r6, #0
 8006636:	2601      	movlt	r6, #1
 8006638:	f7ff fcf4 	bl	8006024 <_Balloc>
 800663c:	4602      	mov	r2, r0
 800663e:	b918      	cbnz	r0, 8006648 <__mdiff+0x5c>
 8006640:	f44f 7110 	mov.w	r1, #576	; 0x240
 8006644:	4b2d      	ldr	r3, [pc, #180]	; (80066fc <__mdiff+0x110>)
 8006646:	e7e5      	b.n	8006614 <__mdiff+0x28>
 8006648:	f102 0814 	add.w	r8, r2, #20
 800664c:	46c2      	mov	sl, r8
 800664e:	f04f 0c00 	mov.w	ip, #0
 8006652:	6927      	ldr	r7, [r4, #16]
 8006654:	60c6      	str	r6, [r0, #12]
 8006656:	692e      	ldr	r6, [r5, #16]
 8006658:	f104 0014 	add.w	r0, r4, #20
 800665c:	f105 0914 	add.w	r9, r5, #20
 8006660:	eb00 0e87 	add.w	lr, r0, r7, lsl #2
 8006664:	eb09 0686 	add.w	r6, r9, r6, lsl #2
 8006668:	3410      	adds	r4, #16
 800666a:	f854 bf04 	ldr.w	fp, [r4, #4]!
 800666e:	f859 3b04 	ldr.w	r3, [r9], #4
 8006672:	fa1f f18b 	uxth.w	r1, fp
 8006676:	448c      	add	ip, r1
 8006678:	b299      	uxth	r1, r3
 800667a:	0c1b      	lsrs	r3, r3, #16
 800667c:	ebac 0101 	sub.w	r1, ip, r1
 8006680:	ebc3 431b 	rsb	r3, r3, fp, lsr #16
 8006684:	eb03 4321 	add.w	r3, r3, r1, asr #16
 8006688:	b289      	uxth	r1, r1
 800668a:	ea4f 4c23 	mov.w	ip, r3, asr #16
 800668e:	454e      	cmp	r6, r9
 8006690:	ea41 4303 	orr.w	r3, r1, r3, lsl #16
 8006694:	f84a 3b04 	str.w	r3, [sl], #4
 8006698:	d8e7      	bhi.n	800666a <__mdiff+0x7e>
 800669a:	1b73      	subs	r3, r6, r5
 800669c:	3b15      	subs	r3, #21
 800669e:	f023 0303 	bic.w	r3, r3, #3
 80066a2:	3515      	adds	r5, #21
 80066a4:	3304      	adds	r3, #4
 80066a6:	42ae      	cmp	r6, r5
 80066a8:	bf38      	it	cc
 80066aa:	2304      	movcc	r3, #4
 80066ac:	4418      	add	r0, r3
 80066ae:	4443      	add	r3, r8
 80066b0:	461e      	mov	r6, r3
 80066b2:	4605      	mov	r5, r0
 80066b4:	4575      	cmp	r5, lr
 80066b6:	d30e      	bcc.n	80066d6 <__mdiff+0xea>
 80066b8:	f10e 0103 	add.w	r1, lr, #3
 80066bc:	1a09      	subs	r1, r1, r0
 80066be:	f021 0103 	bic.w	r1, r1, #3
 80066c2:	3803      	subs	r0, #3
 80066c4:	4586      	cmp	lr, r0
 80066c6:	bf38      	it	cc
 80066c8:	2100      	movcc	r1, #0
 80066ca:	4419      	add	r1, r3
 80066cc:	f851 3d04 	ldr.w	r3, [r1, #-4]!
 80066d0:	b18b      	cbz	r3, 80066f6 <__mdiff+0x10a>
 80066d2:	6117      	str	r7, [r2, #16]
 80066d4:	e7a4      	b.n	8006620 <__mdiff+0x34>
 80066d6:	f855 8b04 	ldr.w	r8, [r5], #4
 80066da:	fa1f f188 	uxth.w	r1, r8
 80066de:	4461      	add	r1, ip
 80066e0:	140c      	asrs	r4, r1, #16
 80066e2:	eb04 4418 	add.w	r4, r4, r8, lsr #16
 80066e6:	b289      	uxth	r1, r1
 80066e8:	ea41 4104 	orr.w	r1, r1, r4, lsl #16
 80066ec:	ea4f 4c24 	mov.w	ip, r4, asr #16
 80066f0:	f846 1b04 	str.w	r1, [r6], #4
 80066f4:	e7de      	b.n	80066b4 <__mdiff+0xc8>
 80066f6:	3f01      	subs	r7, #1
 80066f8:	e7e8      	b.n	80066cc <__mdiff+0xe0>
 80066fa:	bf00      	nop
 80066fc:	08007c68 	.word	0x08007c68
 8006700:	08007cf4 	.word	0x08007cf4

08006704 <__ulp>:
 8006704:	4b11      	ldr	r3, [pc, #68]	; (800674c <__ulp+0x48>)
 8006706:	400b      	ands	r3, r1
 8006708:	f1a3 7350 	sub.w	r3, r3, #54525952	; 0x3400000
 800670c:	2b00      	cmp	r3, #0
 800670e:	dd02      	ble.n	8006716 <__ulp+0x12>
 8006710:	2000      	movs	r0, #0
 8006712:	4619      	mov	r1, r3
 8006714:	4770      	bx	lr
 8006716:	425b      	negs	r3, r3
 8006718:	f1b3 7fa0 	cmp.w	r3, #20971520	; 0x1400000
 800671c:	f04f 0000 	mov.w	r0, #0
 8006720:	f04f 0100 	mov.w	r1, #0
 8006724:	ea4f 5223 	mov.w	r2, r3, asr #20
 8006728:	da04      	bge.n	8006734 <__ulp+0x30>
 800672a:	f44f 2300 	mov.w	r3, #524288	; 0x80000
 800672e:	fa43 f102 	asr.w	r1, r3, r2
 8006732:	4770      	bx	lr
 8006734:	f1a2 0314 	sub.w	r3, r2, #20
 8006738:	2b1e      	cmp	r3, #30
 800673a:	bfd6      	itet	le
 800673c:	f04f 4200 	movle.w	r2, #2147483648	; 0x80000000
 8006740:	2301      	movgt	r3, #1
 8006742:	fa22 f303 	lsrle.w	r3, r2, r3
 8006746:	4618      	mov	r0, r3
 8006748:	4770      	bx	lr
 800674a:	bf00      	nop
 800674c:	7ff00000 	.word	0x7ff00000

08006750 <__b2d>:
 8006750:	e92d 43f8 	stmdb	sp!, {r3, r4, r5, r6, r7, r8, r9, lr}
 8006754:	6907      	ldr	r7, [r0, #16]
 8006756:	f100 0914 	add.w	r9, r0, #20
 800675a:	eb09 0787 	add.w	r7, r9, r7, lsl #2
 800675e:	f857 6c04 	ldr.w	r6, [r7, #-4]
 8006762:	f1a7 0804 	sub.w	r8, r7, #4
 8006766:	4630      	mov	r0, r6
 8006768:	f7ff fd4e 	bl	8006208 <__hi0bits>
 800676c:	f1c0 0320 	rsb	r3, r0, #32
 8006770:	280a      	cmp	r0, #10
 8006772:	600b      	str	r3, [r1, #0]
 8006774:	491f      	ldr	r1, [pc, #124]	; (80067f4 <__b2d+0xa4>)
 8006776:	dc17      	bgt.n	80067a8 <__b2d+0x58>
 8006778:	45c1      	cmp	r9, r8
 800677a:	bf28      	it	cs
 800677c:	2200      	movcs	r2, #0
 800677e:	f1c0 0c0b 	rsb	ip, r0, #11
 8006782:	fa26 f30c 	lsr.w	r3, r6, ip
 8006786:	bf38      	it	cc
 8006788:	f857 2c08 	ldrcc.w	r2, [r7, #-8]
 800678c:	ea43 0501 	orr.w	r5, r3, r1
 8006790:	f100 0315 	add.w	r3, r0, #21
 8006794:	fa06 f303 	lsl.w	r3, r6, r3
 8006798:	fa22 f20c 	lsr.w	r2, r2, ip
 800679c:	ea43 0402 	orr.w	r4, r3, r2
 80067a0:	4620      	mov	r0, r4
 80067a2:	4629      	mov	r1, r5
 80067a4:	e8bd 83f8 	ldmia.w	sp!, {r3, r4, r5, r6, r7, r8, r9, pc}
 80067a8:	45c1      	cmp	r9, r8
 80067aa:	bf2e      	itee	cs
 80067ac:	2200      	movcs	r2, #0
 80067ae:	f857 2c08 	ldrcc.w	r2, [r7, #-8]
 80067b2:	f1a7 0808 	subcc.w	r8, r7, #8
 80067b6:	f1b0 030b 	subs.w	r3, r0, #11
 80067ba:	d016      	beq.n	80067ea <__b2d+0x9a>
 80067bc:	f1c3 0720 	rsb	r7, r3, #32
 80067c0:	fa22 f107 	lsr.w	r1, r2, r7
 80067c4:	45c8      	cmp	r8, r9
 80067c6:	fa06 f603 	lsl.w	r6, r6, r3
 80067ca:	ea46 0601 	orr.w	r6, r6, r1
 80067ce:	bf94      	ite	ls
 80067d0:	2100      	movls	r1, #0
 80067d2:	f858 1c04 	ldrhi.w	r1, [r8, #-4]
 80067d6:	f046 557f 	orr.w	r5, r6, #1069547520	; 0x3fc00000
 80067da:	fa02 f003 	lsl.w	r0, r2, r3
 80067de:	40f9      	lsrs	r1, r7
 80067e0:	f445 1540 	orr.w	r5, r5, #3145728	; 0x300000
 80067e4:	ea40 0401 	orr.w	r4, r0, r1
 80067e8:	e7da      	b.n	80067a0 <__b2d+0x50>
 80067ea:	4614      	mov	r4, r2
 80067ec:	ea46 0501 	orr.w	r5, r6, r1
 80067f0:	e7d6      	b.n	80067a0 <__b2d+0x50>
 80067f2:	bf00      	nop
 80067f4:	3ff00000 	.word	0x3ff00000

080067f8 <__d2b>:
 80067f8:	e92d 41f3 	stmdb	sp!, {r0, r1, r4, r5, r6, r7, r8, lr}
 80067fc:	2101      	movs	r1, #1
 80067fe:	e9dd 7608 	ldrd	r7, r6, [sp, #32]
 8006802:	4690      	mov	r8, r2
 8006804:	461d      	mov	r5, r3
 8006806:	f7ff fc0d 	bl	8006024 <_Balloc>
 800680a:	4604      	mov	r4, r0
 800680c:	b930      	cbnz	r0, 800681c <__d2b+0x24>
 800680e:	4602      	mov	r2, r0
 8006810:	f240 310a 	movw	r1, #778	; 0x30a
 8006814:	4b24      	ldr	r3, [pc, #144]	; (80068a8 <__d2b+0xb0>)
 8006816:	4825      	ldr	r0, [pc, #148]	; (80068ac <__d2b+0xb4>)
 8006818:	f000 fb40 	bl	8006e9c <__assert_func>
 800681c:	f3c5 0313 	ubfx	r3, r5, #0, #20
 8006820:	f3c5 550a 	ubfx	r5, r5, #20, #11
 8006824:	bb2d      	cbnz	r5, 8006872 <__d2b+0x7a>
 8006826:	9301      	str	r3, [sp, #4]
 8006828:	f1b8 0300 	subs.w	r3, r8, #0
 800682c:	d026      	beq.n	800687c <__d2b+0x84>
 800682e:	4668      	mov	r0, sp
 8006830:	9300      	str	r3, [sp, #0]
 8006832:	f7ff fd09 	bl	8006248 <__lo0bits>
 8006836:	9900      	ldr	r1, [sp, #0]
 8006838:	b1f0      	cbz	r0, 8006878 <__d2b+0x80>
 800683a:	9a01      	ldr	r2, [sp, #4]
 800683c:	f1c0 0320 	rsb	r3, r0, #32
 8006840:	fa02 f303 	lsl.w	r3, r2, r3
 8006844:	430b      	orrs	r3, r1
 8006846:	40c2      	lsrs	r2, r0
 8006848:	6163      	str	r3, [r4, #20]
 800684a:	9201      	str	r2, [sp, #4]
 800684c:	9b01      	ldr	r3, [sp, #4]
 800684e:	2b00      	cmp	r3, #0
 8006850:	bf14      	ite	ne
 8006852:	2102      	movne	r1, #2
 8006854:	2101      	moveq	r1, #1
 8006856:	61a3      	str	r3, [r4, #24]
 8006858:	6121      	str	r1, [r4, #16]
 800685a:	b1c5      	cbz	r5, 800688e <__d2b+0x96>
 800685c:	f2a5 4533 	subw	r5, r5, #1075	; 0x433
 8006860:	4405      	add	r5, r0
 8006862:	f1c0 0035 	rsb	r0, r0, #53	; 0x35
 8006866:	603d      	str	r5, [r7, #0]
 8006868:	6030      	str	r0, [r6, #0]
 800686a:	4620      	mov	r0, r4
 800686c:	b002      	add	sp, #8
 800686e:	e8bd 81f0 	ldmia.w	sp!, {r4, r5, r6, r7, r8, pc}
 8006872:	f443 1380 	orr.w	r3, r3, #1048576	; 0x100000
 8006876:	e7d6      	b.n	8006826 <__d2b+0x2e>
 8006878:	6161      	str	r1, [r4, #20]
 800687a:	e7e7      	b.n	800684c <__d2b+0x54>
 800687c:	a801      	add	r0, sp, #4
 800687e:	f7ff fce3 	bl	8006248 <__lo0bits>
 8006882:	2101      	movs	r1, #1
 8006884:	9b01      	ldr	r3, [sp, #4]
 8006886:	6121      	str	r1, [r4, #16]
 8006888:	6163      	str	r3, [r4, #20]
 800688a:	3020      	adds	r0, #32
 800688c:	e7e5      	b.n	800685a <__d2b+0x62>
 800688e:	eb04 0381 	add.w	r3, r4, r1, lsl #2
 8006892:	f2a0 4032 	subw	r0, r0, #1074	; 0x432
 8006896:	6038      	str	r0, [r7, #0]
 8006898:	6918      	ldr	r0, [r3, #16]
 800689a:	f7ff fcb5 	bl	8006208 <__hi0bits>
 800689e:	ebc0 1141 	rsb	r1, r0, r1, lsl #5
 80068a2:	6031      	str	r1, [r6, #0]
 80068a4:	e7e1      	b.n	800686a <__d2b+0x72>
 80068a6:	bf00      	nop
 80068a8:	08007c68 	.word	0x08007c68
 80068ac:	08007cf4 	.word	0x08007cf4

080068b0 <__ratio>:
 80068b0:	e92d 4ff7 	stmdb	sp!, {r0, r1, r2, r4, r5, r6, r7, r8, r9, sl, fp, lr}
 80068b4:	4688      	mov	r8, r1
 80068b6:	4669      	mov	r1, sp
 80068b8:	4681      	mov	r9, r0
 80068ba:	f7ff ff49 	bl	8006750 <__b2d>
 80068be:	460f      	mov	r7, r1
 80068c0:	4604      	mov	r4, r0
 80068c2:	460d      	mov	r5, r1
 80068c4:	4640      	mov	r0, r8
 80068c6:	a901      	add	r1, sp, #4
 80068c8:	f7ff ff42 	bl	8006750 <__b2d>
 80068cc:	f8d9 3010 	ldr.w	r3, [r9, #16]
 80068d0:	f8d8 2010 	ldr.w	r2, [r8, #16]
 80068d4:	468b      	mov	fp, r1
 80068d6:	eba3 0c02 	sub.w	ip, r3, r2
 80068da:	e9dd 3200 	ldrd	r3, r2, [sp]
 80068de:	1a9b      	subs	r3, r3, r2
 80068e0:	eb03 134c 	add.w	r3, r3, ip, lsl #5
 80068e4:	2b00      	cmp	r3, #0
 80068e6:	bfd5      	itete	le
 80068e8:	460a      	movle	r2, r1
 80068ea:	462a      	movgt	r2, r5
 80068ec:	ebc3 3303 	rsble	r3, r3, r3, lsl #12
 80068f0:	eb02 5703 	addgt.w	r7, r2, r3, lsl #20
 80068f4:	bfd8      	it	le
 80068f6:	eb02 5b03 	addle.w	fp, r2, r3, lsl #20
 80068fa:	465b      	mov	r3, fp
 80068fc:	4602      	mov	r2, r0
 80068fe:	4639      	mov	r1, r7
 8006900:	4620      	mov	r0, r4
 8006902:	f7f9 ff13 	bl	800072c <__aeabi_ddiv>
 8006906:	b003      	add	sp, #12
 8006908:	e8bd 8ff0 	ldmia.w	sp!, {r4, r5, r6, r7, r8, r9, sl, fp, pc}

0800690c <__copybits>:
 800690c:	3901      	subs	r1, #1
 800690e:	b570      	push	{r4, r5, r6, lr}
 8006910:	1149      	asrs	r1, r1, #5
 8006912:	6914      	ldr	r4, [r2, #16]
 8006914:	3101      	adds	r1, #1
 8006916:	f102 0314 	add.w	r3, r2, #20
 800691a:	eb00 0181 	add.w	r1, r0, r1, lsl #2
 800691e:	eb03 0484 	add.w	r4, r3, r4, lsl #2
 8006922:	1f05      	subs	r5, r0, #4
 8006924:	42a3      	cmp	r3, r4
 8006926:	d30c      	bcc.n	8006942 <__copybits+0x36>
 8006928:	1aa3      	subs	r3, r4, r2
 800692a:	3b11      	subs	r3, #17
 800692c:	f023 0303 	bic.w	r3, r3, #3
 8006930:	3211      	adds	r2, #17
 8006932:	42a2      	cmp	r2, r4
 8006934:	bf88      	it	hi
 8006936:	2300      	movhi	r3, #0
 8006938:	4418      	add	r0, r3
 800693a:	2300      	movs	r3, #0
 800693c:	4288      	cmp	r0, r1
 800693e:	d305      	bcc.n	800694c <__copybits+0x40>
 8006940:	bd70      	pop	{r4, r5, r6, pc}
 8006942:	f853 6b04 	ldr.w	r6, [r3], #4
 8006946:	f845 6f04 	str.w	r6, [r5, #4]!
 800694a:	e7eb      	b.n	8006924 <__copybits+0x18>
 800694c:	f840 3b04 	str.w	r3, [r0], #4
 8006950:	e7f4      	b.n	800693c <__copybits+0x30>

08006952 <__any_on>:
 8006952:	f100 0214 	add.w	r2, r0, #20
 8006956:	6900      	ldr	r0, [r0, #16]
 8006958:	114b      	asrs	r3, r1, #5
 800695a:	4298      	cmp	r0, r3
 800695c:	b510      	push	{r4, lr}
 800695e:	db11      	blt.n	8006984 <__any_on+0x32>
 8006960:	dd0a      	ble.n	8006978 <__any_on+0x26>
 8006962:	f011 011f 	ands.w	r1, r1, #31
 8006966:	d007      	beq.n	8006978 <__any_on+0x26>
 8006968:	f852 4023 	ldr.w	r4, [r2, r3, lsl #2]
 800696c:	fa24 f001 	lsr.w	r0, r4, r1
 8006970:	fa00 f101 	lsl.w	r1, r0, r1
 8006974:	428c      	cmp	r4, r1
 8006976:	d10b      	bne.n	8006990 <__any_on+0x3e>
 8006978:	eb02 0383 	add.w	r3, r2, r3, lsl #2
 800697c:	4293      	cmp	r3, r2
 800697e:	d803      	bhi.n	8006988 <__any_on+0x36>
 8006980:	2000      	movs	r0, #0
 8006982:	bd10      	pop	{r4, pc}
 8006984:	4603      	mov	r3, r0
 8006986:	e7f7      	b.n	8006978 <__any_on+0x26>
 8006988:	f853 1d04 	ldr.w	r1, [r3, #-4]!
 800698c:	2900      	cmp	r1, #0
 800698e:	d0f5      	beq.n	800697c <__any_on+0x2a>
 8006990:	2001      	movs	r0, #1
 8006992:	e7f6      	b.n	8006982 <__any_on+0x30>

08006994 <_calloc_r>:
 8006994:	b570      	push	{r4, r5, r6, lr}
 8006996:	fba1 5402 	umull	r5, r4, r1, r2
 800699a:	b934      	cbnz	r4, 80069aa <_calloc_r+0x16>
 800699c:	4629      	mov	r1, r5
 800699e:	f000 f875 	bl	8006a8c <_malloc_r>
 80069a2:	4606      	mov	r6, r0
 80069a4:	b928      	cbnz	r0, 80069b2 <_calloc_r+0x1e>
 80069a6:	4630      	mov	r0, r6
 80069a8:	bd70      	pop	{r4, r5, r6, pc}
 80069aa:	220c      	movs	r2, #12
 80069ac:	2600      	movs	r6, #0
 80069ae:	6002      	str	r2, [r0, #0]
 80069b0:	e7f9      	b.n	80069a6 <_calloc_r+0x12>
 80069b2:	462a      	mov	r2, r5
 80069b4:	4621      	mov	r1, r4
 80069b6:	f7fc fbf1 	bl	800319c <memset>
 80069ba:	e7f4      	b.n	80069a6 <_calloc_r+0x12>

080069bc <_free_r>:
 80069bc:	b538      	push	{r3, r4, r5, lr}
 80069be:	4605      	mov	r5, r0
 80069c0:	2900      	cmp	r1, #0
 80069c2:	d040      	beq.n	8006a46 <_free_r+0x8a>
 80069c4:	f851 3c04 	ldr.w	r3, [r1, #-4]
 80069c8:	1f0c      	subs	r4, r1, #4
 80069ca:	2b00      	cmp	r3, #0
 80069cc:	bfb8      	it	lt
 80069ce:	18e4      	addlt	r4, r4, r3
 80069d0:	f000 faae 	bl	8006f30 <__malloc_lock>
 80069d4:	4a1c      	ldr	r2, [pc, #112]	; (8006a48 <_free_r+0x8c>)
 80069d6:	6813      	ldr	r3, [r2, #0]
 80069d8:	b933      	cbnz	r3, 80069e8 <_free_r+0x2c>
 80069da:	6063      	str	r3, [r4, #4]
 80069dc:	6014      	str	r4, [r2, #0]
 80069de:	4628      	mov	r0, r5
 80069e0:	e8bd 4038 	ldmia.w	sp!, {r3, r4, r5, lr}
 80069e4:	f000 baaa 	b.w	8006f3c <__malloc_unlock>
 80069e8:	42a3      	cmp	r3, r4
 80069ea:	d908      	bls.n	80069fe <_free_r+0x42>
 80069ec:	6820      	ldr	r0, [r4, #0]
 80069ee:	1821      	adds	r1, r4, r0
 80069f0:	428b      	cmp	r3, r1
 80069f2:	bf01      	itttt	eq
 80069f4:	6819      	ldreq	r1, [r3, #0]
 80069f6:	685b      	ldreq	r3, [r3, #4]
 80069f8:	1809      	addeq	r1, r1, r0
 80069fa:	6021      	streq	r1, [r4, #0]
 80069fc:	e7ed      	b.n	80069da <_free_r+0x1e>
 80069fe:	461a      	mov	r2, r3
 8006a00:	685b      	ldr	r3, [r3, #4]
 8006a02:	b10b      	cbz	r3, 8006a08 <_free_r+0x4c>
 8006a04:	42a3      	cmp	r3, r4
 8006a06:	d9fa      	bls.n	80069fe <_free_r+0x42>
 8006a08:	6811      	ldr	r1, [r2, #0]
 8006a0a:	1850      	adds	r0, r2, r1
 8006a0c:	42a0      	cmp	r0, r4
 8006a0e:	d10b      	bne.n	8006a28 <_free_r+0x6c>
 8006a10:	6820      	ldr	r0, [r4, #0]
 8006a12:	4401      	add	r1, r0
 8006a14:	1850      	adds	r0, r2, r1
 8006a16:	4283      	cmp	r3, r0
 8006a18:	6011      	str	r1, [r2, #0]
 8006a1a:	d1e0      	bne.n	80069de <_free_r+0x22>
 8006a1c:	6818      	ldr	r0, [r3, #0]
 8006a1e:	685b      	ldr	r3, [r3, #4]
 8006a20:	4401      	add	r1, r0
 8006a22:	6011      	str	r1, [r2, #0]
 8006a24:	6053      	str	r3, [r2, #4]
 8006a26:	e7da      	b.n	80069de <_free_r+0x22>
 8006a28:	d902      	bls.n	8006a30 <_free_r+0x74>
 8006a2a:	230c      	movs	r3, #12
 8006a2c:	602b      	str	r3, [r5, #0]
 8006a2e:	e7d6      	b.n	80069de <_free_r+0x22>
 8006a30:	6820      	ldr	r0, [r4, #0]
 8006a32:	1821      	adds	r1, r4, r0
 8006a34:	428b      	cmp	r3, r1
 8006a36:	bf01      	itttt	eq
 8006a38:	6819      	ldreq	r1, [r3, #0]
 8006a3a:	685b      	ldreq	r3, [r3, #4]
 8006a3c:	1809      	addeq	r1, r1, r0
 8006a3e:	6021      	streq	r1, [r4, #0]
 8006a40:	6063      	str	r3, [r4, #4]
 8006a42:	6054      	str	r4, [r2, #4]
 8006a44:	e7cb      	b.n	80069de <_free_r+0x22>
 8006a46:	bd38      	pop	{r3, r4, r5, pc}
 8006a48:	2000029c 	.word	0x2000029c

08006a4c <sbrk_aligned>:
 8006a4c:	b570      	push	{r4, r5, r6, lr}
 8006a4e:	4e0e      	ldr	r6, [pc, #56]	; (8006a88 <sbrk_aligned+0x3c>)
 8006a50:	460c      	mov	r4, r1
 8006a52:	6831      	ldr	r1, [r6, #0]
 8006a54:	4605      	mov	r5, r0
 8006a56:	b911      	cbnz	r1, 8006a5e <sbrk_aligned+0x12>
 8006a58:	f000 f9ee 	bl	8006e38 <_sbrk_r>
 8006a5c:	6030      	str	r0, [r6, #0]
 8006a5e:	4621      	mov	r1, r4
 8006a60:	4628      	mov	r0, r5
 8006a62:	f000 f9e9 	bl	8006e38 <_sbrk_r>
 8006a66:	1c43      	adds	r3, r0, #1
 8006a68:	d00a      	beq.n	8006a80 <sbrk_aligned+0x34>
 8006a6a:	1cc4      	adds	r4, r0, #3
 8006a6c:	f024 0403 	bic.w	r4, r4, #3
 8006a70:	42a0      	cmp	r0, r4
 8006a72:	d007      	beq.n	8006a84 <sbrk_aligned+0x38>
 8006a74:	1a21      	subs	r1, r4, r0
 8006a76:	4628      	mov	r0, r5
 8006a78:	f000 f9de 	bl	8006e38 <_sbrk_r>
 8006a7c:	3001      	adds	r0, #1
 8006a7e:	d101      	bne.n	8006a84 <sbrk_aligned+0x38>
 8006a80:	f04f 34ff 	mov.w	r4, #4294967295
 8006a84:	4620      	mov	r0, r4
 8006a86:	bd70      	pop	{r4, r5, r6, pc}
 8006a88:	200002a0 	.word	0x200002a0

08006a8c <_malloc_r>:
 8006a8c:	e92d 41f0 	stmdb	sp!, {r4, r5, r6, r7, r8, lr}
 8006a90:	1ccd      	adds	r5, r1, #3
 8006a92:	f025 0503 	bic.w	r5, r5, #3
 8006a96:	3508      	adds	r5, #8
 8006a98:	2d0c      	cmp	r5, #12
 8006a9a:	bf38      	it	cc
 8006a9c:	250c      	movcc	r5, #12
 8006a9e:	2d00      	cmp	r5, #0
 8006aa0:	4607      	mov	r7, r0
 8006aa2:	db01      	blt.n	8006aa8 <_malloc_r+0x1c>
 8006aa4:	42a9      	cmp	r1, r5
 8006aa6:	d905      	bls.n	8006ab4 <_malloc_r+0x28>
 8006aa8:	230c      	movs	r3, #12
 8006aaa:	2600      	movs	r6, #0
 8006aac:	603b      	str	r3, [r7, #0]
 8006aae:	4630      	mov	r0, r6
 8006ab0:	e8bd 81f0 	ldmia.w	sp!, {r4, r5, r6, r7, r8, pc}
 8006ab4:	4e2e      	ldr	r6, [pc, #184]	; (8006b70 <_malloc_r+0xe4>)
 8006ab6:	f000 fa3b 	bl	8006f30 <__malloc_lock>
 8006aba:	6833      	ldr	r3, [r6, #0]
 8006abc:	461c      	mov	r4, r3
 8006abe:	bb34      	cbnz	r4, 8006b0e <_malloc_r+0x82>
 8006ac0:	4629      	mov	r1, r5
 8006ac2:	4638      	mov	r0, r7
 8006ac4:	f7ff ffc2 	bl	8006a4c <sbrk_aligned>
 8006ac8:	1c43      	adds	r3, r0, #1
 8006aca:	4604      	mov	r4, r0
 8006acc:	d14d      	bne.n	8006b6a <_malloc_r+0xde>
 8006ace:	6834      	ldr	r4, [r6, #0]
 8006ad0:	4626      	mov	r6, r4
 8006ad2:	2e00      	cmp	r6, #0
 8006ad4:	d140      	bne.n	8006b58 <_malloc_r+0xcc>
 8006ad6:	6823      	ldr	r3, [r4, #0]
 8006ad8:	4631      	mov	r1, r6
 8006ada:	4638      	mov	r0, r7
 8006adc:	eb04 0803 	add.w	r8, r4, r3
 8006ae0:	f000 f9aa 	bl	8006e38 <_sbrk_r>
 8006ae4:	4580      	cmp	r8, r0
 8006ae6:	d13a      	bne.n	8006b5e <_malloc_r+0xd2>
 8006ae8:	6821      	ldr	r1, [r4, #0]
 8006aea:	3503      	adds	r5, #3
 8006aec:	1a6d      	subs	r5, r5, r1
 8006aee:	f025 0503 	bic.w	r5, r5, #3
 8006af2:	3508      	adds	r5, #8
 8006af4:	2d0c      	cmp	r5, #12
 8006af6:	bf38      	it	cc
 8006af8:	250c      	movcc	r5, #12
 8006afa:	4638      	mov	r0, r7
 8006afc:	4629      	mov	r1, r5
 8006afe:	f7ff ffa5 	bl	8006a4c <sbrk_aligned>
 8006b02:	3001      	adds	r0, #1
 8006b04:	d02b      	beq.n	8006b5e <_malloc_r+0xd2>
 8006b06:	6823      	ldr	r3, [r4, #0]
 8006b08:	442b      	add	r3, r5
 8006b0a:	6023      	str	r3, [r4, #0]
 8006b0c:	e00e      	b.n	8006b2c <_malloc_r+0xa0>
 8006b0e:	6822      	ldr	r2, [r4, #0]
 8006b10:	1b52      	subs	r2, r2, r5
 8006b12:	d41e      	bmi.n	8006b52 <_malloc_r+0xc6>
 8006b14:	2a0b      	cmp	r2, #11
 8006b16:	d916      	bls.n	8006b46 <_malloc_r+0xba>
 8006b18:	1961      	adds	r1, r4, r5
 8006b1a:	42a3      	cmp	r3, r4
 8006b1c:	6025      	str	r5, [r4, #0]
 8006b1e:	bf18      	it	ne
 8006b20:	6059      	strne	r1, [r3, #4]
 8006b22:	6863      	ldr	r3, [r4, #4]
 8006b24:	bf08      	it	eq
 8006b26:	6031      	streq	r1, [r6, #0]
 8006b28:	5162      	str	r2, [r4, r5]
 8006b2a:	604b      	str	r3, [r1, #4]
 8006b2c:	4638      	mov	r0, r7
 8006b2e:	f104 060b 	add.w	r6, r4, #11
 8006b32:	f000 fa03 	bl	8006f3c <__malloc_unlock>
 8006b36:	f026 0607 	bic.w	r6, r6, #7
 8006b3a:	1d23      	adds	r3, r4, #4
 8006b3c:	1af2      	subs	r2, r6, r3
 8006b3e:	d0b6      	beq.n	8006aae <_malloc_r+0x22>
 8006b40:	1b9b      	subs	r3, r3, r6
 8006b42:	50a3      	str	r3, [r4, r2]
 8006b44:	e7b3      	b.n	8006aae <_malloc_r+0x22>
 8006b46:	6862      	ldr	r2, [r4, #4]
 8006b48:	42a3      	cmp	r3, r4
 8006b4a:	bf0c      	ite	eq
 8006b4c:	6032      	streq	r2, [r6, #0]
 8006b4e:	605a      	strne	r2, [r3, #4]
 8006b50:	e7ec      	b.n	8006b2c <_malloc_r+0xa0>
 8006b52:	4623      	mov	r3, r4
 8006b54:	6864      	ldr	r4, [r4, #4]
 8006b56:	e7b2      	b.n	8006abe <_malloc_r+0x32>
 8006b58:	4634      	mov	r4, r6
 8006b5a:	6876      	ldr	r6, [r6, #4]
 8006b5c:	e7b9      	b.n	8006ad2 <_malloc_r+0x46>
 8006b5e:	230c      	movs	r3, #12
 8006b60:	4638      	mov	r0, r7
 8006b62:	603b      	str	r3, [r7, #0]
 8006b64:	f000 f9ea 	bl	8006f3c <__malloc_unlock>
 8006b68:	e7a1      	b.n	8006aae <_malloc_r+0x22>
 8006b6a:	6025      	str	r5, [r4, #0]
 8006b6c:	e7de      	b.n	8006b2c <_malloc_r+0xa0>
 8006b6e:	bf00      	nop
 8006b70:	2000029c 	.word	0x2000029c

08006b74 <__ssputs_r>:
 8006b74:	e92d 47f0 	stmdb	sp!, {r4, r5, r6, r7, r8, r9, sl, lr}
 8006b78:	688e      	ldr	r6, [r1, #8]
 8006b7a:	4682      	mov	sl, r0
 8006b7c:	429e      	cmp	r6, r3
 8006b7e:	460c      	mov	r4, r1
 8006b80:	4690      	mov	r8, r2
 8006b82:	461f      	mov	r7, r3
 8006b84:	d838      	bhi.n	8006bf8 <__ssputs_r+0x84>
 8006b86:	898a      	ldrh	r2, [r1, #12]
 8006b88:	f412 6f90 	tst.w	r2, #1152	; 0x480
 8006b8c:	d032      	beq.n	8006bf4 <__ssputs_r+0x80>
 8006b8e:	6825      	ldr	r5, [r4, #0]
 8006b90:	6909      	ldr	r1, [r1, #16]
 8006b92:	3301      	adds	r3, #1
 8006b94:	eba5 0901 	sub.w	r9, r5, r1
 8006b98:	6965      	ldr	r5, [r4, #20]
 8006b9a:	444b      	add	r3, r9
 8006b9c:	eb05 0545 	add.w	r5, r5, r5, lsl #1
 8006ba0:	eb05 75d5 	add.w	r5, r5, r5, lsr #31
 8006ba4:	106d      	asrs	r5, r5, #1
 8006ba6:	429d      	cmp	r5, r3
 8006ba8:	bf38      	it	cc
 8006baa:	461d      	movcc	r5, r3
 8006bac:	0553      	lsls	r3, r2, #21
 8006bae:	d531      	bpl.n	8006c14 <__ssputs_r+0xa0>
 8006bb0:	4629      	mov	r1, r5
 8006bb2:	f7ff ff6b 	bl	8006a8c <_malloc_r>
 8006bb6:	4606      	mov	r6, r0
 8006bb8:	b950      	cbnz	r0, 8006bd0 <__ssputs_r+0x5c>
 8006bba:	230c      	movs	r3, #12
 8006bbc:	f04f 30ff 	mov.w	r0, #4294967295
 8006bc0:	f8ca 3000 	str.w	r3, [sl]
 8006bc4:	89a3      	ldrh	r3, [r4, #12]
 8006bc6:	f043 0340 	orr.w	r3, r3, #64	; 0x40
 8006bca:	81a3      	strh	r3, [r4, #12]
 8006bcc:	e8bd 87f0 	ldmia.w	sp!, {r4, r5, r6, r7, r8, r9, sl, pc}
 8006bd0:	464a      	mov	r2, r9
 8006bd2:	6921      	ldr	r1, [r4, #16]
 8006bd4:	f7ff fa18 	bl	8006008 <memcpy>
 8006bd8:	89a3      	ldrh	r3, [r4, #12]
 8006bda:	f423 6390 	bic.w	r3, r3, #1152	; 0x480
 8006bde:	f043 0380 	orr.w	r3, r3, #128	; 0x80
 8006be2:	81a3      	strh	r3, [r4, #12]
 8006be4:	6126      	str	r6, [r4, #16]
 8006be6:	444e      	add	r6, r9
 8006be8:	6026      	str	r6, [r4, #0]
 8006bea:	463e      	mov	r6, r7
 8006bec:	6165      	str	r5, [r4, #20]
 8006bee:	eba5 0509 	sub.w	r5, r5, r9
 8006bf2:	60a5      	str	r5, [r4, #8]
 8006bf4:	42be      	cmp	r6, r7
 8006bf6:	d900      	bls.n	8006bfa <__ssputs_r+0x86>
 8006bf8:	463e      	mov	r6, r7
 8006bfa:	4632      	mov	r2, r6
 8006bfc:	4641      	mov	r1, r8
 8006bfe:	6820      	ldr	r0, [r4, #0]
 8006c00:	f000 f97c 	bl	8006efc <memmove>
 8006c04:	68a3      	ldr	r3, [r4, #8]
 8006c06:	2000      	movs	r0, #0
 8006c08:	1b9b      	subs	r3, r3, r6
 8006c0a:	60a3      	str	r3, [r4, #8]
 8006c0c:	6823      	ldr	r3, [r4, #0]
 8006c0e:	4433      	add	r3, r6
 8006c10:	6023      	str	r3, [r4, #0]
 8006c12:	e7db      	b.n	8006bcc <__ssputs_r+0x58>
 8006c14:	462a      	mov	r2, r5
 8006c16:	f000 f997 	bl	8006f48 <_realloc_r>
 8006c1a:	4606      	mov	r6, r0
 8006c1c:	2800      	cmp	r0, #0
 8006c1e:	d1e1      	bne.n	8006be4 <__ssputs_r+0x70>
 8006c20:	4650      	mov	r0, sl
 8006c22:	6921      	ldr	r1, [r4, #16]
 8006c24:	f7ff feca 	bl	80069bc <_free_r>
 8006c28:	e7c7      	b.n	8006bba <__ssputs_r+0x46>
	...

08006c2c <_svfiprintf_r>:
 8006c2c:	e92d 4ff0 	stmdb	sp!, {r4, r5, r6, r7, r8, r9, sl, fp, lr}
 8006c30:	4698      	mov	r8, r3
 8006c32:	898b      	ldrh	r3, [r1, #12]
 8006c34:	4607      	mov	r7, r0
 8006c36:	061b      	lsls	r3, r3, #24
 8006c38:	460d      	mov	r5, r1
 8006c3a:	4614      	mov	r4, r2
 8006c3c:	b09d      	sub	sp, #116	; 0x74
 8006c3e:	d50e      	bpl.n	8006c5e <_svfiprintf_r+0x32>
 8006c40:	690b      	ldr	r3, [r1, #16]
 8006c42:	b963      	cbnz	r3, 8006c5e <_svfiprintf_r+0x32>
 8006c44:	2140      	movs	r1, #64	; 0x40
 8006c46:	f7ff ff21 	bl	8006a8c <_malloc_r>
 8006c4a:	6028      	str	r0, [r5, #0]
 8006c4c:	6128      	str	r0, [r5, #16]
 8006c4e:	b920      	cbnz	r0, 8006c5a <_svfiprintf_r+0x2e>
 8006c50:	230c      	movs	r3, #12
 8006c52:	603b      	str	r3, [r7, #0]
 8006c54:	f04f 30ff 	mov.w	r0, #4294967295
 8006c58:	e0d1      	b.n	8006dfe <_svfiprintf_r+0x1d2>
 8006c5a:	2340      	movs	r3, #64	; 0x40
 8006c5c:	616b      	str	r3, [r5, #20]
 8006c5e:	2300      	movs	r3, #0
 8006c60:	9309      	str	r3, [sp, #36]	; 0x24
 8006c62:	2320      	movs	r3, #32
 8006c64:	f88d 3029 	strb.w	r3, [sp, #41]	; 0x29
 8006c68:	2330      	movs	r3, #48	; 0x30
 8006c6a:	f04f 0901 	mov.w	r9, #1
 8006c6e:	f8cd 800c 	str.w	r8, [sp, #12]
 8006c72:	f8df 81a4 	ldr.w	r8, [pc, #420]	; 8006e18 <_svfiprintf_r+0x1ec>
 8006c76:	f88d 302a 	strb.w	r3, [sp, #42]	; 0x2a
 8006c7a:	4623      	mov	r3, r4
 8006c7c:	469a      	mov	sl, r3
 8006c7e:	f813 2b01 	ldrb.w	r2, [r3], #1
 8006c82:	b10a      	cbz	r2, 8006c88 <_svfiprintf_r+0x5c>
 8006c84:	2a25      	cmp	r2, #37	; 0x25
 8006c86:	d1f9      	bne.n	8006c7c <_svfiprintf_r+0x50>
 8006c88:	ebba 0b04 	subs.w	fp, sl, r4
 8006c8c:	d00b      	beq.n	8006ca6 <_svfiprintf_r+0x7a>
 8006c8e:	465b      	mov	r3, fp
 8006c90:	4622      	mov	r2, r4
 8006c92:	4629      	mov	r1, r5
 8006c94:	4638      	mov	r0, r7
 8006c96:	f7ff ff6d 	bl	8006b74 <__ssputs_r>
 8006c9a:	3001      	adds	r0, #1
 8006c9c:	f000 80aa 	beq.w	8006df4 <_svfiprintf_r+0x1c8>
 8006ca0:	9a09      	ldr	r2, [sp, #36]	; 0x24
 8006ca2:	445a      	add	r2, fp
 8006ca4:	9209      	str	r2, [sp, #36]	; 0x24
 8006ca6:	f89a 3000 	ldrb.w	r3, [sl]
 8006caa:	2b00      	cmp	r3, #0
 8006cac:	f000 80a2 	beq.w	8006df4 <_svfiprintf_r+0x1c8>
 8006cb0:	2300      	movs	r3, #0
 8006cb2:	f04f 32ff 	mov.w	r2, #4294967295
 8006cb6:	e9cd 2305 	strd	r2, r3, [sp, #20]
 8006cba:	f10a 0a01 	add.w	sl, sl, #1
 8006cbe:	9304      	str	r3, [sp, #16]
 8006cc0:	9307      	str	r3, [sp, #28]
 8006cc2:	f88d 3053 	strb.w	r3, [sp, #83]	; 0x53
 8006cc6:	931a      	str	r3, [sp, #104]	; 0x68
 8006cc8:	4654      	mov	r4, sl
 8006cca:	2205      	movs	r2, #5
 8006ccc:	f814 1b01 	ldrb.w	r1, [r4], #1
 8006cd0:	4851      	ldr	r0, [pc, #324]	; (8006e18 <_svfiprintf_r+0x1ec>)
 8006cd2:	f7ff f98b 	bl	8005fec <memchr>
 8006cd6:	9a04      	ldr	r2, [sp, #16]
 8006cd8:	b9d8      	cbnz	r0, 8006d12 <_svfiprintf_r+0xe6>
 8006cda:	06d0      	lsls	r0, r2, #27
 8006cdc:	bf44      	itt	mi
 8006cde:	2320      	movmi	r3, #32
 8006ce0:	f88d 3053 	strbmi.w	r3, [sp, #83]	; 0x53
 8006ce4:	0711      	lsls	r1, r2, #28
 8006ce6:	bf44      	itt	mi
 8006ce8:	232b      	movmi	r3, #43	; 0x2b
 8006cea:	f88d 3053 	strbmi.w	r3, [sp, #83]	; 0x53
 8006cee:	f89a 3000 	ldrb.w	r3, [sl]
 8006cf2:	2b2a      	cmp	r3, #42	; 0x2a
 8006cf4:	d015      	beq.n	8006d22 <_svfiprintf_r+0xf6>
 8006cf6:	4654      	mov	r4, sl
 8006cf8:	2000      	movs	r0, #0
 8006cfa:	f04f 0c0a 	mov.w	ip, #10
 8006cfe:	9a07      	ldr	r2, [sp, #28]
 8006d00:	4621      	mov	r1, r4
 8006d02:	f811 3b01 	ldrb.w	r3, [r1], #1
 8006d06:	3b30      	subs	r3, #48	; 0x30
 8006d08:	2b09      	cmp	r3, #9
 8006d0a:	d94e      	bls.n	8006daa <_svfiprintf_r+0x17e>
 8006d0c:	b1b0      	cbz	r0, 8006d3c <_svfiprintf_r+0x110>
 8006d0e:	9207      	str	r2, [sp, #28]
 8006d10:	e014      	b.n	8006d3c <_svfiprintf_r+0x110>
 8006d12:	eba0 0308 	sub.w	r3, r0, r8
 8006d16:	fa09 f303 	lsl.w	r3, r9, r3
 8006d1a:	4313      	orrs	r3, r2
 8006d1c:	46a2      	mov	sl, r4
 8006d1e:	9304      	str	r3, [sp, #16]
 8006d20:	e7d2      	b.n	8006cc8 <_svfiprintf_r+0x9c>
 8006d22:	9b03      	ldr	r3, [sp, #12]
 8006d24:	1d19      	adds	r1, r3, #4
 8006d26:	681b      	ldr	r3, [r3, #0]
 8006d28:	9103      	str	r1, [sp, #12]
 8006d2a:	2b00      	cmp	r3, #0
 8006d2c:	bfbb      	ittet	lt
 8006d2e:	425b      	neglt	r3, r3
 8006d30:	f042 0202 	orrlt.w	r2, r2, #2
 8006d34:	9307      	strge	r3, [sp, #28]
 8006d36:	9307      	strlt	r3, [sp, #28]
 8006d38:	bfb8      	it	lt
 8006d3a:	9204      	strlt	r2, [sp, #16]
 8006d3c:	7823      	ldrb	r3, [r4, #0]
 8006d3e:	2b2e      	cmp	r3, #46	; 0x2e
 8006d40:	d10c      	bne.n	8006d5c <_svfiprintf_r+0x130>
 8006d42:	7863      	ldrb	r3, [r4, #1]
 8006d44:	2b2a      	cmp	r3, #42	; 0x2a
 8006d46:	d135      	bne.n	8006db4 <_svfiprintf_r+0x188>
 8006d48:	9b03      	ldr	r3, [sp, #12]
 8006d4a:	3402      	adds	r4, #2
 8006d4c:	1d1a      	adds	r2, r3, #4
 8006d4e:	681b      	ldr	r3, [r3, #0]
 8006d50:	9203      	str	r2, [sp, #12]
 8006d52:	2b00      	cmp	r3, #0
 8006d54:	bfb8      	it	lt
 8006d56:	f04f 33ff 	movlt.w	r3, #4294967295
 8006d5a:	9305      	str	r3, [sp, #20]
 8006d5c:	f8df a0bc 	ldr.w	sl, [pc, #188]	; 8006e1c <_svfiprintf_r+0x1f0>
 8006d60:	2203      	movs	r2, #3
 8006d62:	4650      	mov	r0, sl
 8006d64:	7821      	ldrb	r1, [r4, #0]
 8006d66:	f7ff f941 	bl	8005fec <memchr>
 8006d6a:	b140      	cbz	r0, 8006d7e <_svfiprintf_r+0x152>
 8006d6c:	2340      	movs	r3, #64	; 0x40
 8006d6e:	eba0 000a 	sub.w	r0, r0, sl
 8006d72:	fa03 f000 	lsl.w	r0, r3, r0
 8006d76:	9b04      	ldr	r3, [sp, #16]
 8006d78:	3401      	adds	r4, #1
 8006d7a:	4303      	orrs	r3, r0
 8006d7c:	9304      	str	r3, [sp, #16]
 8006d7e:	f814 1b01 	ldrb.w	r1, [r4], #1
 8006d82:	2206      	movs	r2, #6
 8006d84:	4826      	ldr	r0, [pc, #152]	; (8006e20 <_svfiprintf_r+0x1f4>)
 8006d86:	f88d 1028 	strb.w	r1, [sp, #40]	; 0x28
 8006d8a:	f7ff f92f 	bl	8005fec <memchr>
 8006d8e:	2800      	cmp	r0, #0
 8006d90:	d038      	beq.n	8006e04 <_svfiprintf_r+0x1d8>
 8006d92:	4b24      	ldr	r3, [pc, #144]	; (8006e24 <_svfiprintf_r+0x1f8>)
 8006d94:	bb1b      	cbnz	r3, 8006dde <_svfiprintf_r+0x1b2>
 8006d96:	9b03      	ldr	r3, [sp, #12]
 8006d98:	3307      	adds	r3, #7
 8006d9a:	f023 0307 	bic.w	r3, r3, #7
 8006d9e:	3308      	adds	r3, #8
 8006da0:	9303      	str	r3, [sp, #12]
 8006da2:	9b09      	ldr	r3, [sp, #36]	; 0x24
 8006da4:	4433      	add	r3, r6
 8006da6:	9309      	str	r3, [sp, #36]	; 0x24
 8006da8:	e767      	b.n	8006c7a <_svfiprintf_r+0x4e>
 8006daa:	460c      	mov	r4, r1
 8006dac:	2001      	movs	r0, #1
 8006dae:	fb0c 3202 	mla	r2, ip, r2, r3
 8006db2:	e7a5      	b.n	8006d00 <_svfiprintf_r+0xd4>
 8006db4:	2300      	movs	r3, #0
 8006db6:	f04f 0c0a 	mov.w	ip, #10
 8006dba:	4619      	mov	r1, r3
 8006dbc:	3401      	adds	r4, #1
 8006dbe:	9305      	str	r3, [sp, #20]
 8006dc0:	4620      	mov	r0, r4
 8006dc2:	f810 2b01 	ldrb.w	r2, [r0], #1
 8006dc6:	3a30      	subs	r2, #48	; 0x30
 8006dc8:	2a09      	cmp	r2, #9
 8006dca:	d903      	bls.n	8006dd4 <_svfiprintf_r+0x1a8>
 8006dcc:	2b00      	cmp	r3, #0
 8006dce:	d0c5      	beq.n	8006d5c <_svfiprintf_r+0x130>
 8006dd0:	9105      	str	r1, [sp, #20]
 8006dd2:	e7c3      	b.n	8006d5c <_svfiprintf_r+0x130>
 8006dd4:	4604      	mov	r4, r0
 8006dd6:	2301      	movs	r3, #1
 8006dd8:	fb0c 2101 	mla	r1, ip, r1, r2
 8006ddc:	e7f0      	b.n	8006dc0 <_svfiprintf_r+0x194>
 8006dde:	ab03      	add	r3, sp, #12
 8006de0:	9300      	str	r3, [sp, #0]
 8006de2:	462a      	mov	r2, r5
 8006de4:	4638      	mov	r0, r7
 8006de6:	4b10      	ldr	r3, [pc, #64]	; (8006e28 <_svfiprintf_r+0x1fc>)
 8006de8:	a904      	add	r1, sp, #16
 8006dea:	f7fc fa7d 	bl	80032e8 <_printf_float>
 8006dee:	1c42      	adds	r2, r0, #1
 8006df0:	4606      	mov	r6, r0
 8006df2:	d1d6      	bne.n	8006da2 <_svfiprintf_r+0x176>
 8006df4:	89ab      	ldrh	r3, [r5, #12]
 8006df6:	065b      	lsls	r3, r3, #25
 8006df8:	f53f af2c 	bmi.w	8006c54 <_svfiprintf_r+0x28>
 8006dfc:	9809      	ldr	r0, [sp, #36]	; 0x24
 8006dfe:	b01d      	add	sp, #116	; 0x74
 8006e00:	e8bd 8ff0 	ldmia.w	sp!, {r4, r5, r6, r7, r8, r9, sl, fp, pc}
 8006e04:	ab03      	add	r3, sp, #12
 8006e06:	9300      	str	r3, [sp, #0]
 8006e08:	462a      	mov	r2, r5
 8006e0a:	4638      	mov	r0, r7
 8006e0c:	4b06      	ldr	r3, [pc, #24]	; (8006e28 <_svfiprintf_r+0x1fc>)
 8006e0e:	a904      	add	r1, sp, #16
 8006e10:	f7fc fd06 	bl	8003820 <_printf_i>
 8006e14:	e7eb      	b.n	8006dee <_svfiprintf_r+0x1c2>
 8006e16:	bf00      	nop
 8006e18:	08007e4c 	.word	0x08007e4c
 8006e1c:	08007e52 	.word	0x08007e52
 8006e20:	08007e56 	.word	0x08007e56
 8006e24:	080032e9 	.word	0x080032e9
 8006e28:	08006b75 	.word	0x08006b75

08006e2c <nan>:
 8006e2c:	2000      	movs	r0, #0
 8006e2e:	4901      	ldr	r1, [pc, #4]	; (8006e34 <nan+0x8>)
 8006e30:	4770      	bx	lr
 8006e32:	bf00      	nop
 8006e34:	7ff80000 	.word	0x7ff80000

08006e38 <_sbrk_r>:
 8006e38:	b538      	push	{r3, r4, r5, lr}
 8006e3a:	2300      	movs	r3, #0
 8006e3c:	4d05      	ldr	r5, [pc, #20]	; (8006e54 <_sbrk_r+0x1c>)
 8006e3e:	4604      	mov	r4, r0
 8006e40:	4608      	mov	r0, r1
 8006e42:	602b      	str	r3, [r5, #0]
 8006e44:	f7fa fa04 	bl	8001250 <_sbrk>
 8006e48:	1c43      	adds	r3, r0, #1
 8006e4a:	d102      	bne.n	8006e52 <_sbrk_r+0x1a>
 8006e4c:	682b      	ldr	r3, [r5, #0]
 8006e4e:	b103      	cbz	r3, 8006e52 <_sbrk_r+0x1a>
 8006e50:	6023      	str	r3, [r4, #0]
 8006e52:	bd38      	pop	{r3, r4, r5, pc}
 8006e54:	200002a4 	.word	0x200002a4

08006e58 <strncmp>:
 8006e58:	4603      	mov	r3, r0
 8006e5a:	b510      	push	{r4, lr}
 8006e5c:	b172      	cbz	r2, 8006e7c <strncmp+0x24>
 8006e5e:	3901      	subs	r1, #1
 8006e60:	1884      	adds	r4, r0, r2
 8006e62:	f813 0b01 	ldrb.w	r0, [r3], #1
 8006e66:	f811 2f01 	ldrb.w	r2, [r1, #1]!
 8006e6a:	4290      	cmp	r0, r2
 8006e6c:	d101      	bne.n	8006e72 <strncmp+0x1a>
 8006e6e:	42a3      	cmp	r3, r4
 8006e70:	d101      	bne.n	8006e76 <strncmp+0x1e>
 8006e72:	1a80      	subs	r0, r0, r2
 8006e74:	bd10      	pop	{r4, pc}
 8006e76:	2800      	cmp	r0, #0
 8006e78:	d1f3      	bne.n	8006e62 <strncmp+0xa>
 8006e7a:	e7fa      	b.n	8006e72 <strncmp+0x1a>
 8006e7c:	4610      	mov	r0, r2
 8006e7e:	e7f9      	b.n	8006e74 <strncmp+0x1c>

08006e80 <__ascii_wctomb>:
 8006e80:	4603      	mov	r3, r0
 8006e82:	4608      	mov	r0, r1
 8006e84:	b141      	cbz	r1, 8006e98 <__ascii_wctomb+0x18>
 8006e86:	2aff      	cmp	r2, #255	; 0xff
 8006e88:	d904      	bls.n	8006e94 <__ascii_wctomb+0x14>
 8006e8a:	228a      	movs	r2, #138	; 0x8a
 8006e8c:	f04f 30ff 	mov.w	r0, #4294967295
 8006e90:	601a      	str	r2, [r3, #0]
 8006e92:	4770      	bx	lr
 8006e94:	2001      	movs	r0, #1
 8006e96:	700a      	strb	r2, [r1, #0]
 8006e98:	4770      	bx	lr
	...

08006e9c <__assert_func>:
 8006e9c:	b51f      	push	{r0, r1, r2, r3, r4, lr}
 8006e9e:	4614      	mov	r4, r2
 8006ea0:	461a      	mov	r2, r3
 8006ea2:	4b09      	ldr	r3, [pc, #36]	; (8006ec8 <__assert_func+0x2c>)
 8006ea4:	4605      	mov	r5, r0
 8006ea6:	681b      	ldr	r3, [r3, #0]
 8006ea8:	68d8      	ldr	r0, [r3, #12]
 8006eaa:	b14c      	cbz	r4, 8006ec0 <__assert_func+0x24>
 8006eac:	4b07      	ldr	r3, [pc, #28]	; (8006ecc <__assert_func+0x30>)
 8006eae:	e9cd 3401 	strd	r3, r4, [sp, #4]
 8006eb2:	9100      	str	r1, [sp, #0]
 8006eb4:	462b      	mov	r3, r5
 8006eb6:	4906      	ldr	r1, [pc, #24]	; (8006ed0 <__assert_func+0x34>)
 8006eb8:	f000 f80e 	bl	8006ed8 <fiprintf>
 8006ebc:	f000 fa8a 	bl	80073d4 <abort>
 8006ec0:	4b04      	ldr	r3, [pc, #16]	; (8006ed4 <__assert_func+0x38>)
 8006ec2:	461c      	mov	r4, r3
 8006ec4:	e7f3      	b.n	8006eae <__assert_func+0x12>
 8006ec6:	bf00      	nop
 8006ec8:	2000001c 	.word	0x2000001c
 8006ecc:	08007e5d 	.word	0x08007e5d
 8006ed0:	08007e6a 	.word	0x08007e6a
 8006ed4:	08007e98 	.word	0x08007e98

08006ed8 <fiprintf>:
 8006ed8:	b40e      	push	{r1, r2, r3}
 8006eda:	b503      	push	{r0, r1, lr}
 8006edc:	4601      	mov	r1, r0
 8006ede:	ab03      	add	r3, sp, #12
 8006ee0:	4805      	ldr	r0, [pc, #20]	; (8006ef8 <fiprintf+0x20>)
 8006ee2:	f853 2b04 	ldr.w	r2, [r3], #4
 8006ee6:	6800      	ldr	r0, [r0, #0]
 8006ee8:	9301      	str	r3, [sp, #4]
 8006eea:	f000 f883 	bl	8006ff4 <_vfiprintf_r>
 8006eee:	b002      	add	sp, #8
 8006ef0:	f85d eb04 	ldr.w	lr, [sp], #4
 8006ef4:	b003      	add	sp, #12
 8006ef6:	4770      	bx	lr
 8006ef8:	2000001c 	.word	0x2000001c

08006efc <memmove>:
 8006efc:	4288      	cmp	r0, r1
 8006efe:	b510      	push	{r4, lr}
 8006f00:	eb01 0402 	add.w	r4, r1, r2
 8006f04:	d902      	bls.n	8006f0c <memmove+0x10>
 8006f06:	4284      	cmp	r4, r0
 8006f08:	4623      	mov	r3, r4
 8006f0a:	d807      	bhi.n	8006f1c <memmove+0x20>
 8006f0c:	1e43      	subs	r3, r0, #1
 8006f0e:	42a1      	cmp	r1, r4
 8006f10:	d008      	beq.n	8006f24 <memmove+0x28>
 8006f12:	f811 2b01 	ldrb.w	r2, [r1], #1
 8006f16:	f803 2f01 	strb.w	r2, [r3, #1]!
 8006f1a:	e7f8      	b.n	8006f0e <memmove+0x12>
 8006f1c:	4601      	mov	r1, r0
 8006f1e:	4402      	add	r2, r0
 8006f20:	428a      	cmp	r2, r1
 8006f22:	d100      	bne.n	8006f26 <memmove+0x2a>
 8006f24:	bd10      	pop	{r4, pc}
 8006f26:	f813 4d01 	ldrb.w	r4, [r3, #-1]!
 8006f2a:	f802 4d01 	strb.w	r4, [r2, #-1]!
 8006f2e:	e7f7      	b.n	8006f20 <memmove+0x24>

08006f30 <__malloc_lock>:
 8006f30:	4801      	ldr	r0, [pc, #4]	; (8006f38 <__malloc_lock+0x8>)
 8006f32:	f000 bc0b 	b.w	800774c <__retarget_lock_acquire_recursive>
 8006f36:	bf00      	nop
 8006f38:	200002a8 	.word	0x200002a8

08006f3c <__malloc_unlock>:
 8006f3c:	4801      	ldr	r0, [pc, #4]	; (8006f44 <__malloc_unlock+0x8>)
 8006f3e:	f000 bc06 	b.w	800774e <__retarget_lock_release_recursive>
 8006f42:	bf00      	nop
 8006f44:	200002a8 	.word	0x200002a8

08006f48 <_realloc_r>:
 8006f48:	e92d 41f0 	stmdb	sp!, {r4, r5, r6, r7, r8, lr}
 8006f4c:	4680      	mov	r8, r0
 8006f4e:	4614      	mov	r4, r2
 8006f50:	460e      	mov	r6, r1
 8006f52:	b921      	cbnz	r1, 8006f5e <_realloc_r+0x16>
 8006f54:	4611      	mov	r1, r2
 8006f56:	e8bd 41f0 	ldmia.w	sp!, {r4, r5, r6, r7, r8, lr}
 8006f5a:	f7ff bd97 	b.w	8006a8c <_malloc_r>
 8006f5e:	b92a      	cbnz	r2, 8006f6c <_realloc_r+0x24>
 8006f60:	f7ff fd2c 	bl	80069bc <_free_r>
 8006f64:	4625      	mov	r5, r4
 8006f66:	4628      	mov	r0, r5
 8006f68:	e8bd 81f0 	ldmia.w	sp!, {r4, r5, r6, r7, r8, pc}
 8006f6c:	f000 fc56 	bl	800781c <_malloc_usable_size_r>
 8006f70:	4284      	cmp	r4, r0
 8006f72:	4607      	mov	r7, r0
 8006f74:	d802      	bhi.n	8006f7c <_realloc_r+0x34>
 8006f76:	ebb4 0f50 	cmp.w	r4, r0, lsr #1
 8006f7a:	d812      	bhi.n	8006fa2 <_realloc_r+0x5a>
 8006f7c:	4621      	mov	r1, r4
 8006f7e:	4640      	mov	r0, r8
 8006f80:	f7ff fd84 	bl	8006a8c <_malloc_r>
 8006f84:	4605      	mov	r5, r0
 8006f86:	2800      	cmp	r0, #0
 8006f88:	d0ed      	beq.n	8006f66 <_realloc_r+0x1e>
 8006f8a:	42bc      	cmp	r4, r7
 8006f8c:	4622      	mov	r2, r4
 8006f8e:	4631      	mov	r1, r6
 8006f90:	bf28      	it	cs
 8006f92:	463a      	movcs	r2, r7
 8006f94:	f7ff f838 	bl	8006008 <memcpy>
 8006f98:	4631      	mov	r1, r6
 8006f9a:	4640      	mov	r0, r8
 8006f9c:	f7ff fd0e 	bl	80069bc <_free_r>
 8006fa0:	e7e1      	b.n	8006f66 <_realloc_r+0x1e>
 8006fa2:	4635      	mov	r5, r6
 8006fa4:	e7df      	b.n	8006f66 <_realloc_r+0x1e>

08006fa6 <__sfputc_r>:
 8006fa6:	6893      	ldr	r3, [r2, #8]
 8006fa8:	b410      	push	{r4}
 8006faa:	3b01      	subs	r3, #1
 8006fac:	2b00      	cmp	r3, #0
 8006fae:	6093      	str	r3, [r2, #8]
 8006fb0:	da07      	bge.n	8006fc2 <__sfputc_r+0x1c>
 8006fb2:	6994      	ldr	r4, [r2, #24]
 8006fb4:	42a3      	cmp	r3, r4
 8006fb6:	db01      	blt.n	8006fbc <__sfputc_r+0x16>
 8006fb8:	290a      	cmp	r1, #10
 8006fba:	d102      	bne.n	8006fc2 <__sfputc_r+0x1c>
 8006fbc:	bc10      	pop	{r4}
 8006fbe:	f000 b949 	b.w	8007254 <__swbuf_r>
 8006fc2:	6813      	ldr	r3, [r2, #0]
 8006fc4:	1c58      	adds	r0, r3, #1
 8006fc6:	6010      	str	r0, [r2, #0]
 8006fc8:	7019      	strb	r1, [r3, #0]
 8006fca:	4608      	mov	r0, r1
 8006fcc:	bc10      	pop	{r4}
 8006fce:	4770      	bx	lr

08006fd0 <__sfputs_r>:
 8006fd0:	b5f8      	push	{r3, r4, r5, r6, r7, lr}
 8006fd2:	4606      	mov	r6, r0
 8006fd4:	460f      	mov	r7, r1
 8006fd6:	4614      	mov	r4, r2
 8006fd8:	18d5      	adds	r5, r2, r3
 8006fda:	42ac      	cmp	r4, r5
 8006fdc:	d101      	bne.n	8006fe2 <__sfputs_r+0x12>
 8006fde:	2000      	movs	r0, #0
 8006fe0:	e007      	b.n	8006ff2 <__sfputs_r+0x22>
 8006fe2:	463a      	mov	r2, r7
 8006fe4:	4630      	mov	r0, r6
 8006fe6:	f814 1b01 	ldrb.w	r1, [r4], #1
 8006fea:	f7ff ffdc 	bl	8006fa6 <__sfputc_r>
 8006fee:	1c43      	adds	r3, r0, #1
 8006ff0:	d1f3      	bne.n	8006fda <__sfputs_r+0xa>
 8006ff2:	bdf8      	pop	{r3, r4, r5, r6, r7, pc}

08006ff4 <_vfiprintf_r>:
 8006ff4:	e92d 4ff0 	stmdb	sp!, {r4, r5, r6, r7, r8, r9, sl, fp, lr}
 8006ff8:	460d      	mov	r5, r1
 8006ffa:	4614      	mov	r4, r2
 8006ffc:	4698      	mov	r8, r3
 8006ffe:	4606      	mov	r6, r0
 8007000:	b09d      	sub	sp, #116	; 0x74
 8007002:	b118      	cbz	r0, 800700c <_vfiprintf_r+0x18>
 8007004:	6983      	ldr	r3, [r0, #24]
 8007006:	b90b      	cbnz	r3, 800700c <_vfiprintf_r+0x18>
 8007008:	f000 fb02 	bl	8007610 <__sinit>
 800700c:	4b89      	ldr	r3, [pc, #548]	; (8007234 <_vfiprintf_r+0x240>)
 800700e:	429d      	cmp	r5, r3
 8007010:	d11b      	bne.n	800704a <_vfiprintf_r+0x56>
 8007012:	6875      	ldr	r5, [r6, #4]
 8007014:	6e6b      	ldr	r3, [r5, #100]	; 0x64
 8007016:	07d9      	lsls	r1, r3, #31
 8007018:	d405      	bmi.n	8007026 <_vfiprintf_r+0x32>
 800701a:	89ab      	ldrh	r3, [r5, #12]
 800701c:	059a      	lsls	r2, r3, #22
 800701e:	d402      	bmi.n	8007026 <_vfiprintf_r+0x32>
 8007020:	6da8      	ldr	r0, [r5, #88]	; 0x58
 8007022:	f000 fb93 	bl	800774c <__retarget_lock_acquire_recursive>
 8007026:	89ab      	ldrh	r3, [r5, #12]
 8007028:	071b      	lsls	r3, r3, #28
 800702a:	d501      	bpl.n	8007030 <_vfiprintf_r+0x3c>
 800702c:	692b      	ldr	r3, [r5, #16]
 800702e:	b9eb      	cbnz	r3, 800706c <_vfiprintf_r+0x78>
 8007030:	4629      	mov	r1, r5
 8007032:	4630      	mov	r0, r6
 8007034:	f000 f960 	bl	80072f8 <__swsetup_r>
 8007038:	b1c0      	cbz	r0, 800706c <_vfiprintf_r+0x78>
 800703a:	6e6b      	ldr	r3, [r5, #100]	; 0x64
 800703c:	07dc      	lsls	r4, r3, #31
 800703e:	d50e      	bpl.n	800705e <_vfiprintf_r+0x6a>
 8007040:	f04f 30ff 	mov.w	r0, #4294967295
 8007044:	b01d      	add	sp, #116	; 0x74
 8007046:	e8bd 8ff0 	ldmia.w	sp!, {r4, r5, r6, r7, r8, r9, sl, fp, pc}
 800704a:	4b7b      	ldr	r3, [pc, #492]	; (8007238 <_vfiprintf_r+0x244>)
 800704c:	429d      	cmp	r5, r3
 800704e:	d101      	bne.n	8007054 <_vfiprintf_r+0x60>
 8007050:	68b5      	ldr	r5, [r6, #8]
 8007052:	e7df      	b.n	8007014 <_vfiprintf_r+0x20>
 8007054:	4b79      	ldr	r3, [pc, #484]	; (800723c <_vfiprintf_r+0x248>)
 8007056:	429d      	cmp	r5, r3
 8007058:	bf08      	it	eq
 800705a:	68f5      	ldreq	r5, [r6, #12]
 800705c:	e7da      	b.n	8007014 <_vfiprintf_r+0x20>
 800705e:	89ab      	ldrh	r3, [r5, #12]
 8007060:	0598      	lsls	r0, r3, #22
 8007062:	d4ed      	bmi.n	8007040 <_vfiprintf_r+0x4c>
 8007064:	6da8      	ldr	r0, [r5, #88]	; 0x58
 8007066:	f000 fb72 	bl	800774e <__retarget_lock_release_recursive>
 800706a:	e7e9      	b.n	8007040 <_vfiprintf_r+0x4c>
 800706c:	2300      	movs	r3, #0
 800706e:	9309      	str	r3, [sp, #36]	; 0x24
 8007070:	2320      	movs	r3, #32
 8007072:	f88d 3029 	strb.w	r3, [sp, #41]	; 0x29
 8007076:	2330      	movs	r3, #48	; 0x30
 8007078:	f04f 0901 	mov.w	r9, #1
 800707c:	f8cd 800c 	str.w	r8, [sp, #12]
 8007080:	f8df 81bc 	ldr.w	r8, [pc, #444]	; 8007240 <_vfiprintf_r+0x24c>
 8007084:	f88d 302a 	strb.w	r3, [sp, #42]	; 0x2a
 8007088:	4623      	mov	r3, r4
 800708a:	469a      	mov	sl, r3
 800708c:	f813 2b01 	ldrb.w	r2, [r3], #1
 8007090:	b10a      	cbz	r2, 8007096 <_vfiprintf_r+0xa2>
 8007092:	2a25      	cmp	r2, #37	; 0x25
 8007094:	d1f9      	bne.n	800708a <_vfiprintf_r+0x96>
 8007096:	ebba 0b04 	subs.w	fp, sl, r4
 800709a:	d00b      	beq.n	80070b4 <_vfiprintf_r+0xc0>
 800709c:	465b      	mov	r3, fp
 800709e:	4622      	mov	r2, r4
 80070a0:	4629      	mov	r1, r5
 80070a2:	4630      	mov	r0, r6
 80070a4:	f7ff ff94 	bl	8006fd0 <__sfputs_r>
 80070a8:	3001      	adds	r0, #1
 80070aa:	f000 80aa 	beq.w	8007202 <_vfiprintf_r+0x20e>
 80070ae:	9a09      	ldr	r2, [sp, #36]	; 0x24
 80070b0:	445a      	add	r2, fp
 80070b2:	9209      	str	r2, [sp, #36]	; 0x24
 80070b4:	f89a 3000 	ldrb.w	r3, [sl]
 80070b8:	2b00      	cmp	r3, #0
 80070ba:	f000 80a2 	beq.w	8007202 <_vfiprintf_r+0x20e>
 80070be:	2300      	movs	r3, #0
 80070c0:	f04f 32ff 	mov.w	r2, #4294967295
 80070c4:	e9cd 2305 	strd	r2, r3, [sp, #20]
 80070c8:	f10a 0a01 	add.w	sl, sl, #1
 80070cc:	9304      	str	r3, [sp, #16]
 80070ce:	9307      	str	r3, [sp, #28]
 80070d0:	f88d 3053 	strb.w	r3, [sp, #83]	; 0x53
 80070d4:	931a      	str	r3, [sp, #104]	; 0x68
 80070d6:	4654      	mov	r4, sl
 80070d8:	2205      	movs	r2, #5
 80070da:	f814 1b01 	ldrb.w	r1, [r4], #1
 80070de:	4858      	ldr	r0, [pc, #352]	; (8007240 <_vfiprintf_r+0x24c>)
 80070e0:	f7fe ff84 	bl	8005fec <memchr>
 80070e4:	9a04      	ldr	r2, [sp, #16]
 80070e6:	b9d8      	cbnz	r0, 8007120 <_vfiprintf_r+0x12c>
 80070e8:	06d1      	lsls	r1, r2, #27
 80070ea:	bf44      	itt	mi
 80070ec:	2320      	movmi	r3, #32
 80070ee:	f88d 3053 	strbmi.w	r3, [sp, #83]	; 0x53
 80070f2:	0713      	lsls	r3, r2, #28
 80070f4:	bf44      	itt	mi
 80070f6:	232b      	movmi	r3, #43	; 0x2b
 80070f8:	f88d 3053 	strbmi.w	r3, [sp, #83]	; 0x53
 80070fc:	f89a 3000 	ldrb.w	r3, [sl]
 8007100:	2b2a      	cmp	r3, #42	; 0x2a
 8007102:	d015      	beq.n	8007130 <_vfiprintf_r+0x13c>
 8007104:	4654      	mov	r4, sl
 8007106:	2000      	movs	r0, #0
 8007108:	f04f 0c0a 	mov.w	ip, #10
 800710c:	9a07      	ldr	r2, [sp, #28]
 800710e:	4621      	mov	r1, r4
 8007110:	f811 3b01 	ldrb.w	r3, [r1], #1
 8007114:	3b30      	subs	r3, #48	; 0x30
 8007116:	2b09      	cmp	r3, #9
 8007118:	d94e      	bls.n	80071b8 <_vfiprintf_r+0x1c4>
 800711a:	b1b0      	cbz	r0, 800714a <_vfiprintf_r+0x156>
 800711c:	9207      	str	r2, [sp, #28]
 800711e:	e014      	b.n	800714a <_vfiprintf_r+0x156>
 8007120:	eba0 0308 	sub.w	r3, r0, r8
 8007124:	fa09 f303 	lsl.w	r3, r9, r3
 8007128:	4313      	orrs	r3, r2
 800712a:	46a2      	mov	sl, r4
 800712c:	9304      	str	r3, [sp, #16]
 800712e:	e7d2      	b.n	80070d6 <_vfiprintf_r+0xe2>
 8007130:	9b03      	ldr	r3, [sp, #12]
 8007132:	1d19      	adds	r1, r3, #4
 8007134:	681b      	ldr	r3, [r3, #0]
 8007136:	9103      	str	r1, [sp, #12]
 8007138:	2b00      	cmp	r3, #0
 800713a:	bfbb      	ittet	lt
 800713c:	425b      	neglt	r3, r3
 800713e:	f042 0202 	orrlt.w	r2, r2, #2
 8007142:	9307      	strge	r3, [sp, #28]
 8007144:	9307      	strlt	r3, [sp, #28]
 8007146:	bfb8      	it	lt
 8007148:	9204      	strlt	r2, [sp, #16]
 800714a:	7823      	ldrb	r3, [r4, #0]
 800714c:	2b2e      	cmp	r3, #46	; 0x2e
 800714e:	d10c      	bne.n	800716a <_vfiprintf_r+0x176>
 8007150:	7863      	ldrb	r3, [r4, #1]
 8007152:	2b2a      	cmp	r3, #42	; 0x2a
 8007154:	d135      	bne.n	80071c2 <_vfiprintf_r+0x1ce>
 8007156:	9b03      	ldr	r3, [sp, #12]
 8007158:	3402      	adds	r4, #2
 800715a:	1d1a      	adds	r2, r3, #4
 800715c:	681b      	ldr	r3, [r3, #0]
 800715e:	9203      	str	r2, [sp, #12]
 8007160:	2b00      	cmp	r3, #0
 8007162:	bfb8      	it	lt
 8007164:	f04f 33ff 	movlt.w	r3, #4294967295
 8007168:	9305      	str	r3, [sp, #20]
 800716a:	f8df a0d8 	ldr.w	sl, [pc, #216]	; 8007244 <_vfiprintf_r+0x250>
 800716e:	2203      	movs	r2, #3
 8007170:	4650      	mov	r0, sl
 8007172:	7821      	ldrb	r1, [r4, #0]
 8007174:	f7fe ff3a 	bl	8005fec <memchr>
 8007178:	b140      	cbz	r0, 800718c <_vfiprintf_r+0x198>
 800717a:	2340      	movs	r3, #64	; 0x40
 800717c:	eba0 000a 	sub.w	r0, r0, sl
 8007180:	fa03 f000 	lsl.w	r0, r3, r0
 8007184:	9b04      	ldr	r3, [sp, #16]
 8007186:	3401      	adds	r4, #1
 8007188:	4303      	orrs	r3, r0
 800718a:	9304      	str	r3, [sp, #16]
 800718c:	f814 1b01 	ldrb.w	r1, [r4], #1
 8007190:	2206      	movs	r2, #6
 8007192:	482d      	ldr	r0, [pc, #180]	; (8007248 <_vfiprintf_r+0x254>)
 8007194:	f88d 1028 	strb.w	r1, [sp, #40]	; 0x28
 8007198:	f7fe ff28 	bl	8005fec <memchr>
 800719c:	2800      	cmp	r0, #0
 800719e:	d03f      	beq.n	8007220 <_vfiprintf_r+0x22c>
 80071a0:	4b2a      	ldr	r3, [pc, #168]	; (800724c <_vfiprintf_r+0x258>)
 80071a2:	bb1b      	cbnz	r3, 80071ec <_vfiprintf_r+0x1f8>
 80071a4:	9b03      	ldr	r3, [sp, #12]
 80071a6:	3307      	adds	r3, #7
 80071a8:	f023 0307 	bic.w	r3, r3, #7
 80071ac:	3308      	adds	r3, #8
 80071ae:	9303      	str	r3, [sp, #12]
 80071b0:	9b09      	ldr	r3, [sp, #36]	; 0x24
 80071b2:	443b      	add	r3, r7
 80071b4:	9309      	str	r3, [sp, #36]	; 0x24
 80071b6:	e767      	b.n	8007088 <_vfiprintf_r+0x94>
 80071b8:	460c      	mov	r4, r1
 80071ba:	2001      	movs	r0, #1
 80071bc:	fb0c 3202 	mla	r2, ip, r2, r3
 80071c0:	e7a5      	b.n	800710e <_vfiprintf_r+0x11a>
 80071c2:	2300      	movs	r3, #0
 80071c4:	f04f 0c0a 	mov.w	ip, #10
 80071c8:	4619      	mov	r1, r3
 80071ca:	3401      	adds	r4, #1
 80071cc:	9305      	str	r3, [sp, #20]
 80071ce:	4620      	mov	r0, r4
 80071d0:	f810 2b01 	ldrb.w	r2, [r0], #1
 80071d4:	3a30      	subs	r2, #48	; 0x30
 80071d6:	2a09      	cmp	r2, #9
 80071d8:	d903      	bls.n	80071e2 <_vfiprintf_r+0x1ee>
 80071da:	2b00      	cmp	r3, #0
 80071dc:	d0c5      	beq.n	800716a <_vfiprintf_r+0x176>
 80071de:	9105      	str	r1, [sp, #20]
 80071e0:	e7c3      	b.n	800716a <_vfiprintf_r+0x176>
 80071e2:	4604      	mov	r4, r0
 80071e4:	2301      	movs	r3, #1
 80071e6:	fb0c 2101 	mla	r1, ip, r1, r2
 80071ea:	e7f0      	b.n	80071ce <_vfiprintf_r+0x1da>
 80071ec:	ab03      	add	r3, sp, #12
 80071ee:	9300      	str	r3, [sp, #0]
 80071f0:	462a      	mov	r2, r5
 80071f2:	4630      	mov	r0, r6
 80071f4:	4b16      	ldr	r3, [pc, #88]	; (8007250 <_vfiprintf_r+0x25c>)
 80071f6:	a904      	add	r1, sp, #16
 80071f8:	f7fc f876 	bl	80032e8 <_printf_float>
 80071fc:	4607      	mov	r7, r0
 80071fe:	1c78      	adds	r0, r7, #1
 8007200:	d1d6      	bne.n	80071b0 <_vfiprintf_r+0x1bc>
 8007202:	6e6b      	ldr	r3, [r5, #100]	; 0x64
 8007204:	07d9      	lsls	r1, r3, #31
 8007206:	d405      	bmi.n	8007214 <_vfiprintf_r+0x220>
 8007208:	89ab      	ldrh	r3, [r5, #12]
 800720a:	059a      	lsls	r2, r3, #22
 800720c:	d402      	bmi.n	8007214 <_vfiprintf_r+0x220>
 800720e:	6da8      	ldr	r0, [r5, #88]	; 0x58
 8007210:	f000 fa9d 	bl	800774e <__retarget_lock_release_recursive>
 8007214:	89ab      	ldrh	r3, [r5, #12]
 8007216:	065b      	lsls	r3, r3, #25
 8007218:	f53f af12 	bmi.w	8007040 <_vfiprintf_r+0x4c>
 800721c:	9809      	ldr	r0, [sp, #36]	; 0x24
 800721e:	e711      	b.n	8007044 <_vfiprintf_r+0x50>
 8007220:	ab03      	add	r3, sp, #12
 8007222:	9300      	str	r3, [sp, #0]
 8007224:	462a      	mov	r2, r5
 8007226:	4630      	mov	r0, r6
 8007228:	4b09      	ldr	r3, [pc, #36]	; (8007250 <_vfiprintf_r+0x25c>)
 800722a:	a904      	add	r1, sp, #16
 800722c:	f7fc faf8 	bl	8003820 <_printf_i>
 8007230:	e7e4      	b.n	80071fc <_vfiprintf_r+0x208>
 8007232:	bf00      	nop
 8007234:	08007ebc 	.word	0x08007ebc
 8007238:	08007edc 	.word	0x08007edc
 800723c:	08007e9c 	.word	0x08007e9c
 8007240:	08007e4c 	.word	0x08007e4c
 8007244:	08007e52 	.word	0x08007e52
 8007248:	08007e56 	.word	0x08007e56
 800724c:	080032e9 	.word	0x080032e9
 8007250:	08006fd1 	.word	0x08006fd1

08007254 <__swbuf_r>:
 8007254:	b5f8      	push	{r3, r4, r5, r6, r7, lr}
 8007256:	460e      	mov	r6, r1
 8007258:	4614      	mov	r4, r2
 800725a:	4605      	mov	r5, r0
 800725c:	b118      	cbz	r0, 8007266 <__swbuf_r+0x12>
 800725e:	6983      	ldr	r3, [r0, #24]
 8007260:	b90b      	cbnz	r3, 8007266 <__swbuf_r+0x12>
 8007262:	f000 f9d5 	bl	8007610 <__sinit>
 8007266:	4b21      	ldr	r3, [pc, #132]	; (80072ec <__swbuf_r+0x98>)
 8007268:	429c      	cmp	r4, r3
 800726a:	d12b      	bne.n	80072c4 <__swbuf_r+0x70>
 800726c:	686c      	ldr	r4, [r5, #4]
 800726e:	69a3      	ldr	r3, [r4, #24]
 8007270:	60a3      	str	r3, [r4, #8]
 8007272:	89a3      	ldrh	r3, [r4, #12]
 8007274:	071a      	lsls	r2, r3, #28
 8007276:	d52f      	bpl.n	80072d8 <__swbuf_r+0x84>
 8007278:	6923      	ldr	r3, [r4, #16]
 800727a:	b36b      	cbz	r3, 80072d8 <__swbuf_r+0x84>
 800727c:	6923      	ldr	r3, [r4, #16]
 800727e:	6820      	ldr	r0, [r4, #0]
 8007280:	b2f6      	uxtb	r6, r6
 8007282:	1ac0      	subs	r0, r0, r3
 8007284:	6963      	ldr	r3, [r4, #20]
 8007286:	4637      	mov	r7, r6
 8007288:	4283      	cmp	r3, r0
 800728a:	dc04      	bgt.n	8007296 <__swbuf_r+0x42>
 800728c:	4621      	mov	r1, r4
 800728e:	4628      	mov	r0, r5
 8007290:	f000 f92a 	bl	80074e8 <_fflush_r>
 8007294:	bb30      	cbnz	r0, 80072e4 <__swbuf_r+0x90>
 8007296:	68a3      	ldr	r3, [r4, #8]
 8007298:	3001      	adds	r0, #1
 800729a:	3b01      	subs	r3, #1
 800729c:	60a3      	str	r3, [r4, #8]
 800729e:	6823      	ldr	r3, [r4, #0]
 80072a0:	1c5a      	adds	r2, r3, #1
 80072a2:	6022      	str	r2, [r4, #0]
 80072a4:	701e      	strb	r6, [r3, #0]
 80072a6:	6963      	ldr	r3, [r4, #20]
 80072a8:	4283      	cmp	r3, r0
 80072aa:	d004      	beq.n	80072b6 <__swbuf_r+0x62>
 80072ac:	89a3      	ldrh	r3, [r4, #12]
 80072ae:	07db      	lsls	r3, r3, #31
 80072b0:	d506      	bpl.n	80072c0 <__swbuf_r+0x6c>
 80072b2:	2e0a      	cmp	r6, #10
 80072b4:	d104      	bne.n	80072c0 <__swbuf_r+0x6c>
 80072b6:	4621      	mov	r1, r4
 80072b8:	4628      	mov	r0, r5
 80072ba:	f000 f915 	bl	80074e8 <_fflush_r>
 80072be:	b988      	cbnz	r0, 80072e4 <__swbuf_r+0x90>
 80072c0:	4638      	mov	r0, r7
 80072c2:	bdf8      	pop	{r3, r4, r5, r6, r7, pc}
 80072c4:	4b0a      	ldr	r3, [pc, #40]	; (80072f0 <__swbuf_r+0x9c>)
 80072c6:	429c      	cmp	r4, r3
 80072c8:	d101      	bne.n	80072ce <__swbuf_r+0x7a>
 80072ca:	68ac      	ldr	r4, [r5, #8]
 80072cc:	e7cf      	b.n	800726e <__swbuf_r+0x1a>
 80072ce:	4b09      	ldr	r3, [pc, #36]	; (80072f4 <__swbuf_r+0xa0>)
 80072d0:	429c      	cmp	r4, r3
 80072d2:	bf08      	it	eq
 80072d4:	68ec      	ldreq	r4, [r5, #12]
 80072d6:	e7ca      	b.n	800726e <__swbuf_r+0x1a>
 80072d8:	4621      	mov	r1, r4
 80072da:	4628      	mov	r0, r5
 80072dc:	f000 f80c 	bl	80072f8 <__swsetup_r>
 80072e0:	2800      	cmp	r0, #0
 80072e2:	d0cb      	beq.n	800727c <__swbuf_r+0x28>
 80072e4:	f04f 37ff 	mov.w	r7, #4294967295
 80072e8:	e7ea      	b.n	80072c0 <__swbuf_r+0x6c>
 80072ea:	bf00      	nop
 80072ec:	08007ebc 	.word	0x08007ebc
 80072f0:	08007edc 	.word	0x08007edc
 80072f4:	08007e9c 	.word	0x08007e9c

080072f8 <__swsetup_r>:
 80072f8:	4b32      	ldr	r3, [pc, #200]	; (80073c4 <__swsetup_r+0xcc>)
 80072fa:	b570      	push	{r4, r5, r6, lr}
 80072fc:	681d      	ldr	r5, [r3, #0]
 80072fe:	4606      	mov	r6, r0
 8007300:	460c      	mov	r4, r1
 8007302:	b125      	cbz	r5, 800730e <__swsetup_r+0x16>
 8007304:	69ab      	ldr	r3, [r5, #24]
 8007306:	b913      	cbnz	r3, 800730e <__swsetup_r+0x16>
 8007308:	4628      	mov	r0, r5
 800730a:	f000 f981 	bl	8007610 <__sinit>
 800730e:	4b2e      	ldr	r3, [pc, #184]	; (80073c8 <__swsetup_r+0xd0>)
 8007310:	429c      	cmp	r4, r3
 8007312:	d10f      	bne.n	8007334 <__swsetup_r+0x3c>
 8007314:	686c      	ldr	r4, [r5, #4]
 8007316:	89a3      	ldrh	r3, [r4, #12]
 8007318:	f9b4 200c 	ldrsh.w	r2, [r4, #12]
 800731c:	0719      	lsls	r1, r3, #28
 800731e:	d42c      	bmi.n	800737a <__swsetup_r+0x82>
 8007320:	06dd      	lsls	r5, r3, #27
 8007322:	d411      	bmi.n	8007348 <__swsetup_r+0x50>
 8007324:	2309      	movs	r3, #9
 8007326:	6033      	str	r3, [r6, #0]
 8007328:	f042 0340 	orr.w	r3, r2, #64	; 0x40
 800732c:	f04f 30ff 	mov.w	r0, #4294967295
 8007330:	81a3      	strh	r3, [r4, #12]
 8007332:	e03e      	b.n	80073b2 <__swsetup_r+0xba>
 8007334:	4b25      	ldr	r3, [pc, #148]	; (80073cc <__swsetup_r+0xd4>)
 8007336:	429c      	cmp	r4, r3
 8007338:	d101      	bne.n	800733e <__swsetup_r+0x46>
 800733a:	68ac      	ldr	r4, [r5, #8]
 800733c:	e7eb      	b.n	8007316 <__swsetup_r+0x1e>
 800733e:	4b24      	ldr	r3, [pc, #144]	; (80073d0 <__swsetup_r+0xd8>)
 8007340:	429c      	cmp	r4, r3
 8007342:	bf08      	it	eq
 8007344:	68ec      	ldreq	r4, [r5, #12]
 8007346:	e7e6      	b.n	8007316 <__swsetup_r+0x1e>
 8007348:	0758      	lsls	r0, r3, #29
 800734a:	d512      	bpl.n	8007372 <__swsetup_r+0x7a>
 800734c:	6b61      	ldr	r1, [r4, #52]	; 0x34
 800734e:	b141      	cbz	r1, 8007362 <__swsetup_r+0x6a>
 8007350:	f104 0344 	add.w	r3, r4, #68	; 0x44
 8007354:	4299      	cmp	r1, r3
 8007356:	d002      	beq.n	800735e <__swsetup_r+0x66>
 8007358:	4630      	mov	r0, r6
 800735a:	f7ff fb2f 	bl	80069bc <_free_r>
 800735e:	2300      	movs	r3, #0
 8007360:	6363      	str	r3, [r4, #52]	; 0x34
 8007362:	89a3      	ldrh	r3, [r4, #12]
 8007364:	f023 0324 	bic.w	r3, r3, #36	; 0x24
 8007368:	81a3      	strh	r3, [r4, #12]
 800736a:	2300      	movs	r3, #0
 800736c:	6063      	str	r3, [r4, #4]
 800736e:	6923      	ldr	r3, [r4, #16]
 8007370:	6023      	str	r3, [r4, #0]
 8007372:	89a3      	ldrh	r3, [r4, #12]
 8007374:	f043 0308 	orr.w	r3, r3, #8
 8007378:	81a3      	strh	r3, [r4, #12]
 800737a:	6923      	ldr	r3, [r4, #16]
 800737c:	b94b      	cbnz	r3, 8007392 <__swsetup_r+0x9a>
 800737e:	89a3      	ldrh	r3, [r4, #12]
 8007380:	f403 7320 	and.w	r3, r3, #640	; 0x280
 8007384:	f5b3 7f00 	cmp.w	r3, #512	; 0x200
 8007388:	d003      	beq.n	8007392 <__swsetup_r+0x9a>
 800738a:	4621      	mov	r1, r4
 800738c:	4630      	mov	r0, r6
 800738e:	f000 fa05 	bl	800779c <__smakebuf_r>
 8007392:	89a0      	ldrh	r0, [r4, #12]
 8007394:	f9b4 200c 	ldrsh.w	r2, [r4, #12]
 8007398:	f010 0301 	ands.w	r3, r0, #1
 800739c:	d00a      	beq.n	80073b4 <__swsetup_r+0xbc>
 800739e:	2300      	movs	r3, #0
 80073a0:	60a3      	str	r3, [r4, #8]
 80073a2:	6963      	ldr	r3, [r4, #20]
 80073a4:	425b      	negs	r3, r3
 80073a6:	61a3      	str	r3, [r4, #24]
 80073a8:	6923      	ldr	r3, [r4, #16]
 80073aa:	b943      	cbnz	r3, 80073be <__swsetup_r+0xc6>
 80073ac:	f010 0080 	ands.w	r0, r0, #128	; 0x80
 80073b0:	d1ba      	bne.n	8007328 <__swsetup_r+0x30>
 80073b2:	bd70      	pop	{r4, r5, r6, pc}
 80073b4:	0781      	lsls	r1, r0, #30
 80073b6:	bf58      	it	pl
 80073b8:	6963      	ldrpl	r3, [r4, #20]
 80073ba:	60a3      	str	r3, [r4, #8]
 80073bc:	e7f4      	b.n	80073a8 <__swsetup_r+0xb0>
 80073be:	2000      	movs	r0, #0
 80073c0:	e7f7      	b.n	80073b2 <__swsetup_r+0xba>
 80073c2:	bf00      	nop
 80073c4:	2000001c 	.word	0x2000001c
 80073c8:	08007ebc 	.word	0x08007ebc
 80073cc:	08007edc 	.word	0x08007edc
 80073d0:	08007e9c 	.word	0x08007e9c

080073d4 <abort>:
 80073d4:	2006      	movs	r0, #6
 80073d6:	b508      	push	{r3, lr}
 80073d8:	f000 fa50 	bl	800787c <raise>
 80073dc:	2001      	movs	r0, #1
 80073de:	f7f9 fec3 	bl	8001168 <_exit>
	...

080073e4 <__sflush_r>:
 80073e4:	898a      	ldrh	r2, [r1, #12]
 80073e6:	b5f8      	push	{r3, r4, r5, r6, r7, lr}
 80073e8:	4605      	mov	r5, r0
 80073ea:	0710      	lsls	r0, r2, #28
 80073ec:	460c      	mov	r4, r1
 80073ee:	d457      	bmi.n	80074a0 <__sflush_r+0xbc>
 80073f0:	684b      	ldr	r3, [r1, #4]
 80073f2:	2b00      	cmp	r3, #0
 80073f4:	dc04      	bgt.n	8007400 <__sflush_r+0x1c>
 80073f6:	6c0b      	ldr	r3, [r1, #64]	; 0x40
 80073f8:	2b00      	cmp	r3, #0
 80073fa:	dc01      	bgt.n	8007400 <__sflush_r+0x1c>
 80073fc:	2000      	movs	r0, #0
 80073fe:	bdf8      	pop	{r3, r4, r5, r6, r7, pc}
 8007400:	6ae6      	ldr	r6, [r4, #44]	; 0x2c
 8007402:	2e00      	cmp	r6, #0
 8007404:	d0fa      	beq.n	80073fc <__sflush_r+0x18>
 8007406:	2300      	movs	r3, #0
 8007408:	f412 5280 	ands.w	r2, r2, #4096	; 0x1000
 800740c:	682f      	ldr	r7, [r5, #0]
 800740e:	602b      	str	r3, [r5, #0]
 8007410:	d032      	beq.n	8007478 <__sflush_r+0x94>
 8007412:	6d60      	ldr	r0, [r4, #84]	; 0x54
 8007414:	89a3      	ldrh	r3, [r4, #12]
 8007416:	075a      	lsls	r2, r3, #29
 8007418:	d505      	bpl.n	8007426 <__sflush_r+0x42>
 800741a:	6863      	ldr	r3, [r4, #4]
 800741c:	1ac0      	subs	r0, r0, r3
 800741e:	6b63      	ldr	r3, [r4, #52]	; 0x34
 8007420:	b10b      	cbz	r3, 8007426 <__sflush_r+0x42>
 8007422:	6c23      	ldr	r3, [r4, #64]	; 0x40
 8007424:	1ac0      	subs	r0, r0, r3
 8007426:	2300      	movs	r3, #0
 8007428:	4602      	mov	r2, r0
 800742a:	6ae6      	ldr	r6, [r4, #44]	; 0x2c
 800742c:	4628      	mov	r0, r5
 800742e:	6a21      	ldr	r1, [r4, #32]
 8007430:	47b0      	blx	r6
 8007432:	1c43      	adds	r3, r0, #1
 8007434:	89a3      	ldrh	r3, [r4, #12]
 8007436:	d106      	bne.n	8007446 <__sflush_r+0x62>
 8007438:	6829      	ldr	r1, [r5, #0]
 800743a:	291d      	cmp	r1, #29
 800743c:	d82c      	bhi.n	8007498 <__sflush_r+0xb4>
 800743e:	4a29      	ldr	r2, [pc, #164]	; (80074e4 <__sflush_r+0x100>)
 8007440:	40ca      	lsrs	r2, r1
 8007442:	07d6      	lsls	r6, r2, #31
 8007444:	d528      	bpl.n	8007498 <__sflush_r+0xb4>
 8007446:	2200      	movs	r2, #0
 8007448:	6062      	str	r2, [r4, #4]
 800744a:	6922      	ldr	r2, [r4, #16]
 800744c:	04d9      	lsls	r1, r3, #19
 800744e:	6022      	str	r2, [r4, #0]
 8007450:	d504      	bpl.n	800745c <__sflush_r+0x78>
 8007452:	1c42      	adds	r2, r0, #1
 8007454:	d101      	bne.n	800745a <__sflush_r+0x76>
 8007456:	682b      	ldr	r3, [r5, #0]
 8007458:	b903      	cbnz	r3, 800745c <__sflush_r+0x78>
 800745a:	6560      	str	r0, [r4, #84]	; 0x54
 800745c:	6b61      	ldr	r1, [r4, #52]	; 0x34
 800745e:	602f      	str	r7, [r5, #0]
 8007460:	2900      	cmp	r1, #0
 8007462:	d0cb      	beq.n	80073fc <__sflush_r+0x18>
 8007464:	f104 0344 	add.w	r3, r4, #68	; 0x44
 8007468:	4299      	cmp	r1, r3
 800746a:	d002      	beq.n	8007472 <__sflush_r+0x8e>
 800746c:	4628      	mov	r0, r5
 800746e:	f7ff faa5 	bl	80069bc <_free_r>
 8007472:	2000      	movs	r0, #0
 8007474:	6360      	str	r0, [r4, #52]	; 0x34
 8007476:	e7c2      	b.n	80073fe <__sflush_r+0x1a>
 8007478:	6a21      	ldr	r1, [r4, #32]
 800747a:	2301      	movs	r3, #1
 800747c:	4628      	mov	r0, r5
 800747e:	47b0      	blx	r6
 8007480:	1c41      	adds	r1, r0, #1
 8007482:	d1c7      	bne.n	8007414 <__sflush_r+0x30>
 8007484:	682b      	ldr	r3, [r5, #0]
 8007486:	2b00      	cmp	r3, #0
 8007488:	d0c4      	beq.n	8007414 <__sflush_r+0x30>
 800748a:	2b1d      	cmp	r3, #29
 800748c:	d001      	beq.n	8007492 <__sflush_r+0xae>
 800748e:	2b16      	cmp	r3, #22
 8007490:	d101      	bne.n	8007496 <__sflush_r+0xb2>
 8007492:	602f      	str	r7, [r5, #0]
 8007494:	e7b2      	b.n	80073fc <__sflush_r+0x18>
 8007496:	89a3      	ldrh	r3, [r4, #12]
 8007498:	f043 0340 	orr.w	r3, r3, #64	; 0x40
 800749c:	81a3      	strh	r3, [r4, #12]
 800749e:	e7ae      	b.n	80073fe <__sflush_r+0x1a>
 80074a0:	690f      	ldr	r7, [r1, #16]
 80074a2:	2f00      	cmp	r7, #0
 80074a4:	d0aa      	beq.n	80073fc <__sflush_r+0x18>
 80074a6:	0793      	lsls	r3, r2, #30
 80074a8:	bf18      	it	ne
 80074aa:	2300      	movne	r3, #0
 80074ac:	680e      	ldr	r6, [r1, #0]
 80074ae:	bf08      	it	eq
 80074b0:	694b      	ldreq	r3, [r1, #20]
 80074b2:	1bf6      	subs	r6, r6, r7
 80074b4:	600f      	str	r7, [r1, #0]
 80074b6:	608b      	str	r3, [r1, #8]
 80074b8:	2e00      	cmp	r6, #0
 80074ba:	dd9f      	ble.n	80073fc <__sflush_r+0x18>
 80074bc:	4633      	mov	r3, r6
 80074be:	463a      	mov	r2, r7
 80074c0:	4628      	mov	r0, r5
 80074c2:	6a21      	ldr	r1, [r4, #32]
 80074c4:	f8d4 c028 	ldr.w	ip, [r4, #40]	; 0x28
 80074c8:	47e0      	blx	ip
 80074ca:	2800      	cmp	r0, #0
 80074cc:	dc06      	bgt.n	80074dc <__sflush_r+0xf8>
 80074ce:	89a3      	ldrh	r3, [r4, #12]
 80074d0:	f04f 30ff 	mov.w	r0, #4294967295
 80074d4:	f043 0340 	orr.w	r3, r3, #64	; 0x40
 80074d8:	81a3      	strh	r3, [r4, #12]
 80074da:	e790      	b.n	80073fe <__sflush_r+0x1a>
 80074dc:	4407      	add	r7, r0
 80074de:	1a36      	subs	r6, r6, r0
 80074e0:	e7ea      	b.n	80074b8 <__sflush_r+0xd4>
 80074e2:	bf00      	nop
 80074e4:	20400001 	.word	0x20400001

080074e8 <_fflush_r>:
 80074e8:	b538      	push	{r3, r4, r5, lr}
 80074ea:	690b      	ldr	r3, [r1, #16]
 80074ec:	4605      	mov	r5, r0
 80074ee:	460c      	mov	r4, r1
 80074f0:	b913      	cbnz	r3, 80074f8 <_fflush_r+0x10>
 80074f2:	2500      	movs	r5, #0
 80074f4:	4628      	mov	r0, r5
 80074f6:	bd38      	pop	{r3, r4, r5, pc}
 80074f8:	b118      	cbz	r0, 8007502 <_fflush_r+0x1a>
 80074fa:	6983      	ldr	r3, [r0, #24]
 80074fc:	b90b      	cbnz	r3, 8007502 <_fflush_r+0x1a>
 80074fe:	f000 f887 	bl	8007610 <__sinit>
 8007502:	4b14      	ldr	r3, [pc, #80]	; (8007554 <_fflush_r+0x6c>)
 8007504:	429c      	cmp	r4, r3
 8007506:	d11b      	bne.n	8007540 <_fflush_r+0x58>
 8007508:	686c      	ldr	r4, [r5, #4]
 800750a:	f9b4 300c 	ldrsh.w	r3, [r4, #12]
 800750e:	2b00      	cmp	r3, #0
 8007510:	d0ef      	beq.n	80074f2 <_fflush_r+0xa>
 8007512:	6e62      	ldr	r2, [r4, #100]	; 0x64
 8007514:	07d0      	lsls	r0, r2, #31
 8007516:	d404      	bmi.n	8007522 <_fflush_r+0x3a>
 8007518:	0599      	lsls	r1, r3, #22
 800751a:	d402      	bmi.n	8007522 <_fflush_r+0x3a>
 800751c:	6da0      	ldr	r0, [r4, #88]	; 0x58
 800751e:	f000 f915 	bl	800774c <__retarget_lock_acquire_recursive>
 8007522:	4628      	mov	r0, r5
 8007524:	4621      	mov	r1, r4
 8007526:	f7ff ff5d 	bl	80073e4 <__sflush_r>
 800752a:	6e63      	ldr	r3, [r4, #100]	; 0x64
 800752c:	4605      	mov	r5, r0
 800752e:	07da      	lsls	r2, r3, #31
 8007530:	d4e0      	bmi.n	80074f4 <_fflush_r+0xc>
 8007532:	89a3      	ldrh	r3, [r4, #12]
 8007534:	059b      	lsls	r3, r3, #22
 8007536:	d4dd      	bmi.n	80074f4 <_fflush_r+0xc>
 8007538:	6da0      	ldr	r0, [r4, #88]	; 0x58
 800753a:	f000 f908 	bl	800774e <__retarget_lock_release_recursive>
 800753e:	e7d9      	b.n	80074f4 <_fflush_r+0xc>
 8007540:	4b05      	ldr	r3, [pc, #20]	; (8007558 <_fflush_r+0x70>)
 8007542:	429c      	cmp	r4, r3
 8007544:	d101      	bne.n	800754a <_fflush_r+0x62>
 8007546:	68ac      	ldr	r4, [r5, #8]
 8007548:	e7df      	b.n	800750a <_fflush_r+0x22>
 800754a:	4b04      	ldr	r3, [pc, #16]	; (800755c <_fflush_r+0x74>)
 800754c:	429c      	cmp	r4, r3
 800754e:	bf08      	it	eq
 8007550:	68ec      	ldreq	r4, [r5, #12]
 8007552:	e7da      	b.n	800750a <_fflush_r+0x22>
 8007554:	08007ebc 	.word	0x08007ebc
 8007558:	08007edc 	.word	0x08007edc
 800755c:	08007e9c 	.word	0x08007e9c

08007560 <std>:
 8007560:	2300      	movs	r3, #0
 8007562:	b510      	push	{r4, lr}
 8007564:	4604      	mov	r4, r0
 8007566:	e9c0 3300 	strd	r3, r3, [r0]
 800756a:	e9c0 3304 	strd	r3, r3, [r0, #16]
 800756e:	6083      	str	r3, [r0, #8]
 8007570:	8181      	strh	r1, [r0, #12]
 8007572:	6643      	str	r3, [r0, #100]	; 0x64
 8007574:	81c2      	strh	r2, [r0, #14]
 8007576:	6183      	str	r3, [r0, #24]
 8007578:	4619      	mov	r1, r3
 800757a:	2208      	movs	r2, #8
 800757c:	305c      	adds	r0, #92	; 0x5c
 800757e:	f7fb fe0d 	bl	800319c <memset>
 8007582:	4b05      	ldr	r3, [pc, #20]	; (8007598 <std+0x38>)
 8007584:	6224      	str	r4, [r4, #32]
 8007586:	6263      	str	r3, [r4, #36]	; 0x24
 8007588:	4b04      	ldr	r3, [pc, #16]	; (800759c <std+0x3c>)
 800758a:	62a3      	str	r3, [r4, #40]	; 0x28
 800758c:	4b04      	ldr	r3, [pc, #16]	; (80075a0 <std+0x40>)
 800758e:	62e3      	str	r3, [r4, #44]	; 0x2c
 8007590:	4b04      	ldr	r3, [pc, #16]	; (80075a4 <std+0x44>)
 8007592:	6323      	str	r3, [r4, #48]	; 0x30
 8007594:	bd10      	pop	{r4, pc}
 8007596:	bf00      	nop
 8007598:	080078b5 	.word	0x080078b5
 800759c:	080078d7 	.word	0x080078d7
 80075a0:	0800790f 	.word	0x0800790f
 80075a4:	08007933 	.word	0x08007933

080075a8 <_cleanup_r>:
 80075a8:	4901      	ldr	r1, [pc, #4]	; (80075b0 <_cleanup_r+0x8>)
 80075aa:	f000 b8af 	b.w	800770c <_fwalk_reent>
 80075ae:	bf00      	nop
 80075b0:	080074e9 	.word	0x080074e9

080075b4 <__sfmoreglue>:
 80075b4:	2268      	movs	r2, #104	; 0x68
 80075b6:	b570      	push	{r4, r5, r6, lr}
 80075b8:	1e4d      	subs	r5, r1, #1
 80075ba:	4355      	muls	r5, r2
 80075bc:	460e      	mov	r6, r1
 80075be:	f105 0174 	add.w	r1, r5, #116	; 0x74
 80075c2:	f7ff fa63 	bl	8006a8c <_malloc_r>
 80075c6:	4604      	mov	r4, r0
 80075c8:	b140      	cbz	r0, 80075dc <__sfmoreglue+0x28>
 80075ca:	2100      	movs	r1, #0
 80075cc:	e9c0 1600 	strd	r1, r6, [r0]
 80075d0:	300c      	adds	r0, #12
 80075d2:	60a0      	str	r0, [r4, #8]
 80075d4:	f105 0268 	add.w	r2, r5, #104	; 0x68
 80075d8:	f7fb fde0 	bl	800319c <memset>
 80075dc:	4620      	mov	r0, r4
 80075de:	bd70      	pop	{r4, r5, r6, pc}

080075e0 <__sfp_lock_acquire>:
 80075e0:	4801      	ldr	r0, [pc, #4]	; (80075e8 <__sfp_lock_acquire+0x8>)
 80075e2:	f000 b8b3 	b.w	800774c <__retarget_lock_acquire_recursive>
 80075e6:	bf00      	nop
 80075e8:	200002a9 	.word	0x200002a9

080075ec <__sfp_lock_release>:
 80075ec:	4801      	ldr	r0, [pc, #4]	; (80075f4 <__sfp_lock_release+0x8>)
 80075ee:	f000 b8ae 	b.w	800774e <__retarget_lock_release_recursive>
 80075f2:	bf00      	nop
 80075f4:	200002a9 	.word	0x200002a9

080075f8 <__sinit_lock_acquire>:
 80075f8:	4801      	ldr	r0, [pc, #4]	; (8007600 <__sinit_lock_acquire+0x8>)
 80075fa:	f000 b8a7 	b.w	800774c <__retarget_lock_acquire_recursive>
 80075fe:	bf00      	nop
 8007600:	200002aa 	.word	0x200002aa

08007604 <__sinit_lock_release>:
 8007604:	4801      	ldr	r0, [pc, #4]	; (800760c <__sinit_lock_release+0x8>)
 8007606:	f000 b8a2 	b.w	800774e <__retarget_lock_release_recursive>
 800760a:	bf00      	nop
 800760c:	200002aa 	.word	0x200002aa

08007610 <__sinit>:
 8007610:	b510      	push	{r4, lr}
 8007612:	4604      	mov	r4, r0
 8007614:	f7ff fff0 	bl	80075f8 <__sinit_lock_acquire>
 8007618:	69a3      	ldr	r3, [r4, #24]
 800761a:	b11b      	cbz	r3, 8007624 <__sinit+0x14>
 800761c:	e8bd 4010 	ldmia.w	sp!, {r4, lr}
 8007620:	f7ff bff0 	b.w	8007604 <__sinit_lock_release>
 8007624:	e9c4 3312 	strd	r3, r3, [r4, #72]	; 0x48
 8007628:	6523      	str	r3, [r4, #80]	; 0x50
 800762a:	4b13      	ldr	r3, [pc, #76]	; (8007678 <__sinit+0x68>)
 800762c:	4a13      	ldr	r2, [pc, #76]	; (800767c <__sinit+0x6c>)
 800762e:	681b      	ldr	r3, [r3, #0]
 8007630:	62a2      	str	r2, [r4, #40]	; 0x28
 8007632:	42a3      	cmp	r3, r4
 8007634:	bf08      	it	eq
 8007636:	2301      	moveq	r3, #1
 8007638:	4620      	mov	r0, r4
 800763a:	bf08      	it	eq
 800763c:	61a3      	streq	r3, [r4, #24]
 800763e:	f000 f81f 	bl	8007680 <__sfp>
 8007642:	6060      	str	r0, [r4, #4]
 8007644:	4620      	mov	r0, r4
 8007646:	f000 f81b 	bl	8007680 <__sfp>
 800764a:	60a0      	str	r0, [r4, #8]
 800764c:	4620      	mov	r0, r4
 800764e:	f000 f817 	bl	8007680 <__sfp>
 8007652:	2200      	movs	r2, #0
 8007654:	2104      	movs	r1, #4
 8007656:	60e0      	str	r0, [r4, #12]
 8007658:	6860      	ldr	r0, [r4, #4]
 800765a:	f7ff ff81 	bl	8007560 <std>
 800765e:	2201      	movs	r2, #1
 8007660:	2109      	movs	r1, #9
 8007662:	68a0      	ldr	r0, [r4, #8]
 8007664:	f7ff ff7c 	bl	8007560 <std>
 8007668:	2202      	movs	r2, #2
 800766a:	2112      	movs	r1, #18
 800766c:	68e0      	ldr	r0, [r4, #12]
 800766e:	f7ff ff77 	bl	8007560 <std>
 8007672:	2301      	movs	r3, #1
 8007674:	61a3      	str	r3, [r4, #24]
 8007676:	e7d1      	b.n	800761c <__sinit+0xc>
 8007678:	08007a54 	.word	0x08007a54
 800767c:	080075a9 	.word	0x080075a9

08007680 <__sfp>:
 8007680:	b5f8      	push	{r3, r4, r5, r6, r7, lr}
 8007682:	4607      	mov	r7, r0
 8007684:	f7ff ffac 	bl	80075e0 <__sfp_lock_acquire>
 8007688:	4b1e      	ldr	r3, [pc, #120]	; (8007704 <__sfp+0x84>)
 800768a:	681e      	ldr	r6, [r3, #0]
 800768c:	69b3      	ldr	r3, [r6, #24]
 800768e:	b913      	cbnz	r3, 8007696 <__sfp+0x16>
 8007690:	4630      	mov	r0, r6
 8007692:	f7ff ffbd 	bl	8007610 <__sinit>
 8007696:	3648      	adds	r6, #72	; 0x48
 8007698:	e9d6 3401 	ldrd	r3, r4, [r6, #4]
 800769c:	3b01      	subs	r3, #1
 800769e:	d503      	bpl.n	80076a8 <__sfp+0x28>
 80076a0:	6833      	ldr	r3, [r6, #0]
 80076a2:	b30b      	cbz	r3, 80076e8 <__sfp+0x68>
 80076a4:	6836      	ldr	r6, [r6, #0]
 80076a6:	e7f7      	b.n	8007698 <__sfp+0x18>
 80076a8:	f9b4 500c 	ldrsh.w	r5, [r4, #12]
 80076ac:	b9d5      	cbnz	r5, 80076e4 <__sfp+0x64>
 80076ae:	4b16      	ldr	r3, [pc, #88]	; (8007708 <__sfp+0x88>)
 80076b0:	f104 0058 	add.w	r0, r4, #88	; 0x58
 80076b4:	60e3      	str	r3, [r4, #12]
 80076b6:	6665      	str	r5, [r4, #100]	; 0x64
 80076b8:	f000 f847 	bl	800774a <__retarget_lock_init_recursive>
 80076bc:	f7ff ff96 	bl	80075ec <__sfp_lock_release>
 80076c0:	2208      	movs	r2, #8
 80076c2:	4629      	mov	r1, r5
 80076c4:	e9c4 5501 	strd	r5, r5, [r4, #4]
 80076c8:	e9c4 5504 	strd	r5, r5, [r4, #16]
 80076cc:	6025      	str	r5, [r4, #0]
 80076ce:	61a5      	str	r5, [r4, #24]
 80076d0:	f104 005c 	add.w	r0, r4, #92	; 0x5c
 80076d4:	f7fb fd62 	bl	800319c <memset>
 80076d8:	e9c4 550d 	strd	r5, r5, [r4, #52]	; 0x34
 80076dc:	e9c4 5512 	strd	r5, r5, [r4, #72]	; 0x48
 80076e0:	4620      	mov	r0, r4
 80076e2:	bdf8      	pop	{r3, r4, r5, r6, r7, pc}
 80076e4:	3468      	adds	r4, #104	; 0x68
 80076e6:	e7d9      	b.n	800769c <__sfp+0x1c>
 80076e8:	2104      	movs	r1, #4
 80076ea:	4638      	mov	r0, r7
 80076ec:	f7ff ff62 	bl	80075b4 <__sfmoreglue>
 80076f0:	4604      	mov	r4, r0
 80076f2:	6030      	str	r0, [r6, #0]
 80076f4:	2800      	cmp	r0, #0
 80076f6:	d1d5      	bne.n	80076a4 <__sfp+0x24>
 80076f8:	f7ff ff78 	bl	80075ec <__sfp_lock_release>
 80076fc:	230c      	movs	r3, #12
 80076fe:	603b      	str	r3, [r7, #0]
 8007700:	e7ee      	b.n	80076e0 <__sfp+0x60>
 8007702:	bf00      	nop
 8007704:	08007a54 	.word	0x08007a54
 8007708:	ffff0001 	.word	0xffff0001

0800770c <_fwalk_reent>:
 800770c:	e92d 43f8 	stmdb	sp!, {r3, r4, r5, r6, r7, r8, r9, lr}
 8007710:	4606      	mov	r6, r0
 8007712:	4688      	mov	r8, r1
 8007714:	2700      	movs	r7, #0
 8007716:	f100 0448 	add.w	r4, r0, #72	; 0x48
 800771a:	e9d4 9501 	ldrd	r9, r5, [r4, #4]
 800771e:	f1b9 0901 	subs.w	r9, r9, #1
 8007722:	d505      	bpl.n	8007730 <_fwalk_reent+0x24>
 8007724:	6824      	ldr	r4, [r4, #0]
 8007726:	2c00      	cmp	r4, #0
 8007728:	d1f7      	bne.n	800771a <_fwalk_reent+0xe>
 800772a:	4638      	mov	r0, r7
 800772c:	e8bd 83f8 	ldmia.w	sp!, {r3, r4, r5, r6, r7, r8, r9, pc}
 8007730:	89ab      	ldrh	r3, [r5, #12]
 8007732:	2b01      	cmp	r3, #1
 8007734:	d907      	bls.n	8007746 <_fwalk_reent+0x3a>
 8007736:	f9b5 300e 	ldrsh.w	r3, [r5, #14]
 800773a:	3301      	adds	r3, #1
 800773c:	d003      	beq.n	8007746 <_fwalk_reent+0x3a>
 800773e:	4629      	mov	r1, r5
 8007740:	4630      	mov	r0, r6
 8007742:	47c0      	blx	r8
 8007744:	4307      	orrs	r7, r0
 8007746:	3568      	adds	r5, #104	; 0x68
 8007748:	e7e9      	b.n	800771e <_fwalk_reent+0x12>

0800774a <__retarget_lock_init_recursive>:
 800774a:	4770      	bx	lr

0800774c <__retarget_lock_acquire_recursive>:
 800774c:	4770      	bx	lr

0800774e <__retarget_lock_release_recursive>:
 800774e:	4770      	bx	lr

08007750 <__swhatbuf_r>:
 8007750:	b570      	push	{r4, r5, r6, lr}
 8007752:	460e      	mov	r6, r1
 8007754:	f9b1 100e 	ldrsh.w	r1, [r1, #14]
 8007758:	4614      	mov	r4, r2
 800775a:	2900      	cmp	r1, #0
 800775c:	461d      	mov	r5, r3
 800775e:	b096      	sub	sp, #88	; 0x58
 8007760:	da08      	bge.n	8007774 <__swhatbuf_r+0x24>
 8007762:	2200      	movs	r2, #0
 8007764:	f9b6 300c 	ldrsh.w	r3, [r6, #12]
 8007768:	602a      	str	r2, [r5, #0]
 800776a:	061a      	lsls	r2, r3, #24
 800776c:	d410      	bmi.n	8007790 <__swhatbuf_r+0x40>
 800776e:	f44f 6380 	mov.w	r3, #1024	; 0x400
 8007772:	e00e      	b.n	8007792 <__swhatbuf_r+0x42>
 8007774:	466a      	mov	r2, sp
 8007776:	f000 f903 	bl	8007980 <_fstat_r>
 800777a:	2800      	cmp	r0, #0
 800777c:	dbf1      	blt.n	8007762 <__swhatbuf_r+0x12>
 800777e:	9a01      	ldr	r2, [sp, #4]
 8007780:	f402 4270 	and.w	r2, r2, #61440	; 0xf000
 8007784:	f5a2 5300 	sub.w	r3, r2, #8192	; 0x2000
 8007788:	425a      	negs	r2, r3
 800778a:	415a      	adcs	r2, r3
 800778c:	602a      	str	r2, [r5, #0]
 800778e:	e7ee      	b.n	800776e <__swhatbuf_r+0x1e>
 8007790:	2340      	movs	r3, #64	; 0x40
 8007792:	2000      	movs	r0, #0
 8007794:	6023      	str	r3, [r4, #0]
 8007796:	b016      	add	sp, #88	; 0x58
 8007798:	bd70      	pop	{r4, r5, r6, pc}
	...

0800779c <__smakebuf_r>:
 800779c:	898b      	ldrh	r3, [r1, #12]
 800779e:	b573      	push	{r0, r1, r4, r5, r6, lr}
 80077a0:	079d      	lsls	r5, r3, #30
 80077a2:	4606      	mov	r6, r0
 80077a4:	460c      	mov	r4, r1
 80077a6:	d507      	bpl.n	80077b8 <__smakebuf_r+0x1c>
 80077a8:	f104 0347 	add.w	r3, r4, #71	; 0x47
 80077ac:	6023      	str	r3, [r4, #0]
 80077ae:	6123      	str	r3, [r4, #16]
 80077b0:	2301      	movs	r3, #1
 80077b2:	6163      	str	r3, [r4, #20]
 80077b4:	b002      	add	sp, #8
 80077b6:	bd70      	pop	{r4, r5, r6, pc}
 80077b8:	466a      	mov	r2, sp
 80077ba:	ab01      	add	r3, sp, #4
 80077bc:	f7ff ffc8 	bl	8007750 <__swhatbuf_r>
 80077c0:	9900      	ldr	r1, [sp, #0]
 80077c2:	4605      	mov	r5, r0
 80077c4:	4630      	mov	r0, r6
 80077c6:	f7ff f961 	bl	8006a8c <_malloc_r>
 80077ca:	b948      	cbnz	r0, 80077e0 <__smakebuf_r+0x44>
 80077cc:	f9b4 300c 	ldrsh.w	r3, [r4, #12]
 80077d0:	059a      	lsls	r2, r3, #22
 80077d2:	d4ef      	bmi.n	80077b4 <__smakebuf_r+0x18>
 80077d4:	f023 0303 	bic.w	r3, r3, #3
 80077d8:	f043 0302 	orr.w	r3, r3, #2
 80077dc:	81a3      	strh	r3, [r4, #12]
 80077de:	e7e3      	b.n	80077a8 <__smakebuf_r+0xc>
 80077e0:	4b0d      	ldr	r3, [pc, #52]	; (8007818 <__smakebuf_r+0x7c>)
 80077e2:	62b3      	str	r3, [r6, #40]	; 0x28
 80077e4:	89a3      	ldrh	r3, [r4, #12]
 80077e6:	6020      	str	r0, [r4, #0]
 80077e8:	f043 0380 	orr.w	r3, r3, #128	; 0x80
 80077ec:	81a3      	strh	r3, [r4, #12]
 80077ee:	9b00      	ldr	r3, [sp, #0]
 80077f0:	6120      	str	r0, [r4, #16]
 80077f2:	6163      	str	r3, [r4, #20]
 80077f4:	9b01      	ldr	r3, [sp, #4]
 80077f6:	b15b      	cbz	r3, 8007810 <__smakebuf_r+0x74>
 80077f8:	4630      	mov	r0, r6
 80077fa:	f9b4 100e 	ldrsh.w	r1, [r4, #14]
 80077fe:	f000 f8d1 	bl	80079a4 <_isatty_r>
 8007802:	b128      	cbz	r0, 8007810 <__smakebuf_r+0x74>
 8007804:	89a3      	ldrh	r3, [r4, #12]
 8007806:	f023 0303 	bic.w	r3, r3, #3
 800780a:	f043 0301 	orr.w	r3, r3, #1
 800780e:	81a3      	strh	r3, [r4, #12]
 8007810:	89a0      	ldrh	r0, [r4, #12]
 8007812:	4305      	orrs	r5, r0
 8007814:	81a5      	strh	r5, [r4, #12]
 8007816:	e7cd      	b.n	80077b4 <__smakebuf_r+0x18>
 8007818:	080075a9 	.word	0x080075a9

0800781c <_malloc_usable_size_r>:
 800781c:	f851 3c04 	ldr.w	r3, [r1, #-4]
 8007820:	1f18      	subs	r0, r3, #4
 8007822:	2b00      	cmp	r3, #0
 8007824:	bfbc      	itt	lt
 8007826:	580b      	ldrlt	r3, [r1, r0]
 8007828:	18c0      	addlt	r0, r0, r3
 800782a:	4770      	bx	lr

0800782c <_raise_r>:
 800782c:	291f      	cmp	r1, #31
 800782e:	b538      	push	{r3, r4, r5, lr}
 8007830:	4604      	mov	r4, r0
 8007832:	460d      	mov	r5, r1
 8007834:	d904      	bls.n	8007840 <_raise_r+0x14>
 8007836:	2316      	movs	r3, #22
 8007838:	6003      	str	r3, [r0, #0]
 800783a:	f04f 30ff 	mov.w	r0, #4294967295
 800783e:	bd38      	pop	{r3, r4, r5, pc}
 8007840:	6c42      	ldr	r2, [r0, #68]	; 0x44
 8007842:	b112      	cbz	r2, 800784a <_raise_r+0x1e>
 8007844:	f852 3021 	ldr.w	r3, [r2, r1, lsl #2]
 8007848:	b94b      	cbnz	r3, 800785e <_raise_r+0x32>
 800784a:	4620      	mov	r0, r4
 800784c:	f000 f830 	bl	80078b0 <_getpid_r>
 8007850:	462a      	mov	r2, r5
 8007852:	4601      	mov	r1, r0
 8007854:	4620      	mov	r0, r4
 8007856:	e8bd 4038 	ldmia.w	sp!, {r3, r4, r5, lr}
 800785a:	f000 b817 	b.w	800788c <_kill_r>
 800785e:	2b01      	cmp	r3, #1
 8007860:	d00a      	beq.n	8007878 <_raise_r+0x4c>
 8007862:	1c59      	adds	r1, r3, #1
 8007864:	d103      	bne.n	800786e <_raise_r+0x42>
 8007866:	2316      	movs	r3, #22
 8007868:	6003      	str	r3, [r0, #0]
 800786a:	2001      	movs	r0, #1
 800786c:	e7e7      	b.n	800783e <_raise_r+0x12>
 800786e:	2400      	movs	r4, #0
 8007870:	4628      	mov	r0, r5
 8007872:	f842 4025 	str.w	r4, [r2, r5, lsl #2]
 8007876:	4798      	blx	r3
 8007878:	2000      	movs	r0, #0
 800787a:	e7e0      	b.n	800783e <_raise_r+0x12>

0800787c <raise>:
 800787c:	4b02      	ldr	r3, [pc, #8]	; (8007888 <raise+0xc>)
 800787e:	4601      	mov	r1, r0
 8007880:	6818      	ldr	r0, [r3, #0]
 8007882:	f7ff bfd3 	b.w	800782c <_raise_r>
 8007886:	bf00      	nop
 8007888:	2000001c 	.word	0x2000001c

0800788c <_kill_r>:
 800788c:	b538      	push	{r3, r4, r5, lr}
 800788e:	2300      	movs	r3, #0
 8007890:	4d06      	ldr	r5, [pc, #24]	; (80078ac <_kill_r+0x20>)
 8007892:	4604      	mov	r4, r0
 8007894:	4608      	mov	r0, r1
 8007896:	4611      	mov	r1, r2
 8007898:	602b      	str	r3, [r5, #0]
 800789a:	f7f9 fc55 	bl	8001148 <_kill>
 800789e:	1c43      	adds	r3, r0, #1
 80078a0:	d102      	bne.n	80078a8 <_kill_r+0x1c>
 80078a2:	682b      	ldr	r3, [r5, #0]
 80078a4:	b103      	cbz	r3, 80078a8 <_kill_r+0x1c>
 80078a6:	6023      	str	r3, [r4, #0]
 80078a8:	bd38      	pop	{r3, r4, r5, pc}
 80078aa:	bf00      	nop
 80078ac:	200002a4 	.word	0x200002a4

080078b0 <_getpid_r>:
 80078b0:	f7f9 bc43 	b.w	800113a <_getpid>

080078b4 <__sread>:
 80078b4:	b510      	push	{r4, lr}
 80078b6:	460c      	mov	r4, r1
 80078b8:	f9b1 100e 	ldrsh.w	r1, [r1, #14]
 80078bc:	f000 f894 	bl	80079e8 <_read_r>
 80078c0:	2800      	cmp	r0, #0
 80078c2:	bfab      	itete	ge
 80078c4:	6d63      	ldrge	r3, [r4, #84]	; 0x54
 80078c6:	89a3      	ldrhlt	r3, [r4, #12]
 80078c8:	181b      	addge	r3, r3, r0
 80078ca:	f423 5380 	biclt.w	r3, r3, #4096	; 0x1000
 80078ce:	bfac      	ite	ge
 80078d0:	6563      	strge	r3, [r4, #84]	; 0x54
 80078d2:	81a3      	strhlt	r3, [r4, #12]
 80078d4:	bd10      	pop	{r4, pc}

080078d6 <__swrite>:
 80078d6:	e92d 41f0 	stmdb	sp!, {r4, r5, r6, r7, r8, lr}
 80078da:	461f      	mov	r7, r3
 80078dc:	898b      	ldrh	r3, [r1, #12]
 80078de:	4605      	mov	r5, r0
 80078e0:	05db      	lsls	r3, r3, #23
 80078e2:	460c      	mov	r4, r1
 80078e4:	4616      	mov	r6, r2
 80078e6:	d505      	bpl.n	80078f4 <__swrite+0x1e>
 80078e8:	2302      	movs	r3, #2
 80078ea:	2200      	movs	r2, #0
 80078ec:	f9b1 100e 	ldrsh.w	r1, [r1, #14]
 80078f0:	f000 f868 	bl	80079c4 <_lseek_r>
 80078f4:	89a3      	ldrh	r3, [r4, #12]
 80078f6:	4632      	mov	r2, r6
 80078f8:	f423 5380 	bic.w	r3, r3, #4096	; 0x1000
 80078fc:	81a3      	strh	r3, [r4, #12]
 80078fe:	4628      	mov	r0, r5
 8007900:	463b      	mov	r3, r7
 8007902:	f9b4 100e 	ldrsh.w	r1, [r4, #14]
 8007906:	e8bd 41f0 	ldmia.w	sp!, {r4, r5, r6, r7, r8, lr}
 800790a:	f000 b817 	b.w	800793c <_write_r>

0800790e <__sseek>:
 800790e:	b510      	push	{r4, lr}
 8007910:	460c      	mov	r4, r1
 8007912:	f9b1 100e 	ldrsh.w	r1, [r1, #14]
 8007916:	f000 f855 	bl	80079c4 <_lseek_r>
 800791a:	1c43      	adds	r3, r0, #1
 800791c:	89a3      	ldrh	r3, [r4, #12]
 800791e:	bf15      	itete	ne
 8007920:	6560      	strne	r0, [r4, #84]	; 0x54
 8007922:	f423 5380 	biceq.w	r3, r3, #4096	; 0x1000
 8007926:	f443 5380 	orrne.w	r3, r3, #4096	; 0x1000
 800792a:	81a3      	strheq	r3, [r4, #12]
 800792c:	bf18      	it	ne
 800792e:	81a3      	strhne	r3, [r4, #12]
 8007930:	bd10      	pop	{r4, pc}

08007932 <__sclose>:
 8007932:	f9b1 100e 	ldrsh.w	r1, [r1, #14]
 8007936:	f000 b813 	b.w	8007960 <_close_r>
	...

0800793c <_write_r>:
 800793c:	b538      	push	{r3, r4, r5, lr}
 800793e:	4604      	mov	r4, r0
 8007940:	4608      	mov	r0, r1
 8007942:	4611      	mov	r1, r2
 8007944:	2200      	movs	r2, #0
 8007946:	4d05      	ldr	r5, [pc, #20]	; (800795c <_write_r+0x20>)
 8007948:	602a      	str	r2, [r5, #0]
 800794a:	461a      	mov	r2, r3
 800794c:	f7f9 fc33 	bl	80011b6 <_write>
 8007950:	1c43      	adds	r3, r0, #1
 8007952:	d102      	bne.n	800795a <_write_r+0x1e>
 8007954:	682b      	ldr	r3, [r5, #0]
 8007956:	b103      	cbz	r3, 800795a <_write_r+0x1e>
 8007958:	6023      	str	r3, [r4, #0]
 800795a:	bd38      	pop	{r3, r4, r5, pc}
 800795c:	200002a4 	.word	0x200002a4

08007960 <_close_r>:
 8007960:	b538      	push	{r3, r4, r5, lr}
 8007962:	2300      	movs	r3, #0
 8007964:	4d05      	ldr	r5, [pc, #20]	; (800797c <_close_r+0x1c>)
 8007966:	4604      	mov	r4, r0
 8007968:	4608      	mov	r0, r1
 800796a:	602b      	str	r3, [r5, #0]
 800796c:	f7f9 fc3f 	bl	80011ee <_close>
 8007970:	1c43      	adds	r3, r0, #1
 8007972:	d102      	bne.n	800797a <_close_r+0x1a>
 8007974:	682b      	ldr	r3, [r5, #0]
 8007976:	b103      	cbz	r3, 800797a <_close_r+0x1a>
 8007978:	6023      	str	r3, [r4, #0]
 800797a:	bd38      	pop	{r3, r4, r5, pc}
 800797c:	200002a4 	.word	0x200002a4

08007980 <_fstat_r>:
 8007980:	b538      	push	{r3, r4, r5, lr}
 8007982:	2300      	movs	r3, #0
 8007984:	4d06      	ldr	r5, [pc, #24]	; (80079a0 <_fstat_r+0x20>)
 8007986:	4604      	mov	r4, r0
 8007988:	4608      	mov	r0, r1
 800798a:	4611      	mov	r1, r2
 800798c:	602b      	str	r3, [r5, #0]
 800798e:	f7f9 fc39 	bl	8001204 <_fstat>
 8007992:	1c43      	adds	r3, r0, #1
 8007994:	d102      	bne.n	800799c <_fstat_r+0x1c>
 8007996:	682b      	ldr	r3, [r5, #0]
 8007998:	b103      	cbz	r3, 800799c <_fstat_r+0x1c>
 800799a:	6023      	str	r3, [r4, #0]
 800799c:	bd38      	pop	{r3, r4, r5, pc}
 800799e:	bf00      	nop
 80079a0:	200002a4 	.word	0x200002a4

080079a4 <_isatty_r>:
 80079a4:	b538      	push	{r3, r4, r5, lr}
 80079a6:	2300      	movs	r3, #0
 80079a8:	4d05      	ldr	r5, [pc, #20]	; (80079c0 <_isatty_r+0x1c>)
 80079aa:	4604      	mov	r4, r0
 80079ac:	4608      	mov	r0, r1
 80079ae:	602b      	str	r3, [r5, #0]
 80079b0:	f7f9 fc37 	bl	8001222 <_isatty>
 80079b4:	1c43      	adds	r3, r0, #1
 80079b6:	d102      	bne.n	80079be <_isatty_r+0x1a>
 80079b8:	682b      	ldr	r3, [r5, #0]
 80079ba:	b103      	cbz	r3, 80079be <_isatty_r+0x1a>
 80079bc:	6023      	str	r3, [r4, #0]
 80079be:	bd38      	pop	{r3, r4, r5, pc}
 80079c0:	200002a4 	.word	0x200002a4

080079c4 <_lseek_r>:
 80079c4:	b538      	push	{r3, r4, r5, lr}
 80079c6:	4604      	mov	r4, r0
 80079c8:	4608      	mov	r0, r1
 80079ca:	4611      	mov	r1, r2
 80079cc:	2200      	movs	r2, #0
 80079ce:	4d05      	ldr	r5, [pc, #20]	; (80079e4 <_lseek_r+0x20>)
 80079d0:	602a      	str	r2, [r5, #0]
 80079d2:	461a      	mov	r2, r3
 80079d4:	f7f9 fc2f 	bl	8001236 <_lseek>
 80079d8:	1c43      	adds	r3, r0, #1
 80079da:	d102      	bne.n	80079e2 <_lseek_r+0x1e>
 80079dc:	682b      	ldr	r3, [r5, #0]
 80079de:	b103      	cbz	r3, 80079e2 <_lseek_r+0x1e>
 80079e0:	6023      	str	r3, [r4, #0]
 80079e2:	bd38      	pop	{r3, r4, r5, pc}
 80079e4:	200002a4 	.word	0x200002a4

080079e8 <_read_r>:
 80079e8:	b538      	push	{r3, r4, r5, lr}
 80079ea:	4604      	mov	r4, r0
 80079ec:	4608      	mov	r0, r1
 80079ee:	4611      	mov	r1, r2
 80079f0:	2200      	movs	r2, #0
 80079f2:	4d05      	ldr	r5, [pc, #20]	; (8007a08 <_read_r+0x20>)
 80079f4:	602a      	str	r2, [r5, #0]
 80079f6:	461a      	mov	r2, r3
 80079f8:	f7f9 fbc0 	bl	800117c <_read>
 80079fc:	1c43      	adds	r3, r0, #1
 80079fe:	d102      	bne.n	8007a06 <_read_r+0x1e>
 8007a00:	682b      	ldr	r3, [r5, #0]
 8007a02:	b103      	cbz	r3, 8007a06 <_read_r+0x1e>
 8007a04:	6023      	str	r3, [r4, #0]
 8007a06:	bd38      	pop	{r3, r4, r5, pc}
 8007a08:	200002a4 	.word	0x200002a4

08007a0c <_init>:
 8007a0c:	b5f8      	push	{r3, r4, r5, r6, r7, lr}
 8007a0e:	bf00      	nop
 8007a10:	bcf8      	pop	{r3, r4, r5, r6, r7}
 8007a12:	bc08      	pop	{r3}
 8007a14:	469e      	mov	lr, r3
 8007a16:	4770      	bx	lr

08007a18 <_fini>:
 8007a18:	b5f8      	push	{r3, r4, r5, r6, r7, lr}
 8007a1a:	bf00      	nop
 8007a1c:	bcf8      	pop	{r3, r4, r5, r6, r7}
 8007a1e:	bc08      	pop	{r3}
 8007a20:	469e      	mov	lr, r3
 8007a22:	4770      	bx	lr
